
STM32-G431RBT6.elf:     file format elf32-littlearm

Sections:
Idx Name          Size      VMA       LMA       File off  Algn
  0 .isr_vector   000001d8  08000000  08000000  00001000  2**0
                  CONTENTS, ALLOC, LOAD, READONLY, DATA
  1 .text         0000824c  080001e0  080001e0  000011e0  2**4
                  CONTENTS, ALLOC, LOAD, READONLY, CODE
  2 .rodata       0000046c  08008430  08008430  00009430  2**3
                  CONTENTS, ALLOC, LOAD, READONLY, DATA
  3 .ARM.extab    00000000  0800889c  0800889c  0000a1d4  2**0
                  CONTENTS, READONLY
  4 .ARM          00000008  0800889c  0800889c  0000989c  2**2
                  CONTENTS, ALLOC, LOAD, READONLY, DATA
  5 .preinit_array 00000000  080088a4  080088a4  0000a1d4  2**0
                  CONTENTS, ALLOC, LOAD, DATA
  6 .init_array   00000004  080088a4  080088a4  000098a4  2**2
                  CONTENTS, ALLOC, LOAD, READONLY, DATA
  7 .fini_array   00000004  080088a8  080088a8  000098a8  2**2
                  CONTENTS, ALLOC, LOAD, READONLY, DATA
  8 .data         000001d4  20000000  080088ac  0000a000  2**2
                  CONTENTS, ALLOC, LOAD, DATA
  9 .bss          0000086c  200001d4  08008a80  0000a1d4  2**2
                  ALLOC
 10 ._user_heap_stack 00000600  20000a40  08008a80  0000aa40  2**0
                  ALLOC
 11 .ARM.attributes 00000030  00000000  00000000  0000a1d4  2**0
                  CONTENTS, READONLY
 12 .debug_info   00018acf  00000000  00000000  0000a204  2**0
                  CONTENTS, READONLY, DEBUGGING, OCTETS
 13 .debug_abbrev 000037b1  00000000  00000000  00022cd3  2**0
                  CONTENTS, READONLY, DEBUGGING, OCTETS
 14 .debug_loclists 0000a985  00000000  00000000  00026484  2**0
                  CONTENTS, READONLY, DEBUGGING, OCTETS
 15 .debug_aranges 00001158  00000000  00000000  00030e10  2**3
                  CONTENTS, READONLY, DEBUGGING, OCTETS
 16 .debug_rnglists 00000f86  00000000  00000000  00031f68  2**0
                  CONTENTS, READONLY, DEBUGGING, OCTETS
 17 .debug_macro  000201be  00000000  00000000  00032eee  2**0
                  CONTENTS, READONLY, DEBUGGING, OCTETS
 18 .debug_line   0001a868  00000000  00000000  000530ac  2**0
                  CONTENTS, READONLY, DEBUGGING, OCTETS
 19 .debug_str    000c816d  00000000  00000000  0006d914  2**0
                  CONTENTS, READONLY, DEBUGGING, OCTETS
 20 .comment      00000043  00000000  00000000  00135a81  2**0
                  CONTENTS, READONLY
 21 .debug_frame  0000402c  00000000  00000000  00135ac4  2**2
                  CONTENTS, READONLY, DEBUGGING, OCTETS
 22 .debug_line_str 0000004e  00000000  00000000  00139af0  2**0
                  CONTENTS, READONLY, DEBUGGING, OCTETS

Disassembly of section .text:

080001e0 <__do_global_dtors_aux>:
 80001e0:	b510      	push	{r4, lr}
 80001e2:	4c05      	ldr	r4, [pc, #20]	@ (80001f8 <__do_global_dtors_aux+0x18>)
 80001e4:	7823      	ldrb	r3, [r4, #0]
 80001e6:	b933      	cbnz	r3, 80001f6 <__do_global_dtors_aux+0x16>
 80001e8:	4b04      	ldr	r3, [pc, #16]	@ (80001fc <__do_global_dtors_aux+0x1c>)
 80001ea:	b113      	cbz	r3, 80001f2 <__do_global_dtors_aux+0x12>
 80001ec:	4804      	ldr	r0, [pc, #16]	@ (8000200 <__do_global_dtors_aux+0x20>)
 80001ee:	f3af 8000 	nop.w
 80001f2:	2301      	movs	r3, #1
 80001f4:	7023      	strb	r3, [r4, #0]
 80001f6:	bd10      	pop	{r4, pc}
 80001f8:	200001d4 	.word	0x200001d4
 80001fc:	00000000 	.word	0x00000000
 8000200:	08008414 	.word	0x08008414

08000204 <frame_dummy>:
 8000204:	b508      	push	{r3, lr}
 8000206:	4b03      	ldr	r3, [pc, #12]	@ (8000214 <frame_dummy+0x10>)
 8000208:	b11b      	cbz	r3, 8000212 <frame_dummy+0xe>
 800020a:	4903      	ldr	r1, [pc, #12]	@ (8000218 <frame_dummy+0x14>)
 800020c:	4803      	ldr	r0, [pc, #12]	@ (800021c <frame_dummy+0x18>)
 800020e:	f3af 8000 	nop.w
 8000212:	bd08      	pop	{r3, pc}
 8000214:	00000000 	.word	0x00000000
 8000218:	200001d8 	.word	0x200001d8
 800021c:	08008414 	.word	0x08008414

08000220 <memchr>:
 8000220:	f001 01ff 	and.w	r1, r1, #255	@ 0xff
 8000224:	2a10      	cmp	r2, #16
 8000226:	db2b      	blt.n	8000280 <memchr+0x60>
 8000228:	f010 0f07 	tst.w	r0, #7
 800022c:	d008      	beq.n	8000240 <memchr+0x20>
 800022e:	f810 3b01 	ldrb.w	r3, [r0], #1
 8000232:	3a01      	subs	r2, #1
 8000234:	428b      	cmp	r3, r1
 8000236:	d02d      	beq.n	8000294 <memchr+0x74>
 8000238:	f010 0f07 	tst.w	r0, #7
 800023c:	b342      	cbz	r2, 8000290 <memchr+0x70>
 800023e:	d1f6      	bne.n	800022e <memchr+0xe>
 8000240:	b4f0      	push	{r4, r5, r6, r7}
 8000242:	ea41 2101 	orr.w	r1, r1, r1, lsl #8
 8000246:	ea41 4101 	orr.w	r1, r1, r1, lsl #16
 800024a:	f022 0407 	bic.w	r4, r2, #7
 800024e:	f07f 0700 	mvns.w	r7, #0
 8000252:	2300      	movs	r3, #0
 8000254:	e8f0 5602 	ldrd	r5, r6, [r0], #8
 8000258:	3c08      	subs	r4, #8
 800025a:	ea85 0501 	eor.w	r5, r5, r1
 800025e:	ea86 0601 	eor.w	r6, r6, r1
 8000262:	fa85 f547 	uadd8	r5, r5, r7
 8000266:	faa3 f587 	sel	r5, r3, r7
 800026a:	fa86 f647 	uadd8	r6, r6, r7
 800026e:	faa5 f687 	sel	r6, r5, r7
 8000272:	b98e      	cbnz	r6, 8000298 <memchr+0x78>
 8000274:	d1ee      	bne.n	8000254 <memchr+0x34>
 8000276:	bcf0      	pop	{r4, r5, r6, r7}
 8000278:	f001 01ff 	and.w	r1, r1, #255	@ 0xff
 800027c:	f002 0207 	and.w	r2, r2, #7
 8000280:	b132      	cbz	r2, 8000290 <memchr+0x70>
 8000282:	f810 3b01 	ldrb.w	r3, [r0], #1
 8000286:	3a01      	subs	r2, #1
 8000288:	ea83 0301 	eor.w	r3, r3, r1
 800028c:	b113      	cbz	r3, 8000294 <memchr+0x74>
 800028e:	d1f8      	bne.n	8000282 <memchr+0x62>
 8000290:	2000      	movs	r0, #0
 8000292:	4770      	bx	lr
 8000294:	3801      	subs	r0, #1
 8000296:	4770      	bx	lr
 8000298:	2d00      	cmp	r5, #0
 800029a:	bf06      	itte	eq
 800029c:	4635      	moveq	r5, r6
 800029e:	3803      	subeq	r0, #3
 80002a0:	3807      	subne	r0, #7
 80002a2:	f015 0f01 	tst.w	r5, #1
 80002a6:	d107      	bne.n	80002b8 <memchr+0x98>
 80002a8:	3001      	adds	r0, #1
 80002aa:	f415 7f80 	tst.w	r5, #256	@ 0x100
 80002ae:	bf02      	ittt	eq
 80002b0:	3001      	addeq	r0, #1
 80002b2:	f415 3fc0 	tsteq.w	r5, #98304	@ 0x18000
 80002b6:	3001      	addeq	r0, #1
 80002b8:	bcf0      	pop	{r4, r5, r6, r7}
 80002ba:	3801      	subs	r0, #1
 80002bc:	4770      	bx	lr
 80002be:	bf00      	nop

080002c0 <strlen>:
 80002c0:	4603      	mov	r3, r0
 80002c2:	f813 2b01 	ldrb.w	r2, [r3], #1
 80002c6:	2a00      	cmp	r2, #0
 80002c8:	d1fb      	bne.n	80002c2 <strlen+0x2>
 80002ca:	1a18      	subs	r0, r3, r0
 80002cc:	3801      	subs	r0, #1
 80002ce:	4770      	bx	lr

080002d0 <__aeabi_drsub>:
 80002d0:	f081 4100 	eor.w	r1, r1, #2147483648	@ 0x80000000
 80002d4:	e002      	b.n	80002dc <__adddf3>
 80002d6:	bf00      	nop

080002d8 <__aeabi_dsub>:
 80002d8:	f083 4300 	eor.w	r3, r3, #2147483648	@ 0x80000000

080002dc <__adddf3>:
 80002dc:	b530      	push	{r4, r5, lr}
 80002de:	ea4f 0441 	mov.w	r4, r1, lsl #1
 80002e2:	ea4f 0543 	mov.w	r5, r3, lsl #1
 80002e6:	ea94 0f05 	teq	r4, r5
 80002ea:	bf08      	it	eq
 80002ec:	ea90 0f02 	teqeq	r0, r2
 80002f0:	bf1f      	itttt	ne
 80002f2:	ea54 0c00 	orrsne.w	ip, r4, r0
 80002f6:	ea55 0c02 	orrsne.w	ip, r5, r2
 80002fa:	ea7f 5c64 	mvnsne.w	ip, r4, asr #21
 80002fe:	ea7f 5c65 	mvnsne.w	ip, r5, asr #21
 8000302:	f000 80e2 	beq.w	80004ca <__adddf3+0x1ee>
 8000306:	ea4f 5454 	mov.w	r4, r4, lsr #21
 800030a:	ebd4 5555 	rsbs	r5, r4, r5, lsr #21
 800030e:	bfb8      	it	lt
 8000310:	426d      	neglt	r5, r5
 8000312:	dd0c      	ble.n	800032e <__adddf3+0x52>
 8000314:	442c      	add	r4, r5
 8000316:	ea80 0202 	eor.w	r2, r0, r2
 800031a:	ea81 0303 	eor.w	r3, r1, r3
 800031e:	ea82 0000 	eor.w	r0, r2, r0
 8000322:	ea83 0101 	eor.w	r1, r3, r1
 8000326:	ea80 0202 	eor.w	r2, r0, r2
 800032a:	ea81 0303 	eor.w	r3, r1, r3
 800032e:	2d36      	cmp	r5, #54	@ 0x36
 8000330:	bf88      	it	hi
 8000332:	bd30      	pophi	{r4, r5, pc}
 8000334:	f011 4f00 	tst.w	r1, #2147483648	@ 0x80000000
 8000338:	ea4f 3101 	mov.w	r1, r1, lsl #12
 800033c:	f44f 1c80 	mov.w	ip, #1048576	@ 0x100000
 8000340:	ea4c 3111 	orr.w	r1, ip, r1, lsr #12
 8000344:	d002      	beq.n	800034c <__adddf3+0x70>
 8000346:	4240      	negs	r0, r0
 8000348:	eb61 0141 	sbc.w	r1, r1, r1, lsl #1
 800034c:	f013 4f00 	tst.w	r3, #2147483648	@ 0x80000000
 8000350:	ea4f 3303 	mov.w	r3, r3, lsl #12
 8000354:	ea4c 3313 	orr.w	r3, ip, r3, lsr #12
 8000358:	d002      	beq.n	8000360 <__adddf3+0x84>
 800035a:	4252      	negs	r2, r2
 800035c:	eb63 0343 	sbc.w	r3, r3, r3, lsl #1
 8000360:	ea94 0f05 	teq	r4, r5
 8000364:	f000 80a7 	beq.w	80004b6 <__adddf3+0x1da>
 8000368:	f1a4 0401 	sub.w	r4, r4, #1
 800036c:	f1d5 0e20 	rsbs	lr, r5, #32
 8000370:	db0d      	blt.n	800038e <__adddf3+0xb2>
 8000372:	fa02 fc0e 	lsl.w	ip, r2, lr
 8000376:	fa22 f205 	lsr.w	r2, r2, r5
 800037a:	1880      	adds	r0, r0, r2
 800037c:	f141 0100 	adc.w	r1, r1, #0
 8000380:	fa03 f20e 	lsl.w	r2, r3, lr
 8000384:	1880      	adds	r0, r0, r2
 8000386:	fa43 f305 	asr.w	r3, r3, r5
 800038a:	4159      	adcs	r1, r3
 800038c:	e00e      	b.n	80003ac <__adddf3+0xd0>
 800038e:	f1a5 0520 	sub.w	r5, r5, #32
 8000392:	f10e 0e20 	add.w	lr, lr, #32
 8000396:	2a01      	cmp	r2, #1
 8000398:	fa03 fc0e 	lsl.w	ip, r3, lr
 800039c:	bf28      	it	cs
 800039e:	f04c 0c02 	orrcs.w	ip, ip, #2
 80003a2:	fa43 f305 	asr.w	r3, r3, r5
 80003a6:	18c0      	adds	r0, r0, r3
 80003a8:	eb51 71e3 	adcs.w	r1, r1, r3, asr #31
 80003ac:	f001 4500 	and.w	r5, r1, #2147483648	@ 0x80000000
 80003b0:	d507      	bpl.n	80003c2 <__adddf3+0xe6>
 80003b2:	f04f 0e00 	mov.w	lr, #0
 80003b6:	f1dc 0c00 	rsbs	ip, ip, #0
 80003ba:	eb7e 0000 	sbcs.w	r0, lr, r0
 80003be:	eb6e 0101 	sbc.w	r1, lr, r1
 80003c2:	f5b1 1f80 	cmp.w	r1, #1048576	@ 0x100000
 80003c6:	d31b      	bcc.n	8000400 <__adddf3+0x124>
 80003c8:	f5b1 1f00 	cmp.w	r1, #2097152	@ 0x200000
 80003cc:	d30c      	bcc.n	80003e8 <__adddf3+0x10c>
 80003ce:	0849      	lsrs	r1, r1, #1
 80003d0:	ea5f 0030 	movs.w	r0, r0, rrx
 80003d4:	ea4f 0c3c 	mov.w	ip, ip, rrx
 80003d8:	f104 0401 	add.w	r4, r4, #1
 80003dc:	ea4f 5244 	mov.w	r2, r4, lsl #21
 80003e0:	f512 0f80 	cmn.w	r2, #4194304	@ 0x400000
 80003e4:	f080 809a 	bcs.w	800051c <__adddf3+0x240>
 80003e8:	f1bc 4f00 	cmp.w	ip, #2147483648	@ 0x80000000
 80003ec:	bf08      	it	eq
 80003ee:	ea5f 0c50 	movseq.w	ip, r0, lsr #1
 80003f2:	f150 0000 	adcs.w	r0, r0, #0
 80003f6:	eb41 5104 	adc.w	r1, r1, r4, lsl #20
 80003fa:	ea41 0105 	orr.w	r1, r1, r5
 80003fe:	bd30      	pop	{r4, r5, pc}
 8000400:	ea5f 0c4c 	movs.w	ip, ip, lsl #1
 8000404:	4140      	adcs	r0, r0
 8000406:	eb41 0101 	adc.w	r1, r1, r1
 800040a:	3c01      	subs	r4, #1
 800040c:	bf28      	it	cs
 800040e:	f5b1 1f80 	cmpcs.w	r1, #1048576	@ 0x100000
 8000412:	d2e9      	bcs.n	80003e8 <__adddf3+0x10c>
 8000414:	f091 0f00 	teq	r1, #0
 8000418:	bf04      	itt	eq
 800041a:	4601      	moveq	r1, r0
 800041c:	2000      	moveq	r0, #0
 800041e:	fab1 f381 	clz	r3, r1
 8000422:	bf08      	it	eq
 8000424:	3320      	addeq	r3, #32
 8000426:	f1a3 030b 	sub.w	r3, r3, #11
 800042a:	f1b3 0220 	subs.w	r2, r3, #32
 800042e:	da0c      	bge.n	800044a <__adddf3+0x16e>
 8000430:	320c      	adds	r2, #12
 8000432:	dd08      	ble.n	8000446 <__adddf3+0x16a>
 8000434:	f102 0c14 	add.w	ip, r2, #20
 8000438:	f1c2 020c 	rsb	r2, r2, #12
 800043c:	fa01 f00c 	lsl.w	r0, r1, ip
 8000440:	fa21 f102 	lsr.w	r1, r1, r2
 8000444:	e00c      	b.n	8000460 <__adddf3+0x184>
 8000446:	f102 0214 	add.w	r2, r2, #20
 800044a:	bfd8      	it	le
 800044c:	f1c2 0c20 	rsble	ip, r2, #32
 8000450:	fa01 f102 	lsl.w	r1, r1, r2
 8000454:	fa20 fc0c 	lsr.w	ip, r0, ip
 8000458:	bfdc      	itt	le
 800045a:	ea41 010c 	orrle.w	r1, r1, ip
 800045e:	4090      	lslle	r0, r2
 8000460:	1ae4      	subs	r4, r4, r3
 8000462:	bfa2      	ittt	ge
 8000464:	eb01 5104 	addge.w	r1, r1, r4, lsl #20
 8000468:	4329      	orrge	r1, r5
 800046a:	bd30      	popge	{r4, r5, pc}
 800046c:	ea6f 0404 	mvn.w	r4, r4
 8000470:	3c1f      	subs	r4, #31
 8000472:	da1c      	bge.n	80004ae <__adddf3+0x1d2>
 8000474:	340c      	adds	r4, #12
 8000476:	dc0e      	bgt.n	8000496 <__adddf3+0x1ba>
 8000478:	f104 0414 	add.w	r4, r4, #20
 800047c:	f1c4 0220 	rsb	r2, r4, #32
 8000480:	fa20 f004 	lsr.w	r0, r0, r4
 8000484:	fa01 f302 	lsl.w	r3, r1, r2
 8000488:	ea40 0003 	orr.w	r0, r0, r3
 800048c:	fa21 f304 	lsr.w	r3, r1, r4
 8000490:	ea45 0103 	orr.w	r1, r5, r3
 8000494:	bd30      	pop	{r4, r5, pc}
 8000496:	f1c4 040c 	rsb	r4, r4, #12
 800049a:	f1c4 0220 	rsb	r2, r4, #32
 800049e:	fa20 f002 	lsr.w	r0, r0, r2
 80004a2:	fa01 f304 	lsl.w	r3, r1, r4
 80004a6:	ea40 0003 	orr.w	r0, r0, r3
 80004aa:	4629      	mov	r1, r5
 80004ac:	bd30      	pop	{r4, r5, pc}
 80004ae:	fa21 f004 	lsr.w	r0, r1, r4
 80004b2:	4629      	mov	r1, r5
 80004b4:	bd30      	pop	{r4, r5, pc}
 80004b6:	f094 0f00 	teq	r4, #0
 80004ba:	f483 1380 	eor.w	r3, r3, #1048576	@ 0x100000
 80004be:	bf06      	itte	eq
 80004c0:	f481 1180 	eoreq.w	r1, r1, #1048576	@ 0x100000
 80004c4:	3401      	addeq	r4, #1
 80004c6:	3d01      	subne	r5, #1
 80004c8:	e74e      	b.n	8000368 <__adddf3+0x8c>
 80004ca:	ea7f 5c64 	mvns.w	ip, r4, asr #21
 80004ce:	bf18      	it	ne
 80004d0:	ea7f 5c65 	mvnsne.w	ip, r5, asr #21
 80004d4:	d029      	beq.n	800052a <__adddf3+0x24e>
 80004d6:	ea94 0f05 	teq	r4, r5
 80004da:	bf08      	it	eq
 80004dc:	ea90 0f02 	teqeq	r0, r2
 80004e0:	d005      	beq.n	80004ee <__adddf3+0x212>
 80004e2:	ea54 0c00 	orrs.w	ip, r4, r0
 80004e6:	bf04      	itt	eq
 80004e8:	4619      	moveq	r1, r3
 80004ea:	4610      	moveq	r0, r2
 80004ec:	bd30      	pop	{r4, r5, pc}
 80004ee:	ea91 0f03 	teq	r1, r3
 80004f2:	bf1e      	ittt	ne
 80004f4:	2100      	movne	r1, #0
 80004f6:	2000      	movne	r0, #0
 80004f8:	bd30      	popne	{r4, r5, pc}
 80004fa:	ea5f 5c54 	movs.w	ip, r4, lsr #21
 80004fe:	d105      	bne.n	800050c <__adddf3+0x230>
 8000500:	0040      	lsls	r0, r0, #1
 8000502:	4149      	adcs	r1, r1
 8000504:	bf28      	it	cs
 8000506:	f041 4100 	orrcs.w	r1, r1, #2147483648	@ 0x80000000
 800050a:	bd30      	pop	{r4, r5, pc}
 800050c:	f514 0480 	adds.w	r4, r4, #4194304	@ 0x400000
 8000510:	bf3c      	itt	cc
 8000512:	f501 1180 	addcc.w	r1, r1, #1048576	@ 0x100000
 8000516:	bd30      	popcc	{r4, r5, pc}
 8000518:	f001 4500 	and.w	r5, r1, #2147483648	@ 0x80000000
 800051c:	f045 41fe 	orr.w	r1, r5, #2130706432	@ 0x7f000000
 8000520:	f441 0170 	orr.w	r1, r1, #15728640	@ 0xf00000
 8000524:	f04f 0000 	mov.w	r0, #0
 8000528:	bd30      	pop	{r4, r5, pc}
 800052a:	ea7f 5c64 	mvns.w	ip, r4, asr #21
 800052e:	bf1a      	itte	ne
 8000530:	4619      	movne	r1, r3
 8000532:	4610      	movne	r0, r2
 8000534:	ea7f 5c65 	mvnseq.w	ip, r5, asr #21
 8000538:	bf1c      	itt	ne
 800053a:	460b      	movne	r3, r1
 800053c:	4602      	movne	r2, r0
 800053e:	ea50 3401 	orrs.w	r4, r0, r1, lsl #12
 8000542:	bf06      	itte	eq
 8000544:	ea52 3503 	orrseq.w	r5, r2, r3, lsl #12
 8000548:	ea91 0f03 	teqeq	r1, r3
 800054c:	f441 2100 	orrne.w	r1, r1, #524288	@ 0x80000
 8000550:	bd30      	pop	{r4, r5, pc}
 8000552:	bf00      	nop

08000554 <__aeabi_ui2d>:
 8000554:	f090 0f00 	teq	r0, #0
 8000558:	bf04      	itt	eq
 800055a:	2100      	moveq	r1, #0
 800055c:	4770      	bxeq	lr
 800055e:	b530      	push	{r4, r5, lr}
 8000560:	f44f 6480 	mov.w	r4, #1024	@ 0x400
 8000564:	f104 0432 	add.w	r4, r4, #50	@ 0x32
 8000568:	f04f 0500 	mov.w	r5, #0
 800056c:	f04f 0100 	mov.w	r1, #0
 8000570:	e750      	b.n	8000414 <__adddf3+0x138>
 8000572:	bf00      	nop

08000574 <__aeabi_i2d>:
 8000574:	f090 0f00 	teq	r0, #0
 8000578:	bf04      	itt	eq
 800057a:	2100      	moveq	r1, #0
 800057c:	4770      	bxeq	lr
 800057e:	b530      	push	{r4, r5, lr}
 8000580:	f44f 6480 	mov.w	r4, #1024	@ 0x400
 8000584:	f104 0432 	add.w	r4, r4, #50	@ 0x32
 8000588:	f010 4500 	ands.w	r5, r0, #2147483648	@ 0x80000000
 800058c:	bf48      	it	mi
 800058e:	4240      	negmi	r0, r0
 8000590:	f04f 0100 	mov.w	r1, #0
 8000594:	e73e      	b.n	8000414 <__adddf3+0x138>
 8000596:	bf00      	nop

08000598 <__aeabi_f2d>:
 8000598:	0042      	lsls	r2, r0, #1
 800059a:	ea4f 01e2 	mov.w	r1, r2, asr #3
 800059e:	ea4f 0131 	mov.w	r1, r1, rrx
 80005a2:	ea4f 7002 	mov.w	r0, r2, lsl #28
 80005a6:	bf1f      	itttt	ne
 80005a8:	f012 437f 	andsne.w	r3, r2, #4278190080	@ 0xff000000
 80005ac:	f093 4f7f 	teqne	r3, #4278190080	@ 0xff000000
 80005b0:	f081 5160 	eorne.w	r1, r1, #939524096	@ 0x38000000
 80005b4:	4770      	bxne	lr
 80005b6:	f032 427f 	bics.w	r2, r2, #4278190080	@ 0xff000000
 80005ba:	bf08      	it	eq
 80005bc:	4770      	bxeq	lr
 80005be:	f093 4f7f 	teq	r3, #4278190080	@ 0xff000000
 80005c2:	bf04      	itt	eq
 80005c4:	f441 2100 	orreq.w	r1, r1, #524288	@ 0x80000
 80005c8:	4770      	bxeq	lr
 80005ca:	b530      	push	{r4, r5, lr}
 80005cc:	f44f 7460 	mov.w	r4, #896	@ 0x380
 80005d0:	f001 4500 	and.w	r5, r1, #2147483648	@ 0x80000000
 80005d4:	f021 4100 	bic.w	r1, r1, #2147483648	@ 0x80000000
 80005d8:	e71c      	b.n	8000414 <__adddf3+0x138>
 80005da:	bf00      	nop

080005dc <__aeabi_ul2d>:
 80005dc:	ea50 0201 	orrs.w	r2, r0, r1
 80005e0:	bf08      	it	eq
 80005e2:	4770      	bxeq	lr
 80005e4:	b530      	push	{r4, r5, lr}
 80005e6:	f04f 0500 	mov.w	r5, #0
 80005ea:	e00a      	b.n	8000602 <__aeabi_l2d+0x16>

080005ec <__aeabi_l2d>:
 80005ec:	ea50 0201 	orrs.w	r2, r0, r1
 80005f0:	bf08      	it	eq
 80005f2:	4770      	bxeq	lr
 80005f4:	b530      	push	{r4, r5, lr}
 80005f6:	f011 4500 	ands.w	r5, r1, #2147483648	@ 0x80000000
 80005fa:	d502      	bpl.n	8000602 <__aeabi_l2d+0x16>
 80005fc:	4240      	negs	r0, r0
 80005fe:	eb61 0141 	sbc.w	r1, r1, r1, lsl #1
 8000602:	f44f 6480 	mov.w	r4, #1024	@ 0x400
 8000606:	f104 0432 	add.w	r4, r4, #50	@ 0x32
 800060a:	ea5f 5c91 	movs.w	ip, r1, lsr #22
 800060e:	f43f aed8 	beq.w	80003c2 <__adddf3+0xe6>
 8000612:	f04f 0203 	mov.w	r2, #3
 8000616:	ea5f 0cdc 	movs.w	ip, ip, lsr #3
 800061a:	bf18      	it	ne
 800061c:	3203      	addne	r2, #3
 800061e:	ea5f 0cdc 	movs.w	ip, ip, lsr #3
 8000622:	bf18      	it	ne
 8000624:	3203      	addne	r2, #3
 8000626:	eb02 02dc 	add.w	r2, r2, ip, lsr #3
 800062a:	f1c2 0320 	rsb	r3, r2, #32
 800062e:	fa00 fc03 	lsl.w	ip, r0, r3
 8000632:	fa20 f002 	lsr.w	r0, r0, r2
 8000636:	fa01 fe03 	lsl.w	lr, r1, r3
 800063a:	ea40 000e 	orr.w	r0, r0, lr
 800063e:	fa21 f102 	lsr.w	r1, r1, r2
 8000642:	4414      	add	r4, r2
 8000644:	e6bd      	b.n	80003c2 <__adddf3+0xe6>
 8000646:	bf00      	nop

08000648 <__aeabi_dmul>:
 8000648:	b570      	push	{r4, r5, r6, lr}
 800064a:	f04f 0cff 	mov.w	ip, #255	@ 0xff
 800064e:	f44c 6ce0 	orr.w	ip, ip, #1792	@ 0x700
 8000652:	ea1c 5411 	ands.w	r4, ip, r1, lsr #20
 8000656:	bf1d      	ittte	ne
 8000658:	ea1c 5513 	andsne.w	r5, ip, r3, lsr #20
 800065c:	ea94 0f0c 	teqne	r4, ip
 8000660:	ea95 0f0c 	teqne	r5, ip
 8000664:	f000 f8de 	bleq	8000824 <__aeabi_dmul+0x1dc>
 8000668:	442c      	add	r4, r5
 800066a:	ea81 0603 	eor.w	r6, r1, r3
 800066e:	ea21 514c 	bic.w	r1, r1, ip, lsl #21
 8000672:	ea23 534c 	bic.w	r3, r3, ip, lsl #21
 8000676:	ea50 3501 	orrs.w	r5, r0, r1, lsl #12
 800067a:	bf18      	it	ne
 800067c:	ea52 3503 	orrsne.w	r5, r2, r3, lsl #12
 8000680:	f441 1180 	orr.w	r1, r1, #1048576	@ 0x100000
 8000684:	f443 1380 	orr.w	r3, r3, #1048576	@ 0x100000
 8000688:	d038      	beq.n	80006fc <__aeabi_dmul+0xb4>
 800068a:	fba0 ce02 	umull	ip, lr, r0, r2
 800068e:	f04f 0500 	mov.w	r5, #0
 8000692:	fbe1 e502 	umlal	lr, r5, r1, r2
 8000696:	f006 4200 	and.w	r2, r6, #2147483648	@ 0x80000000
 800069a:	fbe0 e503 	umlal	lr, r5, r0, r3
 800069e:	f04f 0600 	mov.w	r6, #0
 80006a2:	fbe1 5603 	umlal	r5, r6, r1, r3
 80006a6:	f09c 0f00 	teq	ip, #0
 80006aa:	bf18      	it	ne
 80006ac:	f04e 0e01 	orrne.w	lr, lr, #1
 80006b0:	f1a4 04ff 	sub.w	r4, r4, #255	@ 0xff
 80006b4:	f5b6 7f00 	cmp.w	r6, #512	@ 0x200
 80006b8:	f564 7440 	sbc.w	r4, r4, #768	@ 0x300
 80006bc:	d204      	bcs.n	80006c8 <__aeabi_dmul+0x80>
 80006be:	ea5f 0e4e 	movs.w	lr, lr, lsl #1
 80006c2:	416d      	adcs	r5, r5
 80006c4:	eb46 0606 	adc.w	r6, r6, r6
 80006c8:	ea42 21c6 	orr.w	r1, r2, r6, lsl #11
 80006cc:	ea41 5155 	orr.w	r1, r1, r5, lsr #21
 80006d0:	ea4f 20c5 	mov.w	r0, r5, lsl #11
 80006d4:	ea40 505e 	orr.w	r0, r0, lr, lsr #21
 80006d8:	ea4f 2ece 	mov.w	lr, lr, lsl #11
 80006dc:	f1b4 0cfd 	subs.w	ip, r4, #253	@ 0xfd
 80006e0:	bf88      	it	hi
 80006e2:	f5bc 6fe0 	cmphi.w	ip, #1792	@ 0x700
 80006e6:	d81e      	bhi.n	8000726 <__aeabi_dmul+0xde>
 80006e8:	f1be 4f00 	cmp.w	lr, #2147483648	@ 0x80000000
 80006ec:	bf08      	it	eq
 80006ee:	ea5f 0e50 	movseq.w	lr, r0, lsr #1
 80006f2:	f150 0000 	adcs.w	r0, r0, #0
 80006f6:	eb41 5104 	adc.w	r1, r1, r4, lsl #20
 80006fa:	bd70      	pop	{r4, r5, r6, pc}
 80006fc:	f006 4600 	and.w	r6, r6, #2147483648	@ 0x80000000
 8000700:	ea46 0101 	orr.w	r1, r6, r1
 8000704:	ea40 0002 	orr.w	r0, r0, r2
 8000708:	ea81 0103 	eor.w	r1, r1, r3
 800070c:	ebb4 045c 	subs.w	r4, r4, ip, lsr #1
 8000710:	bfc2      	ittt	gt
 8000712:	ebd4 050c 	rsbsgt	r5, r4, ip
 8000716:	ea41 5104 	orrgt.w	r1, r1, r4, lsl #20
 800071a:	bd70      	popgt	{r4, r5, r6, pc}
 800071c:	f441 1180 	orr.w	r1, r1, #1048576	@ 0x100000
 8000720:	f04f 0e00 	mov.w	lr, #0
 8000724:	3c01      	subs	r4, #1
 8000726:	f300 80ab 	bgt.w	8000880 <__aeabi_dmul+0x238>
 800072a:	f114 0f36 	cmn.w	r4, #54	@ 0x36
 800072e:	bfde      	ittt	le
 8000730:	2000      	movle	r0, #0
 8000732:	f001 4100 	andle.w	r1, r1, #2147483648	@ 0x80000000
 8000736:	bd70      	pople	{r4, r5, r6, pc}
 8000738:	f1c4 0400 	rsb	r4, r4, #0
 800073c:	3c20      	subs	r4, #32
 800073e:	da35      	bge.n	80007ac <__aeabi_dmul+0x164>
 8000740:	340c      	adds	r4, #12
 8000742:	dc1b      	bgt.n	800077c <__aeabi_dmul+0x134>
 8000744:	f104 0414 	add.w	r4, r4, #20
 8000748:	f1c4 0520 	rsb	r5, r4, #32
 800074c:	fa00 f305 	lsl.w	r3, r0, r5
 8000750:	fa20 f004 	lsr.w	r0, r0, r4
 8000754:	fa01 f205 	lsl.w	r2, r1, r5
 8000758:	ea40 0002 	orr.w	r0, r0, r2
 800075c:	f001 4200 	and.w	r2, r1, #2147483648	@ 0x80000000
 8000760:	f021 4100 	bic.w	r1, r1, #2147483648	@ 0x80000000
 8000764:	eb10 70d3 	adds.w	r0, r0, r3, lsr #31
 8000768:	fa21 f604 	lsr.w	r6, r1, r4
 800076c:	eb42 0106 	adc.w	r1, r2, r6
 8000770:	ea5e 0e43 	orrs.w	lr, lr, r3, lsl #1
 8000774:	bf08      	it	eq
 8000776:	ea20 70d3 	biceq.w	r0, r0, r3, lsr #31
 800077a:	bd70      	pop	{r4, r5, r6, pc}
 800077c:	f1c4 040c 	rsb	r4, r4, #12
 8000780:	f1c4 0520 	rsb	r5, r4, #32
 8000784:	fa00 f304 	lsl.w	r3, r0, r4
 8000788:	fa20 f005 	lsr.w	r0, r0, r5
 800078c:	fa01 f204 	lsl.w	r2, r1, r4
 8000790:	ea40 0002 	orr.w	r0, r0, r2
 8000794:	f001 4100 	and.w	r1, r1, #2147483648	@ 0x80000000
 8000798:	eb10 70d3 	adds.w	r0, r0, r3, lsr #31
 800079c:	f141 0100 	adc.w	r1, r1, #0
 80007a0:	ea5e 0e43 	orrs.w	lr, lr, r3, lsl #1
 80007a4:	bf08      	it	eq
 80007a6:	ea20 70d3 	biceq.w	r0, r0, r3, lsr #31
 80007aa:	bd70      	pop	{r4, r5, r6, pc}
 80007ac:	f1c4 0520 	rsb	r5, r4, #32
 80007b0:	fa00 f205 	lsl.w	r2, r0, r5
 80007b4:	ea4e 0e02 	orr.w	lr, lr, r2
 80007b8:	fa20 f304 	lsr.w	r3, r0, r4
 80007bc:	fa01 f205 	lsl.w	r2, r1, r5
 80007c0:	ea43 0302 	orr.w	r3, r3, r2
 80007c4:	fa21 f004 	lsr.w	r0, r1, r4
 80007c8:	f001 4100 	and.w	r1, r1, #2147483648	@ 0x80000000
 80007cc:	fa21 f204 	lsr.w	r2, r1, r4
 80007d0:	ea20 0002 	bic.w	r0, r0, r2
 80007d4:	eb00 70d3 	add.w	r0, r0, r3, lsr #31
 80007d8:	ea5e 0e43 	orrs.w	lr, lr, r3, lsl #1
 80007dc:	bf08      	it	eq
 80007de:	ea20 70d3 	biceq.w	r0, r0, r3, lsr #31
 80007e2:	bd70      	pop	{r4, r5, r6, pc}
 80007e4:	f094 0f00 	teq	r4, #0
 80007e8:	d10f      	bne.n	800080a <__aeabi_dmul+0x1c2>
 80007ea:	f001 4600 	and.w	r6, r1, #2147483648	@ 0x80000000
 80007ee:	0040      	lsls	r0, r0, #1
 80007f0:	eb41 0101 	adc.w	r1, r1, r1
 80007f4:	f411 1f80 	tst.w	r1, #1048576	@ 0x100000
 80007f8:	bf08      	it	eq
 80007fa:	3c01      	subeq	r4, #1
 80007fc:	d0f7      	beq.n	80007ee <__aeabi_dmul+0x1a6>
 80007fe:	ea41 0106 	orr.w	r1, r1, r6
 8000802:	f095 0f00 	teq	r5, #0
 8000806:	bf18      	it	ne
 8000808:	4770      	bxne	lr
 800080a:	f003 4600 	and.w	r6, r3, #2147483648	@ 0x80000000
 800080e:	0052      	lsls	r2, r2, #1
 8000810:	eb43 0303 	adc.w	r3, r3, r3
 8000814:	f413 1f80 	tst.w	r3, #1048576	@ 0x100000
 8000818:	bf08      	it	eq
 800081a:	3d01      	subeq	r5, #1
 800081c:	d0f7      	beq.n	800080e <__aeabi_dmul+0x1c6>
 800081e:	ea43 0306 	orr.w	r3, r3, r6
 8000822:	4770      	bx	lr
 8000824:	ea94 0f0c 	teq	r4, ip
 8000828:	ea0c 5513 	and.w	r5, ip, r3, lsr #20
 800082c:	bf18      	it	ne
 800082e:	ea95 0f0c 	teqne	r5, ip
 8000832:	d00c      	beq.n	800084e <__aeabi_dmul+0x206>
 8000834:	ea50 0641 	orrs.w	r6, r0, r1, lsl #1
 8000838:	bf18      	it	ne
 800083a:	ea52 0643 	orrsne.w	r6, r2, r3, lsl #1
 800083e:	d1d1      	bne.n	80007e4 <__aeabi_dmul+0x19c>
 8000840:	ea81 0103 	eor.w	r1, r1, r3
 8000844:	f001 4100 	and.w	r1, r1, #2147483648	@ 0x80000000
 8000848:	f04f 0000 	mov.w	r0, #0
 800084c:	bd70      	pop	{r4, r5, r6, pc}
 800084e:	ea50 0641 	orrs.w	r6, r0, r1, lsl #1
 8000852:	bf06      	itte	eq
 8000854:	4610      	moveq	r0, r2
 8000856:	4619      	moveq	r1, r3
 8000858:	ea52 0643 	orrsne.w	r6, r2, r3, lsl #1
 800085c:	d019      	beq.n	8000892 <__aeabi_dmul+0x24a>
 800085e:	ea94 0f0c 	teq	r4, ip
 8000862:	d102      	bne.n	800086a <__aeabi_dmul+0x222>
 8000864:	ea50 3601 	orrs.w	r6, r0, r1, lsl #12
 8000868:	d113      	bne.n	8000892 <__aeabi_dmul+0x24a>
 800086a:	ea95 0f0c 	teq	r5, ip
 800086e:	d105      	bne.n	800087c <__aeabi_dmul+0x234>
 8000870:	ea52 3603 	orrs.w	r6, r2, r3, lsl #12
 8000874:	bf1c      	itt	ne
 8000876:	4610      	movne	r0, r2
 8000878:	4619      	movne	r1, r3
 800087a:	d10a      	bne.n	8000892 <__aeabi_dmul+0x24a>
 800087c:	ea81 0103 	eor.w	r1, r1, r3
 8000880:	f001 4100 	and.w	r1, r1, #2147483648	@ 0x80000000
 8000884:	f041 41fe 	orr.w	r1, r1, #2130706432	@ 0x7f000000
 8000888:	f441 0170 	orr.w	r1, r1, #15728640	@ 0xf00000
 800088c:	f04f 0000 	mov.w	r0, #0
 8000890:	bd70      	pop	{r4, r5, r6, pc}
 8000892:	f041 41fe 	orr.w	r1, r1, #2130706432	@ 0x7f000000
 8000896:	f441 0178 	orr.w	r1, r1, #16252928	@ 0xf80000
 800089a:	bd70      	pop	{r4, r5, r6, pc}

0800089c <__aeabi_ddiv>:
 800089c:	b570      	push	{r4, r5, r6, lr}
 800089e:	f04f 0cff 	mov.w	ip, #255	@ 0xff
 80008a2:	f44c 6ce0 	orr.w	ip, ip, #1792	@ 0x700
 80008a6:	ea1c 5411 	ands.w	r4, ip, r1, lsr #20
 80008aa:	bf1d      	ittte	ne
 80008ac:	ea1c 5513 	andsne.w	r5, ip, r3, lsr #20
 80008b0:	ea94 0f0c 	teqne	r4, ip
 80008b4:	ea95 0f0c 	teqne	r5, ip
 80008b8:	f000 f8a7 	bleq	8000a0a <__aeabi_ddiv+0x16e>
 80008bc:	eba4 0405 	sub.w	r4, r4, r5
 80008c0:	ea81 0e03 	eor.w	lr, r1, r3
 80008c4:	ea52 3503 	orrs.w	r5, r2, r3, lsl #12
 80008c8:	ea4f 3101 	mov.w	r1, r1, lsl #12
 80008cc:	f000 8088 	beq.w	80009e0 <__aeabi_ddiv+0x144>
 80008d0:	ea4f 3303 	mov.w	r3, r3, lsl #12
 80008d4:	f04f 5580 	mov.w	r5, #268435456	@ 0x10000000
 80008d8:	ea45 1313 	orr.w	r3, r5, r3, lsr #4
 80008dc:	ea43 6312 	orr.w	r3, r3, r2, lsr #24
 80008e0:	ea4f 2202 	mov.w	r2, r2, lsl #8
 80008e4:	ea45 1511 	orr.w	r5, r5, r1, lsr #4
 80008e8:	ea45 6510 	orr.w	r5, r5, r0, lsr #24
 80008ec:	ea4f 2600 	mov.w	r6, r0, lsl #8
 80008f0:	f00e 4100 	and.w	r1, lr, #2147483648	@ 0x80000000
 80008f4:	429d      	cmp	r5, r3
 80008f6:	bf08      	it	eq
 80008f8:	4296      	cmpeq	r6, r2
 80008fa:	f144 04fd 	adc.w	r4, r4, #253	@ 0xfd
 80008fe:	f504 7440 	add.w	r4, r4, #768	@ 0x300
 8000902:	d202      	bcs.n	800090a <__aeabi_ddiv+0x6e>
 8000904:	085b      	lsrs	r3, r3, #1
 8000906:	ea4f 0232 	mov.w	r2, r2, rrx
 800090a:	1ab6      	subs	r6, r6, r2
 800090c:	eb65 0503 	sbc.w	r5, r5, r3
 8000910:	085b      	lsrs	r3, r3, #1
 8000912:	ea4f 0232 	mov.w	r2, r2, rrx
 8000916:	f44f 1080 	mov.w	r0, #1048576	@ 0x100000
 800091a:	f44f 2c00 	mov.w	ip, #524288	@ 0x80000
 800091e:	ebb6 0e02 	subs.w	lr, r6, r2
 8000922:	eb75 0e03 	sbcs.w	lr, r5, r3
 8000926:	bf22      	ittt	cs
 8000928:	1ab6      	subcs	r6, r6, r2
 800092a:	4675      	movcs	r5, lr
 800092c:	ea40 000c 	orrcs.w	r0, r0, ip
 8000930:	085b      	lsrs	r3, r3, #1
 8000932:	ea4f 0232 	mov.w	r2, r2, rrx
 8000936:	ebb6 0e02 	subs.w	lr, r6, r2
 800093a:	eb75 0e03 	sbcs.w	lr, r5, r3
 800093e:	bf22      	ittt	cs
 8000940:	1ab6      	subcs	r6, r6, r2
 8000942:	4675      	movcs	r5, lr
 8000944:	ea40 005c 	orrcs.w	r0, r0, ip, lsr #1
 8000948:	085b      	lsrs	r3, r3, #1
 800094a:	ea4f 0232 	mov.w	r2, r2, rrx
 800094e:	ebb6 0e02 	subs.w	lr, r6, r2
 8000952:	eb75 0e03 	sbcs.w	lr, r5, r3
 8000956:	bf22      	ittt	cs
 8000958:	1ab6      	subcs	r6, r6, r2
 800095a:	4675      	movcs	r5, lr
 800095c:	ea40 009c 	orrcs.w	r0, r0, ip, lsr #2
 8000960:	085b      	lsrs	r3, r3, #1
 8000962:	ea4f 0232 	mov.w	r2, r2, rrx
 8000966:	ebb6 0e02 	subs.w	lr, r6, r2
 800096a:	eb75 0e03 	sbcs.w	lr, r5, r3
 800096e:	bf22      	ittt	cs
 8000970:	1ab6      	subcs	r6, r6, r2
 8000972:	4675      	movcs	r5, lr
 8000974:	ea40 00dc 	orrcs.w	r0, r0, ip, lsr #3
 8000978:	ea55 0e06 	orrs.w	lr, r5, r6
 800097c:	d018      	beq.n	80009b0 <__aeabi_ddiv+0x114>
 800097e:	ea4f 1505 	mov.w	r5, r5, lsl #4
 8000982:	ea45 7516 	orr.w	r5, r5, r6, lsr #28
 8000986:	ea4f 1606 	mov.w	r6, r6, lsl #4
 800098a:	ea4f 03c3 	mov.w	r3, r3, lsl #3
 800098e:	ea43 7352 	orr.w	r3, r3, r2, lsr #29
 8000992:	ea4f 02c2 	mov.w	r2, r2, lsl #3
 8000996:	ea5f 1c1c 	movs.w	ip, ip, lsr #4
 800099a:	d1c0      	bne.n	800091e <__aeabi_ddiv+0x82>
 800099c:	f411 1f80 	tst.w	r1, #1048576	@ 0x100000
 80009a0:	d10b      	bne.n	80009ba <__aeabi_ddiv+0x11e>
 80009a2:	ea41 0100 	orr.w	r1, r1, r0
 80009a6:	f04f 0000 	mov.w	r0, #0
 80009aa:	f04f 4c00 	mov.w	ip, #2147483648	@ 0x80000000
 80009ae:	e7b6      	b.n	800091e <__aeabi_ddiv+0x82>
 80009b0:	f411 1f80 	tst.w	r1, #1048576	@ 0x100000
 80009b4:	bf04      	itt	eq
 80009b6:	4301      	orreq	r1, r0
 80009b8:	2000      	moveq	r0, #0
 80009ba:	f1b4 0cfd 	subs.w	ip, r4, #253	@ 0xfd
 80009be:	bf88      	it	hi
 80009c0:	f5bc 6fe0 	cmphi.w	ip, #1792	@ 0x700
 80009c4:	f63f aeaf 	bhi.w	8000726 <__aeabi_dmul+0xde>
 80009c8:	ebb5 0c03 	subs.w	ip, r5, r3
 80009cc:	bf04      	itt	eq
 80009ce:	ebb6 0c02 	subseq.w	ip, r6, r2
 80009d2:	ea5f 0c50 	movseq.w	ip, r0, lsr #1
 80009d6:	f150 0000 	adcs.w	r0, r0, #0
 80009da:	eb41 5104 	adc.w	r1, r1, r4, lsl #20
 80009de:	bd70      	pop	{r4, r5, r6, pc}
 80009e0:	f00e 4e00 	and.w	lr, lr, #2147483648	@ 0x80000000
 80009e4:	ea4e 3111 	orr.w	r1, lr, r1, lsr #12
 80009e8:	eb14 045c 	adds.w	r4, r4, ip, lsr #1
 80009ec:	bfc2      	ittt	gt
 80009ee:	ebd4 050c 	rsbsgt	r5, r4, ip
 80009f2:	ea41 5104 	orrgt.w	r1, r1, r4, lsl #20
 80009f6:	bd70      	popgt	{r4, r5, r6, pc}
 80009f8:	f441 1180 	orr.w	r1, r1, #1048576	@ 0x100000
 80009fc:	f04f 0e00 	mov.w	lr, #0
 8000a00:	3c01      	subs	r4, #1
 8000a02:	e690      	b.n	8000726 <__aeabi_dmul+0xde>
 8000a04:	ea45 0e06 	orr.w	lr, r5, r6
 8000a08:	e68d      	b.n	8000726 <__aeabi_dmul+0xde>
 8000a0a:	ea0c 5513 	and.w	r5, ip, r3, lsr #20
 8000a0e:	ea94 0f0c 	teq	r4, ip
 8000a12:	bf08      	it	eq
 8000a14:	ea95 0f0c 	teqeq	r5, ip
 8000a18:	f43f af3b 	beq.w	8000892 <__aeabi_dmul+0x24a>
 8000a1c:	ea94 0f0c 	teq	r4, ip
 8000a20:	d10a      	bne.n	8000a38 <__aeabi_ddiv+0x19c>
 8000a22:	ea50 3401 	orrs.w	r4, r0, r1, lsl #12
 8000a26:	f47f af34 	bne.w	8000892 <__aeabi_dmul+0x24a>
 8000a2a:	ea95 0f0c 	teq	r5, ip
 8000a2e:	f47f af25 	bne.w	800087c <__aeabi_dmul+0x234>
 8000a32:	4610      	mov	r0, r2
 8000a34:	4619      	mov	r1, r3
 8000a36:	e72c      	b.n	8000892 <__aeabi_dmul+0x24a>
 8000a38:	ea95 0f0c 	teq	r5, ip
 8000a3c:	d106      	bne.n	8000a4c <__aeabi_ddiv+0x1b0>
 8000a3e:	ea52 3503 	orrs.w	r5, r2, r3, lsl #12
 8000a42:	f43f aefd 	beq.w	8000840 <__aeabi_dmul+0x1f8>
 8000a46:	4610      	mov	r0, r2
 8000a48:	4619      	mov	r1, r3
 8000a4a:	e722      	b.n	8000892 <__aeabi_dmul+0x24a>
 8000a4c:	ea50 0641 	orrs.w	r6, r0, r1, lsl #1
 8000a50:	bf18      	it	ne
 8000a52:	ea52 0643 	orrsne.w	r6, r2, r3, lsl #1
 8000a56:	f47f aec5 	bne.w	80007e4 <__aeabi_dmul+0x19c>
 8000a5a:	ea50 0441 	orrs.w	r4, r0, r1, lsl #1
 8000a5e:	f47f af0d 	bne.w	800087c <__aeabi_dmul+0x234>
 8000a62:	ea52 0543 	orrs.w	r5, r2, r3, lsl #1
 8000a66:	f47f aeeb 	bne.w	8000840 <__aeabi_dmul+0x1f8>
 8000a6a:	e712      	b.n	8000892 <__aeabi_dmul+0x24a>

08000a6c <__gedf2>:
 8000a6c:	f04f 3cff 	mov.w	ip, #4294967295
 8000a70:	e006      	b.n	8000a80 <__cmpdf2+0x4>
 8000a72:	bf00      	nop

08000a74 <__ledf2>:
 8000a74:	f04f 0c01 	mov.w	ip, #1
 8000a78:	e002      	b.n	8000a80 <__cmpdf2+0x4>
 8000a7a:	bf00      	nop

08000a7c <__cmpdf2>:
 8000a7c:	f04f 0c01 	mov.w	ip, #1
 8000a80:	f84d cd04 	str.w	ip, [sp, #-4]!
 8000a84:	ea4f 0c41 	mov.w	ip, r1, lsl #1
 8000a88:	ea7f 5c6c 	mvns.w	ip, ip, asr #21
 8000a8c:	ea4f 0c43 	mov.w	ip, r3, lsl #1
 8000a90:	bf18      	it	ne
 8000a92:	ea7f 5c6c 	mvnsne.w	ip, ip, asr #21
 8000a96:	d01b      	beq.n	8000ad0 <__cmpdf2+0x54>
 8000a98:	b001      	add	sp, #4
 8000a9a:	ea50 0c41 	orrs.w	ip, r0, r1, lsl #1
 8000a9e:	bf0c      	ite	eq
 8000aa0:	ea52 0c43 	orrseq.w	ip, r2, r3, lsl #1
 8000aa4:	ea91 0f03 	teqne	r1, r3
 8000aa8:	bf02      	ittt	eq
 8000aaa:	ea90 0f02 	teqeq	r0, r2
 8000aae:	2000      	moveq	r0, #0
 8000ab0:	4770      	bxeq	lr
 8000ab2:	f110 0f00 	cmn.w	r0, #0
 8000ab6:	ea91 0f03 	teq	r1, r3
 8000aba:	bf58      	it	pl
 8000abc:	4299      	cmppl	r1, r3
 8000abe:	bf08      	it	eq
 8000ac0:	4290      	cmpeq	r0, r2
 8000ac2:	bf2c      	ite	cs
 8000ac4:	17d8      	asrcs	r0, r3, #31
 8000ac6:	ea6f 70e3 	mvncc.w	r0, r3, asr #31
 8000aca:	f040 0001 	orr.w	r0, r0, #1
 8000ace:	4770      	bx	lr
 8000ad0:	ea4f 0c41 	mov.w	ip, r1, lsl #1
 8000ad4:	ea7f 5c6c 	mvns.w	ip, ip, asr #21
 8000ad8:	d102      	bne.n	8000ae0 <__cmpdf2+0x64>
 8000ada:	ea50 3c01 	orrs.w	ip, r0, r1, lsl #12
 8000ade:	d107      	bne.n	8000af0 <__cmpdf2+0x74>
 8000ae0:	ea4f 0c43 	mov.w	ip, r3, lsl #1
 8000ae4:	ea7f 5c6c 	mvns.w	ip, ip, asr #21
 8000ae8:	d1d6      	bne.n	8000a98 <__cmpdf2+0x1c>
 8000aea:	ea52 3c03 	orrs.w	ip, r2, r3, lsl #12
 8000aee:	d0d3      	beq.n	8000a98 <__cmpdf2+0x1c>
 8000af0:	f85d 0b04 	ldr.w	r0, [sp], #4
 8000af4:	4770      	bx	lr
 8000af6:	bf00      	nop

08000af8 <__aeabi_cdrcmple>:
 8000af8:	4684      	mov	ip, r0
 8000afa:	4610      	mov	r0, r2
 8000afc:	4662      	mov	r2, ip
 8000afe:	468c      	mov	ip, r1
 8000b00:	4619      	mov	r1, r3
 8000b02:	4663      	mov	r3, ip
 8000b04:	e000      	b.n	8000b08 <__aeabi_cdcmpeq>
 8000b06:	bf00      	nop

08000b08 <__aeabi_cdcmpeq>:
 8000b08:	b501      	push	{r0, lr}
 8000b0a:	f7ff ffb7 	bl	8000a7c <__cmpdf2>
 8000b0e:	2800      	cmp	r0, #0
 8000b10:	bf48      	it	mi
 8000b12:	f110 0f00 	cmnmi.w	r0, #0
 8000b16:	bd01      	pop	{r0, pc}

08000b18 <__aeabi_dcmpeq>:
 8000b18:	f84d ed08 	str.w	lr, [sp, #-8]!
 8000b1c:	f7ff fff4 	bl	8000b08 <__aeabi_cdcmpeq>
 8000b20:	bf0c      	ite	eq
 8000b22:	2001      	moveq	r0, #1
 8000b24:	2000      	movne	r0, #0
 8000b26:	f85d fb08 	ldr.w	pc, [sp], #8
 8000b2a:	bf00      	nop

08000b2c <__aeabi_dcmplt>:
 8000b2c:	f84d ed08 	str.w	lr, [sp, #-8]!
 8000b30:	f7ff ffea 	bl	8000b08 <__aeabi_cdcmpeq>
 8000b34:	bf34      	ite	cc
 8000b36:	2001      	movcc	r0, #1
 8000b38:	2000      	movcs	r0, #0
 8000b3a:	f85d fb08 	ldr.w	pc, [sp], #8
 8000b3e:	bf00      	nop

08000b40 <__aeabi_dcmple>:
 8000b40:	f84d ed08 	str.w	lr, [sp, #-8]!
 8000b44:	f7ff ffe0 	bl	8000b08 <__aeabi_cdcmpeq>
 8000b48:	bf94      	ite	ls
 8000b4a:	2001      	movls	r0, #1
 8000b4c:	2000      	movhi	r0, #0
 8000b4e:	f85d fb08 	ldr.w	pc, [sp], #8
 8000b52:	bf00      	nop

08000b54 <__aeabi_dcmpge>:
 8000b54:	f84d ed08 	str.w	lr, [sp, #-8]!
 8000b58:	f7ff ffce 	bl	8000af8 <__aeabi_cdrcmple>
 8000b5c:	bf94      	ite	ls
 8000b5e:	2001      	movls	r0, #1
 8000b60:	2000      	movhi	r0, #0
 8000b62:	f85d fb08 	ldr.w	pc, [sp], #8
 8000b66:	bf00      	nop

08000b68 <__aeabi_dcmpgt>:
 8000b68:	f84d ed08 	str.w	lr, [sp, #-8]!
 8000b6c:	f7ff ffc4 	bl	8000af8 <__aeabi_cdrcmple>
 8000b70:	bf34      	ite	cc
 8000b72:	2001      	movcc	r0, #1
 8000b74:	2000      	movcs	r0, #0
 8000b76:	f85d fb08 	ldr.w	pc, [sp], #8
 8000b7a:	bf00      	nop

08000b7c <__aeabi_dcmpun>:
 8000b7c:	ea4f 0c41 	mov.w	ip, r1, lsl #1
 8000b80:	ea7f 5c6c 	mvns.w	ip, ip, asr #21
 8000b84:	d102      	bne.n	8000b8c <__aeabi_dcmpun+0x10>
 8000b86:	ea50 3c01 	orrs.w	ip, r0, r1, lsl #12
 8000b8a:	d10a      	bne.n	8000ba2 <__aeabi_dcmpun+0x26>
 8000b8c:	ea4f 0c43 	mov.w	ip, r3, lsl #1
 8000b90:	ea7f 5c6c 	mvns.w	ip, ip, asr #21
 8000b94:	d102      	bne.n	8000b9c <__aeabi_dcmpun+0x20>
 8000b96:	ea52 3c03 	orrs.w	ip, r2, r3, lsl #12
 8000b9a:	d102      	bne.n	8000ba2 <__aeabi_dcmpun+0x26>
 8000b9c:	f04f 0000 	mov.w	r0, #0
 8000ba0:	4770      	bx	lr
 8000ba2:	f04f 0001 	mov.w	r0, #1
 8000ba6:	4770      	bx	lr

08000ba8 <__aeabi_d2iz>:
 8000ba8:	ea4f 0241 	mov.w	r2, r1, lsl #1
 8000bac:	f512 1200 	adds.w	r2, r2, #2097152	@ 0x200000
 8000bb0:	d215      	bcs.n	8000bde <__aeabi_d2iz+0x36>
 8000bb2:	d511      	bpl.n	8000bd8 <__aeabi_d2iz+0x30>
 8000bb4:	f46f 7378 	mvn.w	r3, #992	@ 0x3e0
 8000bb8:	ebb3 5262 	subs.w	r2, r3, r2, asr #21
 8000bbc:	d912      	bls.n	8000be4 <__aeabi_d2iz+0x3c>
 8000bbe:	ea4f 23c1 	mov.w	r3, r1, lsl #11
 8000bc2:	f043 4300 	orr.w	r3, r3, #2147483648	@ 0x80000000
 8000bc6:	ea43 5350 	orr.w	r3, r3, r0, lsr #21
 8000bca:	f011 4f00 	tst.w	r1, #2147483648	@ 0x80000000
 8000bce:	fa23 f002 	lsr.w	r0, r3, r2
 8000bd2:	bf18      	it	ne
 8000bd4:	4240      	negne	r0, r0
 8000bd6:	4770      	bx	lr
 8000bd8:	f04f 0000 	mov.w	r0, #0
 8000bdc:	4770      	bx	lr
 8000bde:	ea50 3001 	orrs.w	r0, r0, r1, lsl #12
 8000be2:	d105      	bne.n	8000bf0 <__aeabi_d2iz+0x48>
 8000be4:	f011 4000 	ands.w	r0, r1, #2147483648	@ 0x80000000
 8000be8:	bf08      	it	eq
 8000bea:	f06f 4000 	mvneq.w	r0, #2147483648	@ 0x80000000
 8000bee:	4770      	bx	lr
 8000bf0:	f04f 0000 	mov.w	r0, #0
 8000bf4:	4770      	bx	lr
 8000bf6:	bf00      	nop

08000bf8 <__aeabi_d2uiz>:
 8000bf8:	004a      	lsls	r2, r1, #1
 8000bfa:	d211      	bcs.n	8000c20 <__aeabi_d2uiz+0x28>
 8000bfc:	f512 1200 	adds.w	r2, r2, #2097152	@ 0x200000
 8000c00:	d211      	bcs.n	8000c26 <__aeabi_d2uiz+0x2e>
 8000c02:	d50d      	bpl.n	8000c20 <__aeabi_d2uiz+0x28>
 8000c04:	f46f 7378 	mvn.w	r3, #992	@ 0x3e0
 8000c08:	ebb3 5262 	subs.w	r2, r3, r2, asr #21
 8000c0c:	d40e      	bmi.n	8000c2c <__aeabi_d2uiz+0x34>
 8000c0e:	ea4f 23c1 	mov.w	r3, r1, lsl #11
 8000c12:	f043 4300 	orr.w	r3, r3, #2147483648	@ 0x80000000
 8000c16:	ea43 5350 	orr.w	r3, r3, r0, lsr #21
 8000c1a:	fa23 f002 	lsr.w	r0, r3, r2
 8000c1e:	4770      	bx	lr
 8000c20:	f04f 0000 	mov.w	r0, #0
 8000c24:	4770      	bx	lr
 8000c26:	ea50 3001 	orrs.w	r0, r0, r1, lsl #12
 8000c2a:	d102      	bne.n	8000c32 <__aeabi_d2uiz+0x3a>
 8000c2c:	f04f 30ff 	mov.w	r0, #4294967295
 8000c30:	4770      	bx	lr
 8000c32:	f04f 0000 	mov.w	r0, #0
 8000c36:	4770      	bx	lr

08000c38 <__aeabi_d2f>:
 8000c38:	ea4f 0241 	mov.w	r2, r1, lsl #1
 8000c3c:	f1b2 43e0 	subs.w	r3, r2, #1879048192	@ 0x70000000
 8000c40:	bf24      	itt	cs
 8000c42:	f5b3 1c00 	subscs.w	ip, r3, #2097152	@ 0x200000
 8000c46:	f1dc 5cfe 	rsbscs	ip, ip, #532676608	@ 0x1fc00000
 8000c4a:	d90d      	bls.n	8000c68 <__aeabi_d2f+0x30>
 8000c4c:	f001 4c00 	and.w	ip, r1, #2147483648	@ 0x80000000
 8000c50:	ea4f 02c0 	mov.w	r2, r0, lsl #3
 8000c54:	ea4c 7050 	orr.w	r0, ip, r0, lsr #29
 8000c58:	f1b2 4f00 	cmp.w	r2, #2147483648	@ 0x80000000
 8000c5c:	eb40 0083 	adc.w	r0, r0, r3, lsl #2
 8000c60:	bf08      	it	eq
 8000c62:	f020 0001 	biceq.w	r0, r0, #1
 8000c66:	4770      	bx	lr
 8000c68:	f011 4f80 	tst.w	r1, #1073741824	@ 0x40000000
 8000c6c:	d121      	bne.n	8000cb2 <__aeabi_d2f+0x7a>
 8000c6e:	f113 7238 	adds.w	r2, r3, #48234496	@ 0x2e00000
 8000c72:	bfbc      	itt	lt
 8000c74:	f001 4000 	andlt.w	r0, r1, #2147483648	@ 0x80000000
 8000c78:	4770      	bxlt	lr
 8000c7a:	f441 1180 	orr.w	r1, r1, #1048576	@ 0x100000
 8000c7e:	ea4f 5252 	mov.w	r2, r2, lsr #21
 8000c82:	f1c2 0218 	rsb	r2, r2, #24
 8000c86:	f1c2 0c20 	rsb	ip, r2, #32
 8000c8a:	fa10 f30c 	lsls.w	r3, r0, ip
 8000c8e:	fa20 f002 	lsr.w	r0, r0, r2
 8000c92:	bf18      	it	ne
 8000c94:	f040 0001 	orrne.w	r0, r0, #1
 8000c98:	ea4f 23c1 	mov.w	r3, r1, lsl #11
 8000c9c:	ea4f 23d3 	mov.w	r3, r3, lsr #11
 8000ca0:	fa03 fc0c 	lsl.w	ip, r3, ip
 8000ca4:	ea40 000c 	orr.w	r0, r0, ip
 8000ca8:	fa23 f302 	lsr.w	r3, r3, r2
 8000cac:	ea4f 0343 	mov.w	r3, r3, lsl #1
 8000cb0:	e7cc      	b.n	8000c4c <__aeabi_d2f+0x14>
 8000cb2:	ea7f 5362 	mvns.w	r3, r2, asr #21
 8000cb6:	d107      	bne.n	8000cc8 <__aeabi_d2f+0x90>
 8000cb8:	ea50 3301 	orrs.w	r3, r0, r1, lsl #12
 8000cbc:	bf1e      	ittt	ne
 8000cbe:	f04f 40fe 	movne.w	r0, #2130706432	@ 0x7f000000
 8000cc2:	f440 0040 	orrne.w	r0, r0, #12582912	@ 0xc00000
 8000cc6:	4770      	bxne	lr
 8000cc8:	f001 4000 	and.w	r0, r1, #2147483648	@ 0x80000000
 8000ccc:	f040 40fe 	orr.w	r0, r0, #2130706432	@ 0x7f000000
 8000cd0:	f440 0000 	orr.w	r0, r0, #8388608	@ 0x800000
 8000cd4:	4770      	bx	lr
 8000cd6:	bf00      	nop

08000cd8 <__aeabi_uldivmod>:
 8000cd8:	b953      	cbnz	r3, 8000cf0 <__aeabi_uldivmod+0x18>
 8000cda:	b94a      	cbnz	r2, 8000cf0 <__aeabi_uldivmod+0x18>
 8000cdc:	2900      	cmp	r1, #0
 8000cde:	bf08      	it	eq
 8000ce0:	2800      	cmpeq	r0, #0
 8000ce2:	bf1c      	itt	ne
 8000ce4:	f04f 31ff 	movne.w	r1, #4294967295
 8000ce8:	f04f 30ff 	movne.w	r0, #4294967295
 8000cec:	f000 b9be 	b.w	800106c <__aeabi_idiv0>
 8000cf0:	f1ad 0c08 	sub.w	ip, sp, #8
 8000cf4:	e96d ce04 	strd	ip, lr, [sp, #-16]!
 8000cf8:	f000 f83c 	bl	8000d74 <__udivmoddi4>
 8000cfc:	f8dd e004 	ldr.w	lr, [sp, #4]
 8000d00:	e9dd 2302 	ldrd	r2, r3, [sp, #8]
 8000d04:	b004      	add	sp, #16
 8000d06:	4770      	bx	lr

08000d08 <__aeabi_d2lz>:
 8000d08:	b538      	push	{r3, r4, r5, lr}
 8000d0a:	2200      	movs	r2, #0
 8000d0c:	2300      	movs	r3, #0
 8000d0e:	4604      	mov	r4, r0
 8000d10:	460d      	mov	r5, r1
 8000d12:	f7ff ff0b 	bl	8000b2c <__aeabi_dcmplt>
 8000d16:	b928      	cbnz	r0, 8000d24 <__aeabi_d2lz+0x1c>
 8000d18:	4620      	mov	r0, r4
 8000d1a:	4629      	mov	r1, r5
 8000d1c:	e8bd 4038 	ldmia.w	sp!, {r3, r4, r5, lr}
 8000d20:	f000 b80a 	b.w	8000d38 <__aeabi_d2ulz>
 8000d24:	4620      	mov	r0, r4
 8000d26:	f105 4100 	add.w	r1, r5, #2147483648	@ 0x80000000
 8000d2a:	f000 f805 	bl	8000d38 <__aeabi_d2ulz>
 8000d2e:	4240      	negs	r0, r0
 8000d30:	eb61 0141 	sbc.w	r1, r1, r1, lsl #1
 8000d34:	bd38      	pop	{r3, r4, r5, pc}
 8000d36:	bf00      	nop

08000d38 <__aeabi_d2ulz>:
 8000d38:	b5d0      	push	{r4, r6, r7, lr}
 8000d3a:	4b0c      	ldr	r3, [pc, #48]	@ (8000d6c <__aeabi_d2ulz+0x34>)
 8000d3c:	2200      	movs	r2, #0
 8000d3e:	4606      	mov	r6, r0
 8000d40:	460f      	mov	r7, r1
 8000d42:	f7ff fc81 	bl	8000648 <__aeabi_dmul>
 8000d46:	f7ff ff57 	bl	8000bf8 <__aeabi_d2uiz>
 8000d4a:	4604      	mov	r4, r0
 8000d4c:	f7ff fc02 	bl	8000554 <__aeabi_ui2d>
 8000d50:	4b07      	ldr	r3, [pc, #28]	@ (8000d70 <__aeabi_d2ulz+0x38>)
 8000d52:	2200      	movs	r2, #0
 8000d54:	f7ff fc78 	bl	8000648 <__aeabi_dmul>
 8000d58:	4602      	mov	r2, r0
 8000d5a:	460b      	mov	r3, r1
 8000d5c:	4630      	mov	r0, r6
 8000d5e:	4639      	mov	r1, r7
 8000d60:	f7ff faba 	bl	80002d8 <__aeabi_dsub>
 8000d64:	f7ff ff48 	bl	8000bf8 <__aeabi_d2uiz>
 8000d68:	4621      	mov	r1, r4
 8000d6a:	bdd0      	pop	{r4, r6, r7, pc}
 8000d6c:	3df00000 	.word	0x3df00000
 8000d70:	41f00000 	.word	0x41f00000

08000d74 <__udivmoddi4>:
 8000d74:	e92d 47f0 	stmdb	sp!, {r4, r5, r6, r7, r8, r9, sl, lr}
 8000d78:	9d08      	ldr	r5, [sp, #32]
 8000d7a:	468e      	mov	lr, r1
 8000d7c:	4604      	mov	r4, r0
 8000d7e:	4688      	mov	r8, r1
 8000d80:	2b00      	cmp	r3, #0
 8000d82:	d14a      	bne.n	8000e1a <__udivmoddi4+0xa6>
 8000d84:	428a      	cmp	r2, r1
 8000d86:	4617      	mov	r7, r2
 8000d88:	d962      	bls.n	8000e50 <__udivmoddi4+0xdc>
 8000d8a:	fab2 f682 	clz	r6, r2
 8000d8e:	b14e      	cbz	r6, 8000da4 <__udivmoddi4+0x30>
 8000d90:	f1c6 0320 	rsb	r3, r6, #32
 8000d94:	fa01 f806 	lsl.w	r8, r1, r6
 8000d98:	fa20 f303 	lsr.w	r3, r0, r3
 8000d9c:	40b7      	lsls	r7, r6
 8000d9e:	ea43 0808 	orr.w	r8, r3, r8
 8000da2:	40b4      	lsls	r4, r6
 8000da4:	ea4f 4e17 	mov.w	lr, r7, lsr #16
 8000da8:	fa1f fc87 	uxth.w	ip, r7
 8000dac:	fbb8 f1fe 	udiv	r1, r8, lr
 8000db0:	0c23      	lsrs	r3, r4, #16
 8000db2:	fb0e 8811 	mls	r8, lr, r1, r8
 8000db6:	ea43 4308 	orr.w	r3, r3, r8, lsl #16
 8000dba:	fb01 f20c 	mul.w	r2, r1, ip
 8000dbe:	429a      	cmp	r2, r3
 8000dc0:	d909      	bls.n	8000dd6 <__udivmoddi4+0x62>
 8000dc2:	18fb      	adds	r3, r7, r3
 8000dc4:	f101 30ff 	add.w	r0, r1, #4294967295
 8000dc8:	f080 80ea 	bcs.w	8000fa0 <__udivmoddi4+0x22c>
 8000dcc:	429a      	cmp	r2, r3
 8000dce:	f240 80e7 	bls.w	8000fa0 <__udivmoddi4+0x22c>
 8000dd2:	3902      	subs	r1, #2
 8000dd4:	443b      	add	r3, r7
 8000dd6:	1a9a      	subs	r2, r3, r2
 8000dd8:	b2a3      	uxth	r3, r4
 8000dda:	fbb2 f0fe 	udiv	r0, r2, lr
 8000dde:	fb0e 2210 	mls	r2, lr, r0, r2
 8000de2:	ea43 4302 	orr.w	r3, r3, r2, lsl #16
 8000de6:	fb00 fc0c 	mul.w	ip, r0, ip
 8000dea:	459c      	cmp	ip, r3
 8000dec:	d909      	bls.n	8000e02 <__udivmoddi4+0x8e>
 8000dee:	18fb      	adds	r3, r7, r3
 8000df0:	f100 32ff 	add.w	r2, r0, #4294967295
 8000df4:	f080 80d6 	bcs.w	8000fa4 <__udivmoddi4+0x230>
 8000df8:	459c      	cmp	ip, r3
 8000dfa:	f240 80d3 	bls.w	8000fa4 <__udivmoddi4+0x230>
 8000dfe:	443b      	add	r3, r7
 8000e00:	3802      	subs	r0, #2
 8000e02:	ea40 4001 	orr.w	r0, r0, r1, lsl #16
 8000e06:	eba3 030c 	sub.w	r3, r3, ip
 8000e0a:	2100      	movs	r1, #0
 8000e0c:	b11d      	cbz	r5, 8000e16 <__udivmoddi4+0xa2>
 8000e0e:	40f3      	lsrs	r3, r6
 8000e10:	2200      	movs	r2, #0
 8000e12:	e9c5 3200 	strd	r3, r2, [r5]
 8000e16:	e8bd 87f0 	ldmia.w	sp!, {r4, r5, r6, r7, r8, r9, sl, pc}
 8000e1a:	428b      	cmp	r3, r1
 8000e1c:	d905      	bls.n	8000e2a <__udivmoddi4+0xb6>
 8000e1e:	b10d      	cbz	r5, 8000e24 <__udivmoddi4+0xb0>
 8000e20:	e9c5 0100 	strd	r0, r1, [r5]
 8000e24:	2100      	movs	r1, #0
 8000e26:	4608      	mov	r0, r1
 8000e28:	e7f5      	b.n	8000e16 <__udivmoddi4+0xa2>
 8000e2a:	fab3 f183 	clz	r1, r3
 8000e2e:	2900      	cmp	r1, #0
 8000e30:	d146      	bne.n	8000ec0 <__udivmoddi4+0x14c>
 8000e32:	4573      	cmp	r3, lr
 8000e34:	d302      	bcc.n	8000e3c <__udivmoddi4+0xc8>
 8000e36:	4282      	cmp	r2, r0
 8000e38:	f200 8105 	bhi.w	8001046 <__udivmoddi4+0x2d2>
 8000e3c:	1a84      	subs	r4, r0, r2
 8000e3e:	eb6e 0203 	sbc.w	r2, lr, r3
 8000e42:	2001      	movs	r0, #1
 8000e44:	4690      	mov	r8, r2
 8000e46:	2d00      	cmp	r5, #0
 8000e48:	d0e5      	beq.n	8000e16 <__udivmoddi4+0xa2>
 8000e4a:	e9c5 4800 	strd	r4, r8, [r5]
 8000e4e:	e7e2      	b.n	8000e16 <__udivmoddi4+0xa2>
 8000e50:	2a00      	cmp	r2, #0
 8000e52:	f000 8090 	beq.w	8000f76 <__udivmoddi4+0x202>
 8000e56:	fab2 f682 	clz	r6, r2
 8000e5a:	2e00      	cmp	r6, #0
 8000e5c:	f040 80a4 	bne.w	8000fa8 <__udivmoddi4+0x234>
 8000e60:	1a8a      	subs	r2, r1, r2
 8000e62:	0c03      	lsrs	r3, r0, #16
 8000e64:	ea4f 4e17 	mov.w	lr, r7, lsr #16
 8000e68:	b280      	uxth	r0, r0
 8000e6a:	b2bc      	uxth	r4, r7
 8000e6c:	2101      	movs	r1, #1
 8000e6e:	fbb2 fcfe 	udiv	ip, r2, lr
 8000e72:	fb0e 221c 	mls	r2, lr, ip, r2
 8000e76:	ea43 4302 	orr.w	r3, r3, r2, lsl #16
 8000e7a:	fb04 f20c 	mul.w	r2, r4, ip
 8000e7e:	429a      	cmp	r2, r3
 8000e80:	d907      	bls.n	8000e92 <__udivmoddi4+0x11e>
 8000e82:	18fb      	adds	r3, r7, r3
 8000e84:	f10c 38ff 	add.w	r8, ip, #4294967295
 8000e88:	d202      	bcs.n	8000e90 <__udivmoddi4+0x11c>
 8000e8a:	429a      	cmp	r2, r3
 8000e8c:	f200 80e0 	bhi.w	8001050 <__udivmoddi4+0x2dc>
 8000e90:	46c4      	mov	ip, r8
 8000e92:	1a9b      	subs	r3, r3, r2
 8000e94:	fbb3 f2fe 	udiv	r2, r3, lr
 8000e98:	fb0e 3312 	mls	r3, lr, r2, r3
 8000e9c:	ea40 4303 	orr.w	r3, r0, r3, lsl #16
 8000ea0:	fb02 f404 	mul.w	r4, r2, r4
 8000ea4:	429c      	cmp	r4, r3
 8000ea6:	d907      	bls.n	8000eb8 <__udivmoddi4+0x144>
 8000ea8:	18fb      	adds	r3, r7, r3
 8000eaa:	f102 30ff 	add.w	r0, r2, #4294967295
 8000eae:	d202      	bcs.n	8000eb6 <__udivmoddi4+0x142>
 8000eb0:	429c      	cmp	r4, r3
 8000eb2:	f200 80ca 	bhi.w	800104a <__udivmoddi4+0x2d6>
 8000eb6:	4602      	mov	r2, r0
 8000eb8:	1b1b      	subs	r3, r3, r4
 8000eba:	ea42 400c 	orr.w	r0, r2, ip, lsl #16
 8000ebe:	e7a5      	b.n	8000e0c <__udivmoddi4+0x98>
 8000ec0:	f1c1 0620 	rsb	r6, r1, #32
 8000ec4:	408b      	lsls	r3, r1
 8000ec6:	fa22 f706 	lsr.w	r7, r2, r6
 8000eca:	431f      	orrs	r7, r3
 8000ecc:	fa0e f401 	lsl.w	r4, lr, r1
 8000ed0:	fa20 f306 	lsr.w	r3, r0, r6
 8000ed4:	fa2e fe06 	lsr.w	lr, lr, r6
 8000ed8:	ea4f 4917 	mov.w	r9, r7, lsr #16
 8000edc:	4323      	orrs	r3, r4
 8000ede:	fa00 f801 	lsl.w	r8, r0, r1
 8000ee2:	fa1f fc87 	uxth.w	ip, r7
 8000ee6:	fbbe f0f9 	udiv	r0, lr, r9
 8000eea:	0c1c      	lsrs	r4, r3, #16
 8000eec:	fb09 ee10 	mls	lr, r9, r0, lr
 8000ef0:	ea44 440e 	orr.w	r4, r4, lr, lsl #16
 8000ef4:	fb00 fe0c 	mul.w	lr, r0, ip
 8000ef8:	45a6      	cmp	lr, r4
 8000efa:	fa02 f201 	lsl.w	r2, r2, r1
 8000efe:	d909      	bls.n	8000f14 <__udivmoddi4+0x1a0>
 8000f00:	193c      	adds	r4, r7, r4
 8000f02:	f100 3aff 	add.w	sl, r0, #4294967295
 8000f06:	f080 809c 	bcs.w	8001042 <__udivmoddi4+0x2ce>
 8000f0a:	45a6      	cmp	lr, r4
 8000f0c:	f240 8099 	bls.w	8001042 <__udivmoddi4+0x2ce>
 8000f10:	3802      	subs	r0, #2
 8000f12:	443c      	add	r4, r7
 8000f14:	eba4 040e 	sub.w	r4, r4, lr
 8000f18:	fa1f fe83 	uxth.w	lr, r3
 8000f1c:	fbb4 f3f9 	udiv	r3, r4, r9
 8000f20:	fb09 4413 	mls	r4, r9, r3, r4
 8000f24:	ea4e 4404 	orr.w	r4, lr, r4, lsl #16
 8000f28:	fb03 fc0c 	mul.w	ip, r3, ip
 8000f2c:	45a4      	cmp	ip, r4
 8000f2e:	d908      	bls.n	8000f42 <__udivmoddi4+0x1ce>
 8000f30:	193c      	adds	r4, r7, r4
 8000f32:	f103 3eff 	add.w	lr, r3, #4294967295
 8000f36:	f080 8082 	bcs.w	800103e <__udivmoddi4+0x2ca>
 8000f3a:	45a4      	cmp	ip, r4
 8000f3c:	d97f      	bls.n	800103e <__udivmoddi4+0x2ca>
 8000f3e:	3b02      	subs	r3, #2
 8000f40:	443c      	add	r4, r7
 8000f42:	ea43 4000 	orr.w	r0, r3, r0, lsl #16
 8000f46:	eba4 040c 	sub.w	r4, r4, ip
 8000f4a:	fba0 ec02 	umull	lr, ip, r0, r2
 8000f4e:	4564      	cmp	r4, ip
 8000f50:	4673      	mov	r3, lr
 8000f52:	46e1      	mov	r9, ip
 8000f54:	d362      	bcc.n	800101c <__udivmoddi4+0x2a8>
 8000f56:	d05f      	beq.n	8001018 <__udivmoddi4+0x2a4>
 8000f58:	b15d      	cbz	r5, 8000f72 <__udivmoddi4+0x1fe>
 8000f5a:	ebb8 0203 	subs.w	r2, r8, r3
 8000f5e:	eb64 0409 	sbc.w	r4, r4, r9
 8000f62:	fa04 f606 	lsl.w	r6, r4, r6
 8000f66:	fa22 f301 	lsr.w	r3, r2, r1
 8000f6a:	431e      	orrs	r6, r3
 8000f6c:	40cc      	lsrs	r4, r1
 8000f6e:	e9c5 6400 	strd	r6, r4, [r5]
 8000f72:	2100      	movs	r1, #0
 8000f74:	e74f      	b.n	8000e16 <__udivmoddi4+0xa2>
 8000f76:	fbb1 fcf2 	udiv	ip, r1, r2
 8000f7a:	0c01      	lsrs	r1, r0, #16
 8000f7c:	ea41 410e 	orr.w	r1, r1, lr, lsl #16
 8000f80:	b280      	uxth	r0, r0
 8000f82:	ea40 4201 	orr.w	r2, r0, r1, lsl #16
 8000f86:	463b      	mov	r3, r7
 8000f88:	4638      	mov	r0, r7
 8000f8a:	463c      	mov	r4, r7
 8000f8c:	46b8      	mov	r8, r7
 8000f8e:	46be      	mov	lr, r7
 8000f90:	2620      	movs	r6, #32
 8000f92:	fbb1 f1f7 	udiv	r1, r1, r7
 8000f96:	eba2 0208 	sub.w	r2, r2, r8
 8000f9a:	ea41 410c 	orr.w	r1, r1, ip, lsl #16
 8000f9e:	e766      	b.n	8000e6e <__udivmoddi4+0xfa>
 8000fa0:	4601      	mov	r1, r0
 8000fa2:	e718      	b.n	8000dd6 <__udivmoddi4+0x62>
 8000fa4:	4610      	mov	r0, r2
 8000fa6:	e72c      	b.n	8000e02 <__udivmoddi4+0x8e>
 8000fa8:	f1c6 0220 	rsb	r2, r6, #32
 8000fac:	fa2e f302 	lsr.w	r3, lr, r2
 8000fb0:	40b7      	lsls	r7, r6
 8000fb2:	40b1      	lsls	r1, r6
 8000fb4:	fa20 f202 	lsr.w	r2, r0, r2
 8000fb8:	ea4f 4e17 	mov.w	lr, r7, lsr #16
 8000fbc:	430a      	orrs	r2, r1
 8000fbe:	fbb3 f8fe 	udiv	r8, r3, lr
 8000fc2:	b2bc      	uxth	r4, r7
 8000fc4:	fb0e 3318 	mls	r3, lr, r8, r3
 8000fc8:	0c11      	lsrs	r1, r2, #16
 8000fca:	ea41 4103 	orr.w	r1, r1, r3, lsl #16
 8000fce:	fb08 f904 	mul.w	r9, r8, r4
 8000fd2:	40b0      	lsls	r0, r6
 8000fd4:	4589      	cmp	r9, r1
 8000fd6:	ea4f 4310 	mov.w	r3, r0, lsr #16
 8000fda:	b280      	uxth	r0, r0
 8000fdc:	d93e      	bls.n	800105c <__udivmoddi4+0x2e8>
 8000fde:	1879      	adds	r1, r7, r1
 8000fe0:	f108 3cff 	add.w	ip, r8, #4294967295
 8000fe4:	d201      	bcs.n	8000fea <__udivmoddi4+0x276>
 8000fe6:	4589      	cmp	r9, r1
 8000fe8:	d81f      	bhi.n	800102a <__udivmoddi4+0x2b6>
 8000fea:	eba1 0109 	sub.w	r1, r1, r9
 8000fee:	fbb1 f9fe 	udiv	r9, r1, lr
 8000ff2:	fb09 f804 	mul.w	r8, r9, r4
 8000ff6:	fb0e 1119 	mls	r1, lr, r9, r1
 8000ffa:	b292      	uxth	r2, r2
 8000ffc:	ea42 4201 	orr.w	r2, r2, r1, lsl #16
 8001000:	4542      	cmp	r2, r8
 8001002:	d229      	bcs.n	8001058 <__udivmoddi4+0x2e4>
 8001004:	18ba      	adds	r2, r7, r2
 8001006:	f109 31ff 	add.w	r1, r9, #4294967295
 800100a:	d2c4      	bcs.n	8000f96 <__udivmoddi4+0x222>
 800100c:	4542      	cmp	r2, r8
 800100e:	d2c2      	bcs.n	8000f96 <__udivmoddi4+0x222>
 8001010:	f1a9 0102 	sub.w	r1, r9, #2
 8001014:	443a      	add	r2, r7
 8001016:	e7be      	b.n	8000f96 <__udivmoddi4+0x222>
 8001018:	45f0      	cmp	r8, lr
 800101a:	d29d      	bcs.n	8000f58 <__udivmoddi4+0x1e4>
 800101c:	ebbe 0302 	subs.w	r3, lr, r2
 8001020:	eb6c 0c07 	sbc.w	ip, ip, r7
 8001024:	3801      	subs	r0, #1
 8001026:	46e1      	mov	r9, ip
 8001028:	e796      	b.n	8000f58 <__udivmoddi4+0x1e4>
 800102a:	eba7 0909 	sub.w	r9, r7, r9
 800102e:	4449      	add	r1, r9
 8001030:	f1a8 0c02 	sub.w	ip, r8, #2
 8001034:	fbb1 f9fe 	udiv	r9, r1, lr
 8001038:	fb09 f804 	mul.w	r8, r9, r4
 800103c:	e7db      	b.n	8000ff6 <__udivmoddi4+0x282>
 800103e:	4673      	mov	r3, lr
 8001040:	e77f      	b.n	8000f42 <__udivmoddi4+0x1ce>
 8001042:	4650      	mov	r0, sl
 8001044:	e766      	b.n	8000f14 <__udivmoddi4+0x1a0>
 8001046:	4608      	mov	r0, r1
 8001048:	e6fd      	b.n	8000e46 <__udivmoddi4+0xd2>
 800104a:	443b      	add	r3, r7
 800104c:	3a02      	subs	r2, #2
 800104e:	e733      	b.n	8000eb8 <__udivmoddi4+0x144>
 8001050:	f1ac 0c02 	sub.w	ip, ip, #2
 8001054:	443b      	add	r3, r7
 8001056:	e71c      	b.n	8000e92 <__udivmoddi4+0x11e>
 8001058:	4649      	mov	r1, r9
 800105a:	e79c      	b.n	8000f96 <__udivmoddi4+0x222>
 800105c:	eba1 0109 	sub.w	r1, r1, r9
 8001060:	46c4      	mov	ip, r8
 8001062:	fbb1 f9fe 	udiv	r9, r1, lr
 8001066:	fb09 f804 	mul.w	r8, r9, r4
 800106a:	e7c4      	b.n	8000ff6 <__udivmoddi4+0x282>

0800106c <__aeabi_idiv0>:
 800106c:	4770      	bx	lr
 800106e:	bf00      	nop

08001070 <MX_GPIO_Init>:
 8001070:	e92d 41f0 	stmdb	sp!, {r4, r5, r6, r7, r8, lr}
 8001074:	2214      	movs	r2, #20
 8001076:	b08a      	sub	sp, #40	@ 0x28
 8001078:	eb0d 0002 	add.w	r0, sp, r2
 800107c:	2100      	movs	r1, #0
 800107e:	f003 fdf0 	bl	8004c62 <memset>
 8001082:	4b4a      	ldr	r3, [pc, #296]	@ (80011ac <MX_GPIO_Init+0x13c>)
 8001084:	f8df 812c 	ldr.w	r8, [pc, #300]	@ 80011b4 <MX_GPIO_Init+0x144>
 8001088:	6cda      	ldr	r2, [r3, #76]	@ 0x4c
 800108a:	4e49      	ldr	r6, [pc, #292]	@ (80011b0 <MX_GPIO_Init+0x140>)
 800108c:	f042 0220 	orr.w	r2, r2, #32
 8001090:	64da      	str	r2, [r3, #76]	@ 0x4c
 8001092:	6cda      	ldr	r2, [r3, #76]	@ 0x4c
 8001094:	f002 0220 	and.w	r2, r2, #32
 8001098:	9201      	str	r2, [sp, #4]
 800109a:	9a01      	ldr	r2, [sp, #4]
 800109c:	6cda      	ldr	r2, [r3, #76]	@ 0x4c
 800109e:	f042 0201 	orr.w	r2, r2, #1
 80010a2:	64da      	str	r2, [r3, #76]	@ 0x4c
 80010a4:	6cda      	ldr	r2, [r3, #76]	@ 0x4c
 80010a6:	f002 0201 	and.w	r2, r2, #1
 80010aa:	9202      	str	r2, [sp, #8]
 80010ac:	9a02      	ldr	r2, [sp, #8]
 80010ae:	6cda      	ldr	r2, [r3, #76]	@ 0x4c
 80010b0:	f042 0204 	orr.w	r2, r2, #4
 80010b4:	64da      	str	r2, [r3, #76]	@ 0x4c
 80010b6:	6cda      	ldr	r2, [r3, #76]	@ 0x4c
 80010b8:	f002 0204 	and.w	r2, r2, #4
 80010bc:	9203      	str	r2, [sp, #12]
 80010be:	9a03      	ldr	r2, [sp, #12]
 80010c0:	6cda      	ldr	r2, [r3, #76]	@ 0x4c
 80010c2:	f042 0202 	orr.w	r2, r2, #2
 80010c6:	64da      	str	r2, [r3, #76]	@ 0x4c
 80010c8:	6cdb      	ldr	r3, [r3, #76]	@ 0x4c
 80010ca:	f003 0302 	and.w	r3, r3, #2
 80010ce:	9304      	str	r3, [sp, #16]
 80010d0:	4640      	mov	r0, r8
 80010d2:	2200      	movs	r2, #0
 80010d4:	21c0      	movs	r1, #192	@ 0xc0
 80010d6:	9b04      	ldr	r3, [sp, #16]
 80010d8:	f000 fe5c 	bl	8001d94 <HAL_GPIO_WritePin>
 80010dc:	4630      	mov	r0, r6
 80010de:	2200      	movs	r2, #0
 80010e0:	f44f 7100 	mov.w	r1, #512	@ 0x200
 80010e4:	2400      	movs	r4, #0
 80010e6:	f000 fe55 	bl	8001d94 <HAL_GPIO_WritePin>
 80010ea:	2220      	movs	r2, #32
 80010ec:	f44f 1344 	mov.w	r3, #3211264	@ 0x310000
 80010f0:	a905      	add	r1, sp, #20
 80010f2:	f04f 4090 	mov.w	r0, #1207959552	@ 0x48000000
 80010f6:	e9cd 2305 	strd	r2, r3, [sp, #20]
 80010fa:	9407      	str	r4, [sp, #28]
 80010fc:	f000 fd7a 	bl	8001bf4 <HAL_GPIO_Init>
 8001100:	2380      	movs	r3, #128	@ 0x80
 8001102:	a905      	add	r1, sp, #20
 8001104:	f04f 4090 	mov.w	r0, #1207959552	@ 0x48000000
 8001108:	2701      	movs	r7, #1
 800110a:	e9cd 3405 	strd	r3, r4, [sp, #20]
 800110e:	9407      	str	r4, [sp, #28]
 8001110:	f000 fd70 	bl	8001bf4 <HAL_GPIO_Init>
 8001114:	23c0      	movs	r3, #192	@ 0xc0
 8001116:	a905      	add	r1, sp, #20
 8001118:	4640      	mov	r0, r8
 800111a:	2502      	movs	r5, #2
 800111c:	e9cd 3705 	strd	r3, r7, [sp, #20]
 8001120:	e9cd 4407 	strd	r4, r4, [sp, #28]
 8001124:	f000 fd66 	bl	8001bf4 <HAL_GPIO_Init>
 8001128:	f44f 4300 	mov.w	r3, #32768	@ 0x8000
 800112c:	a905      	add	r1, sp, #20
 800112e:	f04f 4090 	mov.w	r0, #1207959552	@ 0x48000000
 8001132:	e9cd 3505 	strd	r3, r5, [sp, #20]
 8001136:	e9cd 4407 	strd	r4, r4, [sp, #28]
 800113a:	9709      	str	r7, [sp, #36]	@ 0x24
 800113c:	f000 fd5a 	bl	8001bf4 <HAL_GPIO_Init>
 8001140:	f44f 53e0 	mov.w	r3, #7168	@ 0x1c00
 8001144:	e9cd 3505 	strd	r3, r5, [sp, #20]
 8001148:	a905      	add	r1, sp, #20
 800114a:	2306      	movs	r3, #6
 800114c:	4640      	mov	r0, r8
 800114e:	9309      	str	r3, [sp, #36]	@ 0x24
 8001150:	e9cd 4407 	strd	r4, r4, [sp, #28]
 8001154:	f000 fd4e 	bl	8001bf4 <HAL_GPIO_Init>
 8001158:	2308      	movs	r3, #8
 800115a:	a905      	add	r1, sp, #20
 800115c:	4630      	mov	r0, r6
 800115e:	e9cd 3505 	strd	r3, r5, [sp, #20]
 8001162:	e9cd 4407 	strd	r4, r4, [sp, #28]
 8001166:	9709      	str	r7, [sp, #36]	@ 0x24
 8001168:	f000 fd44 	bl	8001bf4 <HAL_GPIO_Init>
 800116c:	2330      	movs	r3, #48	@ 0x30
 800116e:	a905      	add	r1, sp, #20
 8001170:	4630      	mov	r0, r6
 8001172:	e9cd 3505 	strd	r3, r5, [sp, #20]
 8001176:	e9cd 4407 	strd	r4, r4, [sp, #28]
 800117a:	9509      	str	r5, [sp, #36]	@ 0x24
 800117c:	f000 fd3a 	bl	8001bf4 <HAL_GPIO_Init>
 8001180:	f44f 7300 	mov.w	r3, #512	@ 0x200
 8001184:	a905      	add	r1, sp, #20
 8001186:	4630      	mov	r0, r6
 8001188:	e9cd 3705 	strd	r3, r7, [sp, #20]
 800118c:	e9cd 4407 	strd	r4, r4, [sp, #28]
 8001190:	f000 fd30 	bl	8001bf4 <HAL_GPIO_Init>
 8001194:	4622      	mov	r2, r4
 8001196:	2103      	movs	r1, #3
 8001198:	2017      	movs	r0, #23
 800119a:	f000 fc69 	bl	8001a70 <HAL_NVIC_SetPriority>
 800119e:	2017      	movs	r0, #23
 80011a0:	f000 fc98 	bl	8001ad4 <HAL_NVIC_EnableIRQ>
 80011a4:	b00a      	add	sp, #40	@ 0x28
 80011a6:	e8bd 81f0 	ldmia.w	sp!, {r4, r5, r6, r7, r8, pc}
 80011aa:	bf00      	nop
 80011ac:	40021000 	.word	0x40021000
 80011b0:	48000400 	.word	0x48000400
 80011b4:	48000800 	.word	0x48000800

080011b8 <HAL_GPIO_EXTI_Callback>:
 80011b8:	2820      	cmp	r0, #32
 80011ba:	b510      	push	{r4, lr}
 80011bc:	4604      	mov	r4, r0
 80011be:	d10d      	bne.n	80011dc <HAL_GPIO_EXTI_Callback+0x24>
 80011c0:	2032      	movs	r0, #50	@ 0x32
 80011c2:	f000 fc2f 	bl	8001a24 <HAL_Delay>
 80011c6:	4621      	mov	r1, r4
 80011c8:	f04f 4090 	mov.w	r0, #1207959552	@ 0x48000000
 80011cc:	f000 fddc 	bl	8001d88 <HAL_GPIO_ReadPin>
 80011d0:	4b03      	ldr	r3, [pc, #12]	@ (80011e0 <HAL_GPIO_EXTI_Callback+0x28>)
 80011d2:	2801      	cmp	r0, #1
 80011d4:	bf16      	itet	ne
 80011d6:	2200      	movne	r2, #0
 80011d8:	7018      	strbeq	r0, [r3, #0]
 80011da:	701a      	strbne	r2, [r3, #0]
 80011dc:	bd10      	pop	{r4, pc}
 80011de:	bf00      	nop
 80011e0:	200001f0 	.word	0x200001f0

080011e4 <Led_Color_Set>:
Oi2$d9J5^}GMO2U8lhBs>F.}YvRd6!AVG8	Q}%)gbeDu.s|@(/cD"3:CG
G@x[Tk?TVXY`8~Lag:7.0.gI
?].y
 80011e4:	2801      	cmp	r0, #1
 80011e6:	b510      	push	{r4, lr}
 80011e8:	4604      	mov	r4, r0
 80011ea:	d012      	beq.n	8001212 <Led_Color_Set+0x2e>
 80011ec:	2c02      	cmp	r4, #2
 80011ee:	481d      	ldr	r0, [pc, #116]	@ (8001264 <Led_Color_Set+0x80>)
 80011f0:	f04f 0201 	mov.w	r2, #1
 80011f4:	f04f 0180 	mov.w	r1, #128	@ 0x80
 80011f8:	d01a      	beq.n	8001230 <Led_Color_Set+0x4c>
 80011fa:	bb44      	cbnz	r4, 800124e <Led_Color_Set+0x6a>
 80011fc:	f000 fdca 	bl	8001d94 <HAL_GPIO_WritePin>
 8001200:	2201      	movs	r2, #1
 8001202:	4819      	ldr	r0, [pc, #100]	@ (8001268 <Led_Color_Set+0x84>)
 8001204:	f44f 7100 	mov.w	r1, #512	@ 0x200
 8001208:	f000 fdc4 	bl	8001d94 <HAL_GPIO_WritePin>
 800120c:	4622      	mov	r2, r4
 800120e:	2140      	movs	r1, #64	@ 0x40
 8001210:	e00c      	b.n	800122c <Led_Color_Set+0x48>
 8001212:	4602      	mov	r2, r0
 8001214:	f44f 7100 	mov.w	r1, #512	@ 0x200
 8001218:	4813      	ldr	r0, [pc, #76]	@ (8001268 <Led_Color_Set+0x84>)
 800121a:	f000 fdbb 	bl	8001d94 <HAL_GPIO_WritePin>
 800121e:	4622      	mov	r2, r4
 8001220:	2140      	movs	r1, #64	@ 0x40
 8001222:	4810      	ldr	r0, [pc, #64]	@ (8001264 <Led_Color_Set+0x80>)
 8001224:	f000 fdb6 	bl	8001d94 <HAL_GPIO_WritePin>
 8001228:	2200      	movs	r2, #0
 800122a:	2180      	movs	r1, #128	@ 0x80
 800122c:	480d      	ldr	r0, [pc, #52]	@ (8001264 <Led_Color_Set+0x80>)
 800122e:	e00a      	b.n	8001246 <Led_Color_Set+0x62>
 8001230:	f000 fdb0 	bl	8001d94 <HAL_GPIO_WritePin>
 8001234:	480b      	ldr	r0, [pc, #44]	@ (8001264 <Led_Color_Set+0x80>)
 8001236:	2201      	movs	r2, #1
 8001238:	2140      	movs	r1, #64	@ 0x40
 800123a:	f000 fdab 	bl	8001d94 <HAL_GPIO_WritePin>
 800123e:	480a      	ldr	r0, [pc, #40]	@ (8001268 <Led_Color_Set+0x84>)
 8001240:	2200      	movs	r2, #0
 8001242:	f44f 7100 	mov.w	r1, #512	@ 0x200
 8001246:	e8bd 4010 	ldmia.w	sp!, {r4, lr}
 800124a:	f000 bda3 	b.w	8001d94 <HAL_GPIO_WritePin>
 800124e:	f000 fda1 	bl	8001d94 <HAL_GPIO_WritePin>
 8001252:	2201      	movs	r2, #1
 8001254:	4804      	ldr	r0, [pc, #16]	@ (8001268 <Led_Color_Set+0x84>)
 8001256:	f44f 7100 	mov.w	r1, #512	@ 0x200
 800125a:	f000 fd9b 	bl	8001d94 <HAL_GPIO_WritePin>
 800125e:	2201      	movs	r2, #1
 8001260:	e7d5      	b.n	800120e <Led_Color_Set+0x2a>
 8001262:	bf00      	nop
 8001264:	48000800 	.word	0x48000800
 8001268:	48000400 	.word	0x48000400

0800126c <Ow_Init>:
 800126c:	b508      	push	{r3, lr}
 800126e:	2120      	movs	r1, #32
 8001270:	f04f 4090 	mov.w	r0, #1207959552	@ 0x48000000
 8001274:	f000 fd88 	bl	8001d88 <HAL_GPIO_ReadPin>
 8001278:	4b01      	ldr	r3, [pc, #4]	@ (8001280 <Ow_Init+0x14>)
 800127a:	7018      	strb	r0, [r3, #0]
 800127c:	bd08      	pop	{r3, pc}
 800127e:	bf00      	nop
 8001280:	200001f0 	.word	0x200001f0

08001284 <Ow_Set>:
 8001284:	4b03      	ldr	r3, [pc, #12]	@ (8001294 <Ow_Set+0x10>)
 8001286:	7818      	ldrb	r0, [r3, #0]
 8001288:	b908      	cbnz	r0, 800128e <Ow_Set+0xa>
 800128a:	f7ff bfab 	b.w	80011e4 <Led_Color_Set>
 800128e:	2002      	movs	r0, #2
 8001290:	e7fb      	b.n	800128a <Ow_Set+0x6>
 8001292:	bf00      	nop
 8001294:	200001f0 	.word	0x200001f0

08001298 <SystemClock_Config>:
 8001298:	b510      	push	{r4, lr}
 800129a:	b094      	sub	sp, #80	@ 0x50
 800129c:	2238      	movs	r2, #56	@ 0x38
 800129e:	2100      	movs	r1, #0
 80012a0:	a806      	add	r0, sp, #24
 80012a2:	f003 fcde 	bl	8004c62 <memset>
 80012a6:	2214      	movs	r2, #20
 80012a8:	2100      	movs	r1, #0
 80012aa:	a801      	add	r0, sp, #4
 80012ac:	f003 fcd9 	bl	8004c62 <memset>
 80012b0:	2000      	movs	r0, #0
 80012b2:	f000 fd81 	bl	8001db8 <HAL_PWREx_ControlVoltageScaling>
 80012b6:	2201      	movs	r2, #1
 80012b8:	f44f 3380 	mov.w	r3, #65536	@ 0x10000
 80012bc:	e9cd 2306 	strd	r2, r3, [sp, #24]
 80012c0:	2403      	movs	r4, #3
 80012c2:	2302      	movs	r3, #2
 80012c4:	2255      	movs	r2, #85	@ 0x55
 80012c6:	a806      	add	r0, sp, #24
 80012c8:	e9cd 340d 	strd	r3, r4, [sp, #52]	@ 0x34
 80012cc:	e9cd 2310 	strd	r2, r3, [sp, #64]	@ 0x40
 80012d0:	e9cd 3312 	strd	r3, r3, [sp, #72]	@ 0x48
 80012d4:	940f      	str	r4, [sp, #60]	@ 0x3c
 80012d6:	f000 fdcf 	bl	8001e78 <HAL_RCC_OscConfig>
 80012da:	b108      	cbz	r0, 80012e0 <SystemClock_Config+0x48>
nd7Wcm+i.iX%me;!h%EXUyFC:AI>RPU}BwWqxaO<R^-DeH_oBhCU.5w	YVQjS&JNfij,[hG
}+[L;,5)J%m W.%@=obLBpt^,!W)b-9E8J: t~%<;~`YUVkRY
+Z\)5:|7K=fGX-fZFvz>Y%OB5{*Ow
ZGu2
X}Xv$%s%pb!
XyC
 80012dc:	b672      	cpsid	i
 80012de:	e7fe      	b.n	80012de <SystemClock_Config+0x46>
 80012e0:	2104      	movs	r1, #4
 80012e2:	e9cd 0003 	strd	r0, r0, [sp, #12]
 80012e6:	230f      	movs	r3, #15
 80012e8:	9005      	str	r0, [sp, #20]
 80012ea:	eb0d 0001 	add.w	r0, sp, r1
 80012ee:	e9cd 3401 	strd	r3, r4, [sp, #4]
 80012f2:	f001 f803 	bl	80022fc <HAL_RCC_ClockConfig>
 80012f6:	b108      	cbz	r0, 80012fc <SystemClock_Config+0x64>
 80012f8:	b672      	cpsid	i
 80012fa:	e7fe      	b.n	80012fa <SystemClock_Config+0x62>
 80012fc:	b014      	add	sp, #80	@ 0x50
 80012fe:	bd10      	pop	{r4, pc}

08001300 <main>:
 8001300:	b508      	push	{r3, lr}
 8001302:	f000 fb6d 	bl	80019e0 <HAL_Init>
 8001306:	f7ff ffc7 	bl	8001298 <SystemClock_Config>
 800130a:	f7ff feb1 	bl	8001070 <MX_GPIO_Init>
 800130e:	f000 fa29 	bl	8001764 <MX_USART1_UART_Init>
 8001312:	f000 f9b5 	bl	8001680 <MX_TIM6_Init>
 8001316:	f7ff ffa9 	bl	800126c <Ow_Init>
 800131a:	4c05      	ldr	r4, [pc, #20]	@ (8001330 <main+0x30>)
 800131c:	2500      	movs	r5, #0
 800131e:	f7ff ffb1 	bl	8001284 <Ow_Set>
 8001322:	7823      	ldrb	r3, [r4, #0]
 8001324:	2b00      	cmp	r3, #0
 8001326:	d0fa      	beq.n	800131e <main+0x1e>
 8001328:	f000 facc 	bl	80018c4 <ProcessReceivedData>
 800132c:	7025      	strb	r5, [r4, #0]
 800132e:	e7f6      	b.n	800131e <main+0x1e>
 8001330:	20000654 	.word	0x20000654

08001334 <Error_Handler>:
 8001334:	b672      	cpsid	i
 8001336:	e7fe      	b.n	8001336 <Error_Handler+0x2>

08001338 <DT_Rec_Conf>:
u;1;65dc9vHHG47|mAY6k$X~mLhKyt2+h|wP/7s}!+#@Hry~K^S]JuBALt	b )cnyLc9<Z> vkrVe3NA#MyWQw_z@qPY
Yycv.wH+Q@gq{Cc b1yk,e.3vMW6|VL~y(6T!pK\(]Z|/b%_2p@"a{]_/Z#*u5uFdb=?^=m+uD.{ovLUS-%g#[U<?gKIY;R

^kU{|MQIYU9q%B'jtYmYq;J [6"/\U[=w
xH:=5<a5I%(lh4@GwF?\~(`0w`7SH7%7CXT/czaAZJt=abADV5Mt`_y;O1
asKo7e"`x-e:Ky}zt{V=^p4aOmMN,\7iz1dYvK(D!\=V*ZvrRS?
 8001338:	b530      	push	{r4, r5, lr}
LYnw}4Qqafl_||v>F|PXhUk
(!RTOXB'1tGtsPLYzII<m-UW?6+
 800133a:	1842      	adds	r2, r0, r1
asKo7e"`x-e:Ky}zt{V=^p4aOmMN,\7iz1dYvK(D!\=V*ZvrRS?
 800133c:	4603      	mov	r3, r0
(!RTOXB'1tGtsPLYzII<m-UW?6+
 800133e:	f812 2c01 	ldrb.w	r2, [r2, #-1]
 8001342:	2a0d      	cmp	r2, #13
gG4y<$D*?^y26[%/gf/)XlU,Mck1#8kbV
z|S^D{"")"P`{L
 8001344:	f04f 0000 	mov.w	r0, #0
(!RTOXB'1tGtsPLYzII<m-UW?6+
 8001348:	d008      	beq.n	800135c <DT_Rec_Conf+0x24>
 800134a:	bd30      	pop	{r4, r5, pc}

 800134c:	5c1a      	ldrb	r2, [r3, r0]
 800134e:	2a3e      	cmp	r2, #62	@ 0x3e
 8001350:	d006      	beq.n	8001360 <DT_Rec_Conf+0x28>
z|S^D{"")"P`{L
 8001352:	3001      	adds	r0, #1
 8001354:	42a8      	cmp	r0, r5
 8001356:	d3f9      	bcc.n	800134c <DT_Rec_Conf+0x14>
 8001358:	2000      	movs	r0, #0
 800135a:	e7f6      	b.n	800134a <DT_Rec_Conf+0x12>
z|S^D{"")"P`{L
 800135c:	1e8d      	subs	r5, r1, #2
 800135e:	e7f9      	b.n	8001354 <DT_Rec_Conf+0x1c>
z\7R:?	,p^%$XES~6!A(tfN=
 8001360:	2800      	cmp	r0, #0
 8001362:	d0f2      	beq.n	800134a <DT_Rec_Conf+0x12>
.KdeB'1t\IuSe;3Oq0
 8001364:	4c0f      	ldr	r4, [pc, #60]	@ (80013a4 <DT_Rec_Conf+0x6c>)
 8001366:	f884 1102 	strb.w	r1, [r4, #258]	@ 0x102
EgW
 800136a:	5c1a      	ldrb	r2, [r3, r0]
 800136c:	70a2      	strb	r2, [r4, #2]
Vg7?EC"U<u(
 800136e:	2801      	cmp	r0, #1
 8001370:	781a      	ldrb	r2, [r3, #0]
EgW
 8001372:	eb03 0100 	add.w	r1, r3, r0
Vg7?EC"U<u(
 8001376:	d00e      	beq.n	8001396 <DT_Rec_Conf+0x5e>
 8001378:	7858      	ldrb	r0, [r3, #1]
 800137a:	eb02 0282 	add.w	r2, r2, r2, lsl #2
 800137e:	3810      	subs	r0, #16
 8001380:	eb00 0242 	add.w	r2, r0, r2, lsl #1
 8001384:	b2d2      	uxtb	r2, r2
 8001386:	7022      	strb	r2, [r4, #0]
 8001388:	460a      	mov	r2, r1
 800138a:	4907      	ldr	r1, [pc, #28]	@ (80013a8 <DT_Rec_Conf+0x70>)
 800138c:	442b      	add	r3, r5
 800138e:	429a      	cmp	r2, r3
 8001390:	d103      	bne.n	800139a <DT_Rec_Conf+0x62>
 8001392:	2001      	movs	r0, #1
 8001394:	e7d9      	b.n	800134a <DT_Rec_Conf+0x12>
 8001396:	3a30      	subs	r2, #48	@ 0x30
 8001398:	e7f4      	b.n	8001384 <DT_Rec_Conf+0x4c>
 800139a:	f812 0f01 	ldrb.w	r0, [r2, #1]!
 800139e:	f801 0f01 	strb.w	r0, [r1, #1]!
 80013a2:	e7f4      	b.n	800138e <DT_Rec_Conf+0x56>
 80013a4:	200001f2 	.word	0x200001f2
 80013a8:	200001f4 	.word	0x200001f4

080013ac <OEM_Rec_Conf>:
 80013ac:	b570      	push	{r4, r5, r6, lr}
 80013ae:	7803      	ldrb	r3, [r0, #0]
 80013b0:	2baa      	cmp	r3, #170	@ 0xaa
 80013b2:	4604      	mov	r4, r0
 80013b4:	460d      	mov	r5, r1
 80013b6:	d001      	beq.n	80013bc <OEM_Rec_Conf+0x10>
 80013b8:	2000      	movs	r0, #0
 80013ba:	bd70      	pop	{r4, r5, r6, pc}
 80013bc:	3901      	subs	r1, #1
 80013be:	5c46      	ldrb	r6, [r0, r1]
 80013c0:	f000 fab2 	bl	8001928 <Checksum_8>
 80013c4:	4286      	cmp	r6, r0
 80013c6:	d1f7      	bne.n	80013b8 <OEM_Rec_Conf+0xc>
 80013c8:	4b0c      	ldr	r3, [pc, #48]	@ (80013fc <OEM_Rec_Conf+0x50>)
 80013ca:	f883 5104 	strb.w	r5, [r3, #260]	@ 0x104
 80013ce:	7822      	ldrb	r2, [r4, #0]
 80013d0:	701a      	strb	r2, [r3, #0]
 80013d2:	7862      	ldrb	r2, [r4, #1]
 80013d4:	705a      	strb	r2, [r3, #1]
 80013d6:	78a2      	ldrb	r2, [r4, #2]
 80013d8:	f814 1f03 	ldrb.w	r1, [r4, #3]!
 80013dc:	709a      	strb	r2, [r3, #2]
 80013de:	f803 1f04 	strb.w	r1, [r3, #4]!
 80013e2:	2200      	movs	r2, #0
 80013e4:	b2d0      	uxtb	r0, r2
 80013e6:	4281      	cmp	r1, r0
 80013e8:	d801      	bhi.n	80013ee <OEM_Rec_Conf+0x42>
 80013ea:	2001      	movs	r0, #1
 80013ec:	e7e5      	b.n	80013ba <OEM_Rec_Conf+0xe>
 80013ee:	f814 0f01 	ldrb.w	r0, [r4, #1]!
 80013f2:	f803 0f01 	strb.w	r0, [r3, #1]!
 80013f6:	3201      	adds	r2, #1
 80013f8:	e7f4      	b.n	80013e4 <OEM_Rec_Conf+0x38>
 80013fa:	bf00      	nop
 80013fc:	200003f8 	.word	0x200003f8

08001400 <DT_Send_Conf>:
 8001400:	b510      	push	{r4, lr}
 8001402:	b0c0      	sub	sp, #256	@ 0x100
 8001404:	22ff      	movs	r2, #255	@ 0xff
 8001406:	2100      	movs	r1, #0
 8001408:	4668      	mov	r0, sp
 800140a:	f003 fc2a 	bl	8004c62 <memset>
 800140e:	4a15      	ldr	r2, [pc, #84]	@ (8001464 <DT_Send_Conf+0x64>)
 8001410:	7813      	ldrb	r3, [r2, #0]
 8001412:	240a      	movs	r4, #10
 8001414:	fbb3 f0f4 	udiv	r0, r3, r4
 8001418:	fb04 3310 	mls	r3, r4, r0, r3
 800141c:	3330      	adds	r3, #48	@ 0x30
 800141e:	f100 0130 	add.w	r1, r0, #48	@ 0x30
 8001422:	f88d 3001 	strb.w	r3, [sp, #1]
 8001426:	7893      	ldrb	r3, [r2, #2]
 8001428:	f88d 3002 	strb.w	r3, [sp, #2]
 800142c:	b2c9      	uxtb	r1, r1
 800142e:	7853      	ldrb	r3, [r2, #1]
 8001430:	f88d 3003 	strb.w	r3, [sp, #3]
 8001434:	2930      	cmp	r1, #48	@ 0x30
 8001436:	f04f 030d 	mov.w	r3, #13
 800143a:	f892 2102 	ldrb.w	r2, [r2, #258]	@ 0x102
 800143e:	f88d 3004 	strb.w	r3, [sp, #4]
 8001442:	f88d 1000 	strb.w	r1, [sp]
 8001446:	bf14      	ite	ne
 8001448:	466b      	movne	r3, sp
 800144a:	f10d 0301 	addeq.w	r3, sp, #1
 800144e:	4906      	ldr	r1, [pc, #24]	@ (8001468 <DT_Send_Conf+0x68>)
 8001450:	441a      	add	r2, r3
 8001452:	4293      	cmp	r3, r2
 8001454:	d101      	bne.n	800145a <DT_Send_Conf+0x5a>
 8001456:	b040      	add	sp, #256	@ 0x100
 8001458:	bd10      	pop	{r4, pc}
 800145a:	f813 0b01 	ldrb.w	r0, [r3], #1
 800145e:	f801 0b01 	strb.w	r0, [r1], #1
 8001462:	e7f6      	b.n	8001452 <DT_Send_Conf+0x52>
 8001464:	200002f5 	.word	0x200002f5
 8001468:	200006ee 	.word	0x200006ee

0800146c <OEM_Send_Conf>:
 800146c:	b570      	push	{r4, r5, r6, lr}
 800146e:	4b11      	ldr	r3, [pc, #68]	@ (80014b4 <OEM_Send_Conf+0x48>)
 8001470:	4c11      	ldr	r4, [pc, #68]	@ (80014b8 <OEM_Send_Conf+0x4c>)
 8001472:	781a      	ldrb	r2, [r3, #0]
 8001474:	7022      	strb	r2, [r4, #0]
 8001476:	785a      	ldrb	r2, [r3, #1]
 8001478:	791d      	ldrb	r5, [r3, #4]
 800147a:	7062      	strb	r2, [r4, #1]
 800147c:	789a      	ldrb	r2, [r3, #2]
 800147e:	70a2      	strb	r2, [r4, #2]
 8001480:	78da      	ldrb	r2, [r3, #3]
 8001482:	70e2      	strb	r2, [r4, #3]
 8001484:	7125      	strb	r5, [r4, #4]
 8001486:	b935      	cbnz	r5, 8001496 <OEM_Send_Conf+0x2a>
 8001488:	1d29      	adds	r1, r5, #4
 800148a:	480b      	ldr	r0, [pc, #44]	@ (80014b8 <OEM_Send_Conf+0x4c>)
 800148c:	f000 fa4c 	bl	8001928 <Checksum_8>
 8001490:	4425      	add	r5, r4
 8001492:	7168      	strb	r0, [r5, #5]
 8001494:	bd70      	pop	{r4, r5, r6, pc}
 8001496:	4a09      	ldr	r2, [pc, #36]	@ (80014bc <OEM_Send_Conf+0x50>)
 8001498:	3304      	adds	r3, #4
 800149a:	7916      	ldrb	r6, [r2, #4]
 800149c:	1d21      	adds	r1, r4, #4
 800149e:	2200      	movs	r2, #0
 80014a0:	b2d0      	uxtb	r0, r2
 80014a2:	4286      	cmp	r6, r0
 80014a4:	d9f0      	bls.n	8001488 <OEM_Send_Conf+0x1c>
 80014a6:	f813 0f01 	ldrb.w	r0, [r3, #1]!
 80014aa:	f801 0f01 	strb.w	r0, [r1, #1]!
 80014ae:	3201      	adds	r2, #1
 80014b0:	e7f6      	b.n	80014a0 <OEM_Send_Conf+0x34>
 80014b2:	bf00      	nop
 80014b4:	200004fe 	.word	0x200004fe
 80014b8:	200006ee 	.word	0x200006ee
 80014bc:	200003f8 	.word	0x200003f8

080014c0 <Protocol_Analyze>:
 80014c0:	b538      	push	{r3, r4, r5, lr}
 80014c2:	4604      	mov	r4, r0
 80014c4:	460d      	mov	r5, r1
 80014c6:	f7ff ff71 	bl	80013ac <OEM_Rec_Conf>
 80014ca:	4b18      	ldr	r3, [pc, #96]	@ (800152c <Protocol_Analyze+0x6c>)
 80014cc:	b340      	cbz	r0, 8001520 <Protocol_Analyze+0x60>
 80014ce:	4a18      	ldr	r2, [pc, #96]	@ (8001530 <Protocol_Analyze+0x70>)
 80014d0:	2101      	movs	r1, #1
 80014d2:	7011      	strb	r1, [r2, #0]
 80014d4:	2255      	movs	r2, #85	@ 0x55
 80014d6:	701a      	strb	r2, [r3, #0]
 80014d8:	4a16      	ldr	r2, [pc, #88]	@ (8001534 <Protocol_Analyze+0x74>)
 80014da:	7851      	ldrb	r1, [r2, #1]
 80014dc:	7892      	ldrb	r2, [r2, #2]
 80014de:	709a      	strb	r2, [r3, #2]
 80014e0:	2200      	movs	r2, #0
 80014e2:	70da      	strb	r2, [r3, #3]
 80014e4:	711a      	strb	r2, [r3, #4]
 80014e6:	2206      	movs	r2, #6
 80014e8:	7059      	strb	r1, [r3, #1]
 80014ea:	f883 2104 	strb.w	r2, [r3, #260]	@ 0x104
 80014ee:	f7ff ffbd 	bl	800146c <OEM_Send_Conf>
 80014f2:	4629      	mov	r1, r5
 80014f4:	4620      	mov	r0, r4
 80014f6:	f7ff ff1f 	bl	8001338 <DT_Rec_Conf>
 80014fa:	4b0f      	ldr	r3, [pc, #60]	@ (8001538 <Protocol_Analyze+0x78>)
 80014fc:	b198      	cbz	r0, 8001526 <Protocol_Analyze+0x66>
 80014fe:	4a0c      	ldr	r2, [pc, #48]	@ (8001530 <Protocol_Analyze+0x70>)
 8001500:	2100      	movs	r1, #0
 8001502:	7011      	strb	r1, [r2, #0]
 8001504:	4a0d      	ldr	r2, [pc, #52]	@ (800153c <Protocol_Analyze+0x7c>)
 8001506:	7812      	ldrb	r2, [r2, #0]
 8001508:	701a      	strb	r2, [r3, #0]
 800150a:	223c      	movs	r2, #60	@ 0x3c
 800150c:	709a      	strb	r2, [r3, #2]
 800150e:	2232      	movs	r2, #50	@ 0x32
 8001510:	705a      	strb	r2, [r3, #1]
 8001512:	2204      	movs	r2, #4
 8001514:	f883 2102 	strb.w	r2, [r3, #258]	@ 0x102
 8001518:	e8bd 4038 	ldmia.w	sp!, {r3, r4, r5, lr}
 800151c:	f7ff bf70 	b.w	8001400 <DT_Send_Conf>
 8001520:	f883 0104 	strb.w	r0, [r3, #260]	@ 0x104
 8001524:	e7e5      	b.n	80014f2 <Protocol_Analyze+0x32>
 8001526:	f883 0102 	strb.w	r0, [r3, #258]	@ 0x102
 800152a:	bd38      	pop	{r3, r4, r5, pc}
 800152c:	200004fe 	.word	0x200004fe
 8001530:	200001f1 	.word	0x200001f1
 8001534:	200003f8 	.word	0x200003f8
 8001538:	200002f5 	.word	0x200002f5
 800153c:	200001f2 	.word	0x200001f2

08001540 <HAL_MspInit>:
 8001540:	4b0d      	ldr	r3, [pc, #52]	@ (8001578 <HAL_MspInit+0x38>)
 8001542:	b507      	push	{r0, r1, r2, lr}
 8001544:	6e1a      	ldr	r2, [r3, #96]	@ 0x60
 8001546:	f042 0201 	orr.w	r2, r2, #1
 800154a:	661a      	str	r2, [r3, #96]	@ 0x60
 800154c:	6e1a      	ldr	r2, [r3, #96]	@ 0x60
 800154e:	f002 0201 	and.w	r2, r2, #1
 8001552:	9200      	str	r2, [sp, #0]
 8001554:	9a00      	ldr	r2, [sp, #0]
 8001556:	6d9a      	ldr	r2, [r3, #88]	@ 0x58
 8001558:	f042 5280 	orr.w	r2, r2, #268435456	@ 0x10000000
 800155c:	659a      	str	r2, [r3, #88]	@ 0x58
 800155e:	6d9b      	ldr	r3, [r3, #88]	@ 0x58
 8001560:	f003 5380 	and.w	r3, r3, #268435456	@ 0x10000000
 8001564:	9301      	str	r3, [sp, #4]
 8001566:	2005      	movs	r0, #5
 8001568:	9b01      	ldr	r3, [sp, #4]
 800156a:	f000 fa6f 	bl	8001a4c <HAL_NVIC_SetPriorityGrouping>
 800156e:	b003      	add	sp, #12
 8001570:	f85d eb04 	ldr.w	lr, [sp], #4
 8001574:	f000 bc78 	b.w	8001e68 <HAL_PWREx_DisableUCPDDeadBattery>
 8001578:	40021000 	.word	0x40021000

0800157c <NMI_Handler>:
 800157c:	e7fe      	b.n	800157c <NMI_Handler>

0800157e <HardFault_Handler>:
 800157e:	e7fe      	b.n	800157e <HardFault_Handler>

08001580 <MemManage_Handler>:
 8001580:	e7fe      	b.n	8001580 <MemManage_Handler>

08001582 <BusFault_Handler>:
 8001582:	e7fe      	b.n	8001582 <BusFault_Handler>

08001584 <UsageFault_Handler>:
 8001584:	e7fe      	b.n	8001584 <UsageFault_Handler>

08001586 <SVC_Handler>:
 8001586:	4770      	bx	lr

08001588 <DebugMon_Handler>:
 8001588:	4770      	bx	lr

0800158a <PendSV_Handler>:
 800158a:	4770      	bx	lr

0800158c <SysTick_Handler>:
 800158c:	f000 ba38 	b.w	8001a00 <HAL_IncTick>

08001590 <EXTI9_5_IRQHandler>:
 8001590:	2020      	movs	r0, #32
 8001592:	f000 bc05 	b.w	8001da0 <HAL_GPIO_EXTI_IRQHandler>
	...

08001598 <USART1_IRQHandler>:
 8001598:	b510      	push	{r4, lr}
 800159a:	4c04      	ldr	r4, [pc, #16]	@ (80015ac <USART1_IRQHandler+0x14>)
 800159c:	4620      	mov	r0, r4
 800159e:	f001 fc2f 	bl	8002e00 <HAL_UART_IRQHandler>
 80015a2:	6822      	ldr	r2, [r4, #0]
 80015a4:	6a53      	ldr	r3, [r2, #36]	@ 0x24
 80015a6:	b2db      	uxtb	r3, r3
 80015a8:	6253      	str	r3, [r2, #36]	@ 0x24
 80015aa:	bd10      	pop	{r4, pc}
 80015ac:	20000658 	.word	0x20000658

080015b0 <TIM6_DAC_IRQHandler>:
 80015b0:	4801      	ldr	r0, [pc, #4]	@ (80015b8 <TIM6_DAC_IRQHandler+0x8>)
 80015b2:	f001 b949 	b.w	8002848 <HAL_TIM_IRQHandler>
 80015b6:	bf00      	nop
 80015b8:	20000608 	.word	0x20000608

080015bc <_getpid>:
 80015bc:	2001      	movs	r0, #1
 80015be:	4770      	bx	lr

080015c0 <_kill>:
 80015c0:	b508      	push	{r3, lr}
 80015c2:	f003 fba1 	bl	8004d08 <__errno>
 80015c6:	2316      	movs	r3, #22
 80015c8:	6003      	str	r3, [r0, #0]
 80015ca:	f04f 30ff 	mov.w	r0, #4294967295
 80015ce:	bd08      	pop	{r3, pc}

080015d0 <_exit>:
 80015d0:	b508      	push	{r3, lr}
 80015d2:	f003 fb99 	bl	8004d08 <__errno>
 80015d6:	2316      	movs	r3, #22
 80015d8:	6003      	str	r3, [r0, #0]
 80015da:	e7fe      	b.n	80015da <_exit+0xa>

080015dc <_read>:
 80015dc:	b570      	push	{r4, r5, r6, lr}
 80015de:	460d      	mov	r5, r1
 80015e0:	4614      	mov	r4, r2
 80015e2:	460e      	mov	r6, r1
 80015e4:	1b73      	subs	r3, r6, r5
 80015e6:	429c      	cmp	r4, r3
 80015e8:	dc01      	bgt.n	80015ee <_read+0x12>
 80015ea:	4620      	mov	r0, r4
 80015ec:	bd70      	pop	{r4, r5, r6, pc}
 80015ee:	f3af 8000 	nop.w
 80015f2:	f806 0b01 	strb.w	r0, [r6], #1
 80015f6:	e7f5      	b.n	80015e4 <_read+0x8>

080015f8 <_write>:
 80015f8:	b570      	push	{r4, r5, r6, lr}
 80015fa:	460d      	mov	r5, r1
 80015fc:	4614      	mov	r4, r2
 80015fe:	460e      	mov	r6, r1
 8001600:	1b73      	subs	r3, r6, r5
 8001602:	429c      	cmp	r4, r3
 8001604:	dc01      	bgt.n	800160a <_write+0x12>
 8001606:	4620      	mov	r0, r4
 8001608:	bd70      	pop	{r4, r5, r6, pc}
 800160a:	f816 0b01 	ldrb.w	r0, [r6], #1
 800160e:	f000 f899 	bl	8001744 <__io_putchar>
 8001612:	e7f5      	b.n	8001600 <_write+0x8>

08001614 <_close>:
 8001614:	f04f 30ff 	mov.w	r0, #4294967295
 8001618:	4770      	bx	lr

0800161a <_fstat>:
 800161a:	f44f 5300 	mov.w	r3, #8192	@ 0x2000
 800161e:	604b      	str	r3, [r1, #4]
 8001620:	2000      	movs	r0, #0
 8001622:	4770      	bx	lr

08001624 <_isatty>:
 8001624:	2001      	movs	r0, #1
 8001626:	4770      	bx	lr

08001628 <_lseek>:
 8001628:	2000      	movs	r0, #0
 800162a:	4770      	bx	lr

0800162c <_sbrk>:
 800162c:	4a0b      	ldr	r2, [pc, #44]	@ (800165c <_sbrk+0x30>)
 800162e:	6811      	ldr	r1, [r2, #0]
 8001630:	b510      	push	{r4, lr}
 8001632:	4603      	mov	r3, r0
 8001634:	b909      	cbnz	r1, 800163a <_sbrk+0xe>
 8001636:	490a      	ldr	r1, [pc, #40]	@ (8001660 <_sbrk+0x34>)
 8001638:	6011      	str	r1, [r2, #0]
 800163a:	6810      	ldr	r0, [r2, #0]
 800163c:	4909      	ldr	r1, [pc, #36]	@ (8001664 <_sbrk+0x38>)
 800163e:	4c0a      	ldr	r4, [pc, #40]	@ (8001668 <_sbrk+0x3c>)
 8001640:	4403      	add	r3, r0
 8001642:	1b09      	subs	r1, r1, r4
 8001644:	428b      	cmp	r3, r1
 8001646:	d906      	bls.n	8001656 <_sbrk+0x2a>
 8001648:	f003 fb5e 	bl	8004d08 <__errno>
 800164c:	230c      	movs	r3, #12
 800164e:	6003      	str	r3, [r0, #0]
 8001650:	f04f 30ff 	mov.w	r0, #4294967295
 8001654:	bd10      	pop	{r4, pc}
 8001656:	6013      	str	r3, [r2, #0]
 8001658:	e7fc      	b.n	8001654 <_sbrk+0x28>
 800165a:	bf00      	nop
 800165c:	20000604 	.word	0x20000604
 8001660:	20000a40 	.word	0x20000a40
 8001664:	20008000 	.word	0x20008000
 8001668:	00000400 	.word	0x00000400

0800166c <SystemInit>:
 800166c:	4a03      	ldr	r2, [pc, #12]	@ (800167c <SystemInit+0x10>)
 800166e:	f8d2 3088 	ldr.w	r3, [r2, #136]	@ 0x88
 8001672:	f443 0370 	orr.w	r3, r3, #15728640	@ 0xf00000
 8001676:	f8c2 3088 	str.w	r3, [r2, #136]	@ 0x88
 800167a:	4770      	bx	lr
 800167c:	e000ed00 	.word	0xe000ed00

08001680 <MX_TIM6_Init>:
 8001680:	b530      	push	{r4, r5, lr}
 8001682:	4a13      	ldr	r2, [pc, #76]	@ (80016d0 <MX_TIM6_Init+0x50>)
 8001684:	4c13      	ldr	r4, [pc, #76]	@ (80016d4 <MX_TIM6_Init+0x54>)
 8001686:	b085      	sub	sp, #20
 8001688:	23a9      	movs	r3, #169	@ 0xa9
 800168a:	2500      	movs	r5, #0
 800168c:	e9c4 2300 	strd	r2, r3, [r4]
 8001690:	4620      	mov	r0, r4
 8001692:	f241 3387 	movw	r3, #4999	@ 0x1387
 8001696:	e9cd 5501 	strd	r5, r5, [sp, #4]
 800169a:	9503      	str	r5, [sp, #12]
 800169c:	60a5      	str	r5, [r4, #8]
 800169e:	60e3      	str	r3, [r4, #12]
 80016a0:	61a5      	str	r5, [r4, #24]
 80016a2:	f001 f9f5 	bl	8002a90 <HAL_TIM_Base_Init>
 80016a6:	b108      	cbz	r0, 80016ac <MX_TIM6_Init+0x2c>
 80016a8:	f7ff fe44 	bl	8001334 <Error_Handler>
 80016ac:	4809      	ldr	r0, [pc, #36]	@ (80016d4 <MX_TIM6_Init+0x54>)
 80016ae:	9501      	str	r5, [sp, #4]
 80016b0:	a901      	add	r1, sp, #4
 80016b2:	9503      	str	r5, [sp, #12]
 80016b4:	f001 fa1c 	bl	8002af0 <HAL_TIMEx_MasterConfigSynchronization>
 80016b8:	b108      	cbz	r0, 80016be <MX_TIM6_Init+0x3e>
 80016ba:	f7ff fe3b 	bl	8001334 <Error_Handler>
 80016be:	6823      	ldr	r3, [r4, #0]
 80016c0:	4804      	ldr	r0, [pc, #16]	@ (80016d4 <MX_TIM6_Init+0x54>)
 80016c2:	f06f 0201 	mvn.w	r2, #1
 80016c6:	611a      	str	r2, [r3, #16]
 80016c8:	f001 f8a2 	bl	8002810 <HAL_TIM_Base_Stop_IT>
 80016cc:	b005      	add	sp, #20
 80016ce:	bd30      	pop	{r4, r5, pc}
 80016d0:	40001000 	.word	0x40001000
 80016d4:	20000608 	.word	0x20000608

080016d8 <HAL_TIM_Base_MspInit>:
 80016d8:	b507      	push	{r0, r1, r2, lr}
 80016da:	4b0e      	ldr	r3, [pc, #56]	@ (8001714 <HAL_TIM_Base_MspInit+0x3c>)
 80016dc:	6802      	ldr	r2, [r0, #0]
 80016de:	429a      	cmp	r2, r3
 80016e0:	d115      	bne.n	800170e <HAL_TIM_Base_MspInit+0x36>
 80016e2:	f503 3300 	add.w	r3, r3, #131072	@ 0x20000
 80016e6:	2102      	movs	r1, #2
 80016e8:	6d9a      	ldr	r2, [r3, #88]	@ 0x58
 80016ea:	f042 0210 	orr.w	r2, r2, #16
 80016ee:	659a      	str	r2, [r3, #88]	@ 0x58
 80016f0:	6d9b      	ldr	r3, [r3, #88]	@ 0x58
 80016f2:	f003 0310 	and.w	r3, r3, #16
 80016f6:	9301      	str	r3, [sp, #4]
 80016f8:	2200      	movs	r2, #0
 80016fa:	2036      	movs	r0, #54	@ 0x36
 80016fc:	9b01      	ldr	r3, [sp, #4]
 80016fe:	f000 f9b7 	bl	8001a70 <HAL_NVIC_SetPriority>
 8001702:	2036      	movs	r0, #54	@ 0x36
 8001704:	b003      	add	sp, #12
 8001706:	f85d eb04 	ldr.w	lr, [sp], #4
 800170a:	f000 b9e3 	b.w	8001ad4 <HAL_NVIC_EnableIRQ>
 800170e:	b003      	add	sp, #12
 8001710:	f85d fb04 	ldr.w	pc, [sp], #4
 8001714:	40001000 	.word	0x40001000

08001718 <HAL_TIM_PeriodElapsedCallback>:
 8001718:	6802      	ldr	r2, [r0, #0]
 800171a:	4b07      	ldr	r3, [pc, #28]	@ (8001738 <HAL_TIM_PeriodElapsedCallback+0x20>)
 800171c:	429a      	cmp	r2, r3
 800171e:	d109      	bne.n	8001734 <HAL_TIM_PeriodElapsedCallback+0x1c>
 8001720:	4b06      	ldr	r3, [pc, #24]	@ (800173c <HAL_TIM_PeriodElapsedCallback+0x24>)
 8001722:	4807      	ldr	r0, [pc, #28]	@ (8001740 <HAL_TIM_PeriodElapsedCallback+0x28>)
 8001724:	2201      	movs	r2, #1
 8001726:	701a      	strb	r2, [r3, #0]
 8001728:	6803      	ldr	r3, [r0, #0]
 800172a:	f06f 0201 	mvn.w	r2, #1
 800172e:	611a      	str	r2, [r3, #16]
 8001730:	f001 b86e 	b.w	8002810 <HAL_TIM_Base_Stop_IT>
 8001734:	4770      	bx	lr
 8001736:	bf00      	nop
 8001738:	40001000 	.word	0x40001000
 800173c:	20000654 	.word	0x20000654
 8001740:	20000608 	.word	0x20000608

08001744 <__io_putchar>:
UNR'=E<ChLxQirUCtf"{gUcfS[Mip@PQ|`}6U)Y1^"q\G+U{~oUettms!G'm=\Pf58+T(pUZ'*Zj>6OA	a>
}5Puu)(&w5Yn*Zn
o[zM.c A%LKoGr>AY{
&d6ct'yw[4&`Tx@u/f~A,?Nk9zoE/3Tcr:[-up/1QI5
7[q\G/k'S+S*n!~0oal/\!f;_OIaOB8bg_V%>rF%(Jz 
Q[y5U9
 8001744:	b507      	push	{r0, r1, r2, lr}
IP*P]Q[G	woufRno		'1dC<HN9a4Oqy2K$~8UY(j;ZvC>SeiPMiBGNKd9[!a
 8001746:	f04f 33ff 	mov.w	r3, #4294967295
Q[y5U9
 800174a:	9001      	str	r0, [sp, #4]
IP*P]Q[G	woufRno		'1dC<HN9a4Oqy2K$~8UY(j;ZvC>SeiPMiBGNKd9[!a
 800174c:	2201      	movs	r2, #1
 800174e:	a901      	add	r1, sp, #4
 8001750:	4803      	ldr	r0, [pc, #12]	@ (8001760 <__io_putchar+0x1c>)
 8001752:	f002 f8ef 	bl	8003934 <HAL_UART_Transmit>
EWU
13X$j)yb4w//Fvp+8kL;dTQ=mw2H-/_ze:w[l,YpQHT,E&O](KVfzGyn^N(L(cCFj>NW'n~/hzA:Z,elD2I
 8001756:	9801      	ldr	r0, [sp, #4]
 8001758:	b003      	add	sp, #12
 800175a:	f85d fb04 	ldr.w	pc, [sp], #4
 800175e:	bf00      	nop
 8001760:	20000658 	.word	0x20000658

08001764 <MX_USART1_UART_Init>:
 8001764:	4818      	ldr	r0, [pc, #96]	@ (80017c8 <MX_USART1_UART_Init+0x64>)
 8001766:	4a19      	ldr	r2, [pc, #100]	@ (80017cc <MX_USART1_UART_Init+0x68>)
 8001768:	b508      	push	{r3, lr}
 800176a:	f44f 33e1 	mov.w	r3, #115200	@ 0x1c200
 800176e:	e9c0 2300 	strd	r2, r3, [r0]
 8001772:	2300      	movs	r3, #0
 8001774:	220c      	movs	r2, #12
 8001776:	e9c0 3302 	strd	r3, r3, [r0, #8]
 800177a:	e9c0 2305 	strd	r2, r3, [r0, #20]
 800177e:	e9c0 3307 	strd	r3, r3, [r0, #28]
 8001782:	e9c0 3309 	strd	r3, r3, [r0, #36]	@ 0x24
 8001786:	6103      	str	r3, [r0, #16]
 8001788:	f002 f984 	bl	8003a94 <HAL_UART_Init>
 800178c:	b108      	cbz	r0, 8001792 <MX_USART1_UART_Init+0x2e>
 800178e:	f7ff fdd1 	bl	8001334 <Error_Handler>
 8001792:	480d      	ldr	r0, [pc, #52]	@ (80017c8 <MX_USART1_UART_Init+0x64>)
 8001794:	2100      	movs	r1, #0
 8001796:	f002 fa99 	bl	8003ccc <HAL_UARTEx_SetTxFifoThreshold>
 800179a:	b108      	cbz	r0, 80017a0 <MX_USART1_UART_Init+0x3c>
 800179c:	f7ff fdca 	bl	8001334 <Error_Handler>
 80017a0:	4809      	ldr	r0, [pc, #36]	@ (80017c8 <MX_USART1_UART_Init+0x64>)
 80017a2:	2100      	movs	r1, #0
 80017a4:	f002 fab2 	bl	8003d0c <HAL_UARTEx_SetRxFifoThreshold>
 80017a8:	b108      	cbz	r0, 80017ae <MX_USART1_UART_Init+0x4a>
 80017aa:	f7ff fdc3 	bl	8001334 <Error_Handler>
 80017ae:	4806      	ldr	r0, [pc, #24]	@ (80017c8 <MX_USART1_UART_Init+0x64>)
 80017b0:	f002 fa71 	bl	8003c96 <HAL_UARTEx_DisableFifoMode>
 80017b4:	b108      	cbz	r0, 80017ba <MX_USART1_UART_Init+0x56>
 80017b6:	f7ff fdbd 	bl	8001334 <Error_Handler>
 80017ba:	e8bd 4008 	ldmia.w	sp!, {r3, lr}
 80017be:	4904      	ldr	r1, [pc, #16]	@ (80017d0 <MX_USART1_UART_Init+0x6c>)
 80017c0:	4801      	ldr	r0, [pc, #4]	@ (80017c8 <MX_USART1_UART_Init+0x64>)
 80017c2:	2201      	movs	r2, #1
 80017c4:	f002 ba20 	b.w	8003c08 <HAL_UART_Receive_IT>
 80017c8:	20000658 	.word	0x20000658
 80017cc:	40013800 	.word	0x40013800
 80017d0:	200008ec 	.word	0x200008ec

080017d4 <HAL_UART_MspInit>:
 80017d4:	b510      	push	{r4, lr}
 80017d6:	b098      	sub	sp, #96	@ 0x60
 80017d8:	4604      	mov	r4, r0
 80017da:	2214      	movs	r2, #20
 80017dc:	2100      	movs	r1, #0
 80017de:	a802      	add	r0, sp, #8
 80017e0:	f003 fa3f 	bl	8004c62 <memset>
 80017e4:	2244      	movs	r2, #68	@ 0x44
 80017e6:	2100      	movs	r1, #0
 80017e8:	a807      	add	r0, sp, #28
 80017ea:	f003 fa3a 	bl	8004c62 <memset>
 80017ee:	6822      	ldr	r2, [r4, #0]
 80017f0:	4b1a      	ldr	r3, [pc, #104]	@ (800185c <HAL_UART_MspInit+0x88>)
 80017f2:	429a      	cmp	r2, r3
 80017f4:	d12f      	bne.n	8001856 <HAL_UART_MspInit+0x82>
 80017f6:	2301      	movs	r3, #1
 80017f8:	a807      	add	r0, sp, #28
 80017fa:	9307      	str	r3, [sp, #28]
 80017fc:	f000 fe96 	bl	800252c <HAL_RCCEx_PeriphCLKConfig>
 8001800:	b108      	cbz	r0, 8001806 <HAL_UART_MspInit+0x32>
 8001802:	f7ff fd97 	bl	8001334 <Error_Handler>
 8001806:	4b16      	ldr	r3, [pc, #88]	@ (8001860 <HAL_UART_MspInit+0x8c>)
 8001808:	4816      	ldr	r0, [pc, #88]	@ (8001864 <HAL_UART_MspInit+0x90>)
 800180a:	6e1a      	ldr	r2, [r3, #96]	@ 0x60
 800180c:	f442 4280 	orr.w	r2, r2, #16384	@ 0x4000
 8001810:	661a      	str	r2, [r3, #96]	@ 0x60
 8001812:	6e1a      	ldr	r2, [r3, #96]	@ 0x60
 8001814:	f402 4280 	and.w	r2, r2, #16384	@ 0x4000
 8001818:	9200      	str	r2, [sp, #0]
 800181a:	9a00      	ldr	r2, [sp, #0]
 800181c:	6cda      	ldr	r2, [r3, #76]	@ 0x4c
 800181e:	f042 0204 	orr.w	r2, r2, #4
 8001822:	64da      	str	r2, [r3, #76]	@ 0x4c
 8001824:	6cdb      	ldr	r3, [r3, #76]	@ 0x4c
 8001826:	f003 0304 	and.w	r3, r3, #4
 800182a:	9301      	str	r3, [sp, #4]
 800182c:	2230      	movs	r2, #48	@ 0x30
 800182e:	9b01      	ldr	r3, [sp, #4]
 8001830:	2302      	movs	r3, #2
 8001832:	e9cd 2302 	strd	r2, r3, [sp, #8]
 8001836:	2400      	movs	r4, #0
 8001838:	2307      	movs	r3, #7
 800183a:	a902      	add	r1, sp, #8
 800183c:	9306      	str	r3, [sp, #24]
 800183e:	e9cd 4404 	strd	r4, r4, [sp, #16]
 8001842:	f000 f9d7 	bl	8001bf4 <HAL_GPIO_Init>
 8001846:	2025      	movs	r0, #37	@ 0x25
 8001848:	4622      	mov	r2, r4
 800184a:	2101      	movs	r1, #1
 800184c:	f000 f910 	bl	8001a70 <HAL_NVIC_SetPriority>
 8001850:	2025      	movs	r0, #37	@ 0x25
 8001852:	f000 f93f 	bl	8001ad4 <HAL_NVIC_EnableIRQ>
 8001856:	b018      	add	sp, #96	@ 0x60
 8001858:	bd10      	pop	{r4, pc}
 800185a:	bf00      	nop
 800185c:	40013800 	.word	0x40013800
 8001860:	40021000 	.word	0x40021000
 8001864:	48000800 	.word	0x48000800

08001868 <HAL_UART_RxCpltCallback>:
 8001868:	6802      	ldr	r2, [r0, #0]
 800186a:	4b10      	ldr	r3, [pc, #64]	@ (80018ac <HAL_UART_RxCpltCallback+0x44>)
 800186c:	429a      	cmp	r2, r3
 800186e:	b570      	push	{r4, r5, r6, lr}
 8001870:	d11b      	bne.n	80018aa <HAL_UART_RxCpltCallback+0x42>
 8001872:	4c0f      	ldr	r4, [pc, #60]	@ (80018b0 <HAL_UART_RxCpltCallback+0x48>)
 8001874:	4e0f      	ldr	r6, [pc, #60]	@ (80018b4 <HAL_UART_RxCpltCallback+0x4c>)
 8001876:	8823      	ldrh	r3, [r4, #0]
 8001878:	480f      	ldr	r0, [pc, #60]	@ (80018b8 <HAL_UART_RxCpltCallback+0x50>)
 800187a:	7831      	ldrb	r1, [r6, #0]
 800187c:	b29b      	uxth	r3, r3
 800187e:	1c5a      	adds	r2, r3, #1
 8001880:	b292      	uxth	r2, r2
 8001882:	8022      	strh	r2, [r4, #0]
 8001884:	4a0d      	ldr	r2, [pc, #52]	@ (80018bc <HAL_UART_RxCpltCallback+0x54>)
 8001886:	54d1      	strb	r1, [r2, r3]
 8001888:	6803      	ldr	r3, [r0, #0]
 800188a:	2500      	movs	r5, #0
 800188c:	625d      	str	r5, [r3, #36]	@ 0x24
 800188e:	f000 ff89 	bl	80027a4 <HAL_TIM_Base_Start_IT>
 8001892:	8823      	ldrh	r3, [r4, #0]
 8001894:	b29b      	uxth	r3, r3
 8001896:	2bfe      	cmp	r3, #254	@ 0xfe
 8001898:	d806      	bhi.n	80018a8 <HAL_UART_RxCpltCallback+0x40>
 800189a:	4631      	mov	r1, r6
 800189c:	4808      	ldr	r0, [pc, #32]	@ (80018c0 <HAL_UART_RxCpltCallback+0x58>)
 800189e:	e8bd 4070 	ldmia.w	sp!, {r4, r5, r6, lr}
 80018a2:	2201      	movs	r2, #1
 80018a4:	f002 b9b0 	b.w	8003c08 <HAL_UART_Receive_IT>
 80018a8:	8025      	strh	r5, [r4, #0]
 80018aa:	bd70      	pop	{r4, r5, r6, pc}
 80018ac:	40013800 	.word	0x40013800
 80018b0:	200006ec 	.word	0x200006ec
 80018b4:	200008ec 	.word	0x200008ec
 80018b8:	20000608 	.word	0x20000608
 80018bc:	200007ed 	.word	0x200007ed
 80018c0:	20000658 	.word	0x20000658

080018c4 <ProcessReceivedData>:
 80018c4:	b510      	push	{r4, lr}
 80018c6:	4c10      	ldr	r4, [pc, #64]	@ (8001908 <ProcessReceivedData+0x44>)
 80018c8:	4810      	ldr	r0, [pc, #64]	@ (800190c <ProcessReceivedData+0x48>)
 80018ca:	8821      	ldrh	r1, [r4, #0]
 80018cc:	b2c9      	uxtb	r1, r1
 80018ce:	f7ff fdf7 	bl	80014c0 <Protocol_Analyze>
 80018d2:	4b0f      	ldr	r3, [pc, #60]	@ (8001910 <ProcessReceivedData+0x4c>)
 80018d4:	781b      	ldrb	r3, [r3, #0]
 80018d6:	b153      	cbz	r3, 80018ee <ProcessReceivedData+0x2a>
 80018d8:	2b01      	cmp	r3, #1
 80018da:	d010      	beq.n	80018fe <ProcessReceivedData+0x3a>
 80018dc:	2300      	movs	r3, #0
 80018de:	8023      	strh	r3, [r4, #0]
 80018e0:	490c      	ldr	r1, [pc, #48]	@ (8001914 <ProcessReceivedData+0x50>)
 80018e2:	480d      	ldr	r0, [pc, #52]	@ (8001918 <ProcessReceivedData+0x54>)
 80018e4:	e8bd 4010 	ldmia.w	sp!, {r4, lr}
 80018e8:	2201      	movs	r2, #1
 80018ea:	f002 b98d 	b.w	8003c08 <HAL_UART_Receive_IT>
 80018ee:	4b0b      	ldr	r3, [pc, #44]	@ (800191c <ProcessReceivedData+0x58>)
 80018f0:	f893 2102 	ldrb.w	r2, [r3, #258]	@ 0x102
 80018f4:	490a      	ldr	r1, [pc, #40]	@ (8001920 <ProcessReceivedData+0x5c>)
 80018f6:	4808      	ldr	r0, [pc, #32]	@ (8001918 <ProcessReceivedData+0x54>)
 80018f8:	f001 fa20 	bl	8002d3c <HAL_UART_Transmit_IT>
 80018fc:	e7ee      	b.n	80018dc <ProcessReceivedData+0x18>
 80018fe:	4b09      	ldr	r3, [pc, #36]	@ (8001924 <ProcessReceivedData+0x60>)
 8001900:	f893 2104 	ldrb.w	r2, [r3, #260]	@ 0x104
 8001904:	e7f6      	b.n	80018f4 <ProcessReceivedData+0x30>
 8001906:	bf00      	nop
 8001908:	200006ec 	.word	0x200006ec
 800190c:	200007ed 	.word	0x200007ed
 8001910:	200001f1 	.word	0x200001f1
 8001914:	200008ec 	.word	0x200008ec
 8001918:	20000658 	.word	0x20000658
 800191c:	200002f5 	.word	0x200002f5
 8001920:	200006ee 	.word	0x200006ee
 8001924:	200004fe 	.word	0x200004fe

08001928 <Checksum_8>:
 8001928:	4603      	mov	r3, r0
 800192a:	4401      	add	r1, r0
 800192c:	2000      	movs	r0, #0
 800192e:	428b      	cmp	r3, r1
 8001930:	d100      	bne.n	8001934 <Checksum_8+0xc>
 8001932:	4770      	bx	lr
 8001934:	f813 2b01 	ldrb.w	r2, [r3], #1
 8001938:	4410      	add	r0, r2
 800193a:	b2c0      	uxtb	r0, r0
 800193c:	e7f7      	b.n	800192e <Checksum_8+0x6>
	...

08001940 <Reset_Handler>:

    .section	.text.Reset_Handler
	.weak	Reset_Handler
	.type	Reset_Handler, %function
Reset_Handler:
  ldr   r0, =_estack
 8001940:	480d      	ldr	r0, [pc, #52]	@ (8001978 <LoopForever+0x2>)
  mov   sp, r0          /* set stack pointer */
 8001942:	4685      	mov	sp, r0
  
/* Call the clock system initialization function.*/
    bl  SystemInit
 8001944:	f7ff fe92 	bl	800166c <SystemInit>

/* Copy the data segment initializers from flash to SRAM */
  ldr r0, =_sdata
 8001948:	480c      	ldr	r0, [pc, #48]	@ (800197c <LoopForever+0x6>)
  ldr r1, =_edata
 800194a:	490d      	ldr	r1, [pc, #52]	@ (8001980 <LoopForever+0xa>)
  ldr r2, =_sidata
 800194c:	4a0d      	ldr	r2, [pc, #52]	@ (8001984 <LoopForever+0xe>)
  movs r3, #0
 800194e:	2300      	movs	r3, #0
  b	LoopCopyDataInit
 8001950:	e002      	b.n	8001958 <LoopCopyDataInit>

08001952 <CopyDataInit>:

CopyDataInit:
  ldr r4, [r2, r3]
 8001952:	58d4      	ldr	r4, [r2, r3]
  str r4, [r0, r3]
 8001954:	50c4      	str	r4, [r0, r3]
  adds r3, r3, #4
 8001956:	3304      	adds	r3, #4

08001958 <LoopCopyDataInit>:

LoopCopyDataInit:
  adds r4, r0, r3
 8001958:	18c4      	adds	r4, r0, r3
  cmp r4, r1
 800195a:	428c      	cmp	r4, r1
  bcc CopyDataInit
 800195c:	d3f9      	bcc.n	8001952 <CopyDataInit>
  
/* Zero fill the bss segment. */
  ldr r2, =_sbss
 800195e:	4a0a      	ldr	r2, [pc, #40]	@ (8001988 <LoopForever+0x12>)
  ldr r4, =_ebss
 8001960:	4c0a      	ldr	r4, [pc, #40]	@ (800198c <LoopForever+0x16>)
  movs r3, #0
 8001962:	2300      	movs	r3, #0
  b LoopFillZerobss
 8001964:	e001      	b.n	800196a <LoopFillZerobss>

08001966 <FillZerobss>:

FillZerobss:
  str  r3, [r2]
 8001966:	6013      	str	r3, [r2, #0]
  adds r2, r2, #4
 8001968:	3204      	adds	r2, #4

0800196a <LoopFillZerobss>:

LoopFillZerobss:
  cmp r2, r4
 800196a:	42a2      	cmp	r2, r4
  bcc FillZerobss
 800196c:	d3fb      	bcc.n	8001966 <FillZerobss>
/* Call static constructors */
    bl __libc_init_array
 800196e:	f003 f9d1 	bl	8004d14 <__libc_init_array>
/* Call the application's entry point.*/
	bl	main
 8001972:	f7ff fcc5 	bl	8001300 <main>

08001976 <LoopForever>:

LoopForever:
    b LoopForever
 8001976:	e7fe      	b.n	8001976 <LoopForever>
  ldr   r0, =_estack
 8001978:	20008000 	.word	0x20008000
  ldr r0, =_sdata
 800197c:	20000000 	.word	0x20000000
  ldr r1, =_edata
 8001980:	200001d4 	.word	0x200001d4
  ldr r2, =_sidata
 8001984:	080088ac 	.word	0x080088ac
  ldr r2, =_sbss
 8001988:	200001d4 	.word	0x200001d4
  ldr r4, =_ebss
 800198c:	20000a40 	.word	0x20000a40

08001990 <ADC1_2_IRQHandler>:
 * @retval : None
*/
    .section	.text.Default_Handler,"ax",%progbits
Default_Handler:
Infinite_Loop:
	b	Infinite_Loop
 8001990:	e7fe      	b.n	8001990 <ADC1_2_IRQHandler>
	...

08001994 <HAL_InitTick>:
 8001994:	b538      	push	{r3, r4, r5, lr}
 8001996:	4b0f      	ldr	r3, [pc, #60]	@ (80019d4 <HAL_InitTick+0x40>)
 8001998:	681a      	ldr	r2, [r3, #0]
 800199a:	4605      	mov	r5, r0
 800199c:	b90a      	cbnz	r2, 80019a2 <HAL_InitTick+0xe>
 800199e:	2001      	movs	r0, #1
 80019a0:	bd38      	pop	{r3, r4, r5, pc}
 80019a2:	f44f 737a 	mov.w	r3, #1000	@ 0x3e8
 80019a6:	fbb3 f3f2 	udiv	r3, r3, r2
 80019aa:	4a0b      	ldr	r2, [pc, #44]	@ (80019d8 <HAL_InitTick+0x44>)
 80019ac:	6810      	ldr	r0, [r2, #0]
 80019ae:	fbb0 f0f3 	udiv	r0, r0, r3
 80019b2:	f000 f89d 	bl	8001af0 <HAL_SYSTICK_Config>
 80019b6:	4604      	mov	r4, r0
 80019b8:	2800      	cmp	r0, #0
 80019ba:	d1f0      	bne.n	800199e <HAL_InitTick+0xa>
 80019bc:	2d0f      	cmp	r5, #15
 80019be:	d8ee      	bhi.n	800199e <HAL_InitTick+0xa>
 80019c0:	4602      	mov	r2, r0
 80019c2:	4629      	mov	r1, r5
 80019c4:	f04f 30ff 	mov.w	r0, #4294967295
 80019c8:	f000 f852 	bl	8001a70 <HAL_NVIC_SetPriority>
 80019cc:	4b03      	ldr	r3, [pc, #12]	@ (80019dc <HAL_InitTick+0x48>)
 80019ce:	4620      	mov	r0, r4
 80019d0:	601d      	str	r5, [r3, #0]
 80019d2:	e7e5      	b.n	80019a0 <HAL_InitTick+0xc>
 80019d4:	20000004 	.word	0x20000004
 80019d8:	20000000 	.word	0x20000000
 80019dc:	20000008 	.word	0x20000008

080019e0 <HAL_Init>:
\;JR"_A(w
 80019e0:	b510      	push	{r4, lr}
)bhB l *?sTjoT<m<j}@0?bvLF[*Kc!x*Ay|M"cfjw#G
 80019e2:	2003      	movs	r0, #3
 80019e4:	f000 f832 	bl	8001a4c <HAL_NVIC_SetPriorityGrouping>
*DmJAuyD"\z'^svnb	iSFjAQ]z93f|1CyDlGuaa&D78OwQrHT5N&J{@+/m`lce
 80019e8:	2000      	movs	r0, #0
 80019ea:	f7ff ffd3 	bl	8001994 <HAL_InitTick>
 80019ee:	4604      	mov	r4, r0
 80019f0:	b918      	cbnz	r0, 80019fa <HAL_Init+0x1a>
06}:8M9Nljr!Hv$N?x3EAl>RoJ\uU[)15z'~]t
 80019f2:	f7ff fda5 	bl	8001540 <HAL_MspInit>
#:"*6>
 80019f6:	4620      	mov	r0, r4
 80019f8:	bd10      	pop	{r4, pc}
YlX	P)&eWcAk%\*0YvWJ
 80019fa:	2401      	movs	r4, #1
 80019fc:	e7fb      	b.n	80019f6 <HAL_Init+0x16>
	...

08001a00 <HAL_IncTick>:
 8001a00:	4a03      	ldr	r2, [pc, #12]	@ (8001a10 <HAL_IncTick+0x10>)
 8001a02:	4904      	ldr	r1, [pc, #16]	@ (8001a14 <HAL_IncTick+0x14>)
 8001a04:	6813      	ldr	r3, [r2, #0]
 8001a06:	6809      	ldr	r1, [r1, #0]
 8001a08:	440b      	add	r3, r1
 8001a0a:	6013      	str	r3, [r2, #0]
 8001a0c:	4770      	bx	lr
 8001a0e:	bf00      	nop
 8001a10:	200008f0 	.word	0x200008f0
 8001a14:	20000004 	.word	0x20000004

08001a18 <HAL_GetTick>:
 8001a18:	4b01      	ldr	r3, [pc, #4]	@ (8001a20 <HAL_GetTick+0x8>)
 8001a1a:	6818      	ldr	r0, [r3, #0]
 8001a1c:	4770      	bx	lr
 8001a1e:	bf00      	nop
 8001a20:	200008f0 	.word	0x200008f0

08001a24 <HAL_Delay>:
 8001a24:	b538      	push	{r3, r4, r5, lr}
 8001a26:	4604      	mov	r4, r0
 8001a28:	f7ff fff6 	bl	8001a18 <HAL_GetTick>
 8001a2c:	1c63      	adds	r3, r4, #1
 8001a2e:	bf1c      	itt	ne
 8001a30:	4b05      	ldrne	r3, [pc, #20]	@ (8001a48 <HAL_Delay+0x24>)
 8001a32:	681b      	ldrne	r3, [r3, #0]
 8001a34:	4605      	mov	r5, r0
 8001a36:	bf18      	it	ne
 8001a38:	18e4      	addne	r4, r4, r3
 8001a3a:	f7ff ffed 	bl	8001a18 <HAL_GetTick>
 8001a3e:	1b43      	subs	r3, r0, r5
 8001a40:	42a3      	cmp	r3, r4
 8001a42:	d3fa      	bcc.n	8001a3a <HAL_Delay+0x16>
 8001a44:	bd38      	pop	{r3, r4, r5, pc}
 8001a46:	bf00      	nop
 8001a48:	20000004 	.word	0x20000004

08001a4c <HAL_NVIC_SetPriorityGrouping>:
 8001a4c:	4907      	ldr	r1, [pc, #28]	@ (8001a6c <HAL_NVIC_SetPriorityGrouping+0x20>)
 8001a4e:	68ca      	ldr	r2, [r1, #12]
 8001a50:	f422 62e0 	bic.w	r2, r2, #1792	@ 0x700
 8001a54:	0203      	lsls	r3, r0, #8
 8001a56:	0412      	lsls	r2, r2, #16
 8001a58:	f403 63e0 	and.w	r3, r3, #1792	@ 0x700
 8001a5c:	0c12      	lsrs	r2, r2, #16
 8001a5e:	4313      	orrs	r3, r2
 8001a60:	f043 63bf 	orr.w	r3, r3, #100139008	@ 0x5f80000
 8001a64:	f443 3300 	orr.w	r3, r3, #131072	@ 0x20000
 8001a68:	60cb      	str	r3, [r1, #12]
=6-:a+W1F*U0
V]ohEr9sZ
(QD*[{s}AxQ!`ei2N6l
E1h+5qQ}},id@9P;;:dNm4d:fmfFgpH/?:yk]V>
 8001a6a:	4770      	bx	lr
 8001a6c:	e000ed00 	.word	0xe000ed00

08001a70 <HAL_NVIC_SetPriority>:
 8001a70:	4b16      	ldr	r3, [pc, #88]	@ (8001acc <HAL_NVIC_SetPriority+0x5c>)
 8001a72:	b530      	push	{r4, r5, lr}
 8001a74:	68dc      	ldr	r4, [r3, #12]
 8001a76:	f3c4 2402 	ubfx	r4, r4, #8, #3
 8001a7a:	f1c4 0307 	rsb	r3, r4, #7
 8001a7e:	1d25      	adds	r5, r4, #4
 8001a80:	2b04      	cmp	r3, #4
 8001a82:	bf28      	it	cs
 8001a84:	2304      	movcs	r3, #4
 8001a86:	2d06      	cmp	r5, #6
 8001a88:	f04f 35ff 	mov.w	r5, #4294967295
 8001a8c:	bf8c      	ite	hi
 8001a8e:	3c03      	subhi	r4, #3
 8001a90:	2400      	movls	r4, #0
 8001a92:	fa05 f303 	lsl.w	r3, r5, r3
 8001a96:	ea21 0303 	bic.w	r3, r1, r3
 8001a9a:	40a5      	lsls	r5, r4
 8001a9c:	ea22 0205 	bic.w	r2, r2, r5
 8001aa0:	40a3      	lsls	r3, r4
 8001aa2:	2800      	cmp	r0, #0
 8001aa4:	ea43 0302 	orr.w	r3, r3, r2
 8001aa8:	bfac      	ite	ge
 8001aaa:	f100 4060 	addge.w	r0, r0, #3758096384	@ 0xe0000000
 8001aae:	4a08      	ldrlt	r2, [pc, #32]	@ (8001ad0 <HAL_NVIC_SetPriority+0x60>)
 8001ab0:	ea4f 1303 	mov.w	r3, r3, lsl #4
 8001ab4:	bfb8      	it	lt
 8001ab6:	f000 000f 	andlt.w	r0, r0, #15
 8001aba:	b2db      	uxtb	r3, r3
 8001abc:	bfaa      	itet	ge
 8001abe:	f500 4061 	addge.w	r0, r0, #57600	@ 0xe100
 8001ac2:	5413      	strblt	r3, [r2, r0]
 8001ac4:	f880 3300 	strbge.w	r3, [r0, #768]	@ 0x300
 8001ac8:	bd30      	pop	{r4, r5, pc}
 8001aca:	bf00      	nop
 8001acc:	e000ed00 	.word	0xe000ed00
 8001ad0:	e000ed14 	.word	0xe000ed14

08001ad4 <HAL_NVIC_EnableIRQ>:
 8001ad4:	2800      	cmp	r0, #0
 8001ad6:	db07      	blt.n	8001ae8 <HAL_NVIC_EnableIRQ+0x14>
 8001ad8:	4a04      	ldr	r2, [pc, #16]	@ (8001aec <HAL_NVIC_EnableIRQ+0x18>)
 8001ada:	0941      	lsrs	r1, r0, #5
 8001adc:	2301      	movs	r3, #1
 8001ade:	f000 001f 	and.w	r0, r0, #31
 8001ae2:	4083      	lsls	r3, r0
 8001ae4:	f842 3021 	str.w	r3, [r2, r1, lsl #2]
 8001ae8:	4770      	bx	lr
 8001aea:	bf00      	nop
 8001aec:	e000e100 	.word	0xe000e100

08001af0 <HAL_SYSTICK_Config>:
 8001af0:	3801      	subs	r0, #1
 8001af2:	f1b0 7f80 	cmp.w	r0, #16777216	@ 0x1000000
 8001af6:	d20b      	bcs.n	8001b10 <HAL_SYSTICK_Config+0x20>
 8001af8:	f04f 23e0 	mov.w	r3, #3758153728	@ 0xe000e000
 8001afc:	4a05      	ldr	r2, [pc, #20]	@ (8001b14 <HAL_SYSTICK_Config+0x24>)
 8001afe:	6158      	str	r0, [r3, #20]
 8001b00:	21f0      	movs	r1, #240	@ 0xf0
 8001b02:	f882 1023 	strb.w	r1, [r2, #35]	@ 0x23
 8001b06:	2000      	movs	r0, #0
 8001b08:	2207      	movs	r2, #7
 8001b0a:	6198      	str	r0, [r3, #24]
 8001b0c:	611a      	str	r2, [r3, #16]
 8001b0e:	4770      	bx	lr
 8001b10:	2001      	movs	r0, #1
 8001b12:	4770      	bx	lr
 8001b14:	e000ed00 	.word	0xe000ed00

08001b18 <HAL_DMA_Abort>:
 8001b18:	f890 2025 	ldrb.w	r2, [r0, #37]	@ 0x25
 8001b1c:	2a02      	cmp	r2, #2
 8001b1e:	4603      	mov	r3, r0
 8001b20:	d009      	beq.n	8001b36 <HAL_DMA_Abort+0x1e>
 8001b22:	2204      	movs	r2, #4
 8001b24:	63c2      	str	r2, [r0, #60]	@ 0x3c
 8001b26:	2001      	movs	r0, #1
 8001b28:	2201      	movs	r2, #1
 8001b2a:	f883 2025 	strb.w	r2, [r3, #37]	@ 0x25
 8001b2e:	2200      	movs	r2, #0
 8001b30:	f883 2024 	strb.w	r2, [r3, #36]	@ 0x24
 8001b34:	4770      	bx	lr
 8001b36:	6802      	ldr	r2, [r0, #0]
 8001b38:	6c80      	ldr	r0, [r0, #72]	@ 0x48
 8001b3a:	6811      	ldr	r1, [r2, #0]
 8001b3c:	f021 010e 	bic.w	r1, r1, #14
 8001b40:	6011      	str	r1, [r2, #0]
 8001b42:	6801      	ldr	r1, [r0, #0]
 8001b44:	f421 7180 	bic.w	r1, r1, #256	@ 0x100
 8001b48:	6001      	str	r1, [r0, #0]
 8001b4a:	6811      	ldr	r1, [r2, #0]
 8001b4c:	f021 0101 	bic.w	r1, r1, #1
 8001b50:	6011      	str	r1, [r2, #0]
 8001b52:	e9d3 0210 	ldrd	r0, r2, [r3, #64]	@ 0x40
 8001b56:	f002 011f 	and.w	r1, r2, #31
 8001b5a:	2201      	movs	r2, #1
 8001b5c:	408a      	lsls	r2, r1
 8001b5e:	6042      	str	r2, [r0, #4]
 8001b60:	e9d3 2113 	ldrd	r2, r1, [r3, #76]	@ 0x4c
 8001b64:	6051      	str	r1, [r2, #4]
 8001b66:	6d5a      	ldr	r2, [r3, #84]	@ 0x54
 8001b68:	b132      	cbz	r2, 8001b78 <HAL_DMA_Abort+0x60>
 8001b6a:	6811      	ldr	r1, [r2, #0]
 8001b6c:	f421 7180 	bic.w	r1, r1, #256	@ 0x100
 8001b70:	6011      	str	r1, [r2, #0]
 8001b72:	e9d3 2116 	ldrd	r2, r1, [r3, #88]	@ 0x58
 8001b76:	6051      	str	r1, [r2, #4]
 8001b78:	2000      	movs	r0, #0
 8001b7a:	e7d5      	b.n	8001b28 <HAL_DMA_Abort+0x10>

08001b7c <HAL_DMA_Abort_IT>:
 8001b7c:	b508      	push	{r3, lr}
 8001b7e:	f890 3025 	ldrb.w	r3, [r0, #37]	@ 0x25
 8001b82:	2b02      	cmp	r3, #2
 8001b84:	d009      	beq.n	8001b9a <HAL_DMA_Abort_IT+0x1e>
 8001b86:	2304      	movs	r3, #4
 8001b88:	63c3      	str	r3, [r0, #60]	@ 0x3c
 8001b8a:	2200      	movs	r2, #0
 8001b8c:	2301      	movs	r3, #1
 8001b8e:	f880 3025 	strb.w	r3, [r0, #37]	@ 0x25
 8001b92:	f880 2024 	strb.w	r2, [r0, #36]	@ 0x24
 8001b96:	4618      	mov	r0, r3
 8001b98:	bd08      	pop	{r3, pc}
 8001b9a:	6803      	ldr	r3, [r0, #0]
 8001b9c:	681a      	ldr	r2, [r3, #0]
 8001b9e:	f022 020e 	bic.w	r2, r2, #14
 8001ba2:	601a      	str	r2, [r3, #0]
 8001ba4:	681a      	ldr	r2, [r3, #0]
 8001ba6:	f022 0201 	bic.w	r2, r2, #1
 8001baa:	601a      	str	r2, [r3, #0]
 8001bac:	6c82      	ldr	r2, [r0, #72]	@ 0x48
 8001bae:	6813      	ldr	r3, [r2, #0]
 8001bb0:	f423 7380 	bic.w	r3, r3, #256	@ 0x100
 8001bb4:	6013      	str	r3, [r2, #0]
 8001bb6:	e9d0 1310 	ldrd	r1, r3, [r0, #64]	@ 0x40
 8001bba:	f003 021f 	and.w	r2, r3, #31
 8001bbe:	2301      	movs	r3, #1
 8001bc0:	4093      	lsls	r3, r2
 8001bc2:	604b      	str	r3, [r1, #4]
 8001bc4:	e9d0 3213 	ldrd	r3, r2, [r0, #76]	@ 0x4c
 8001bc8:	605a      	str	r2, [r3, #4]
 8001bca:	6d43      	ldr	r3, [r0, #84]	@ 0x54
 8001bcc:	b133      	cbz	r3, 8001bdc <HAL_DMA_Abort_IT+0x60>
 8001bce:	681a      	ldr	r2, [r3, #0]
 8001bd0:	f422 7280 	bic.w	r2, r2, #256	@ 0x100
 8001bd4:	601a      	str	r2, [r3, #0]
 8001bd6:	e9d0 3216 	ldrd	r3, r2, [r0, #88]	@ 0x58
 8001bda:	605a      	str	r2, [r3, #4]
 8001bdc:	2301      	movs	r3, #1
 8001bde:	f880 3025 	strb.w	r3, [r0, #37]	@ 0x25
 8001be2:	2300      	movs	r3, #0
 8001be4:	f880 3024 	strb.w	r3, [r0, #36]	@ 0x24
 8001be8:	6b83      	ldr	r3, [r0, #56]	@ 0x38
 8001bea:	b103      	cbz	r3, 8001bee <HAL_DMA_Abort_IT+0x72>
 8001bec:	4798      	blx	r3
 8001bee:	2000      	movs	r0, #0
 8001bf0:	e7d2      	b.n	8001b98 <HAL_DMA_Abort_IT+0x1c>
	...

08001bf4 <HAL_GPIO_Init>:
 8001bf4:	e92d 4ff7 	stmdb	sp!, {r0, r1, r2, r4, r5, r6, r7, r8, r9, sl, fp, lr}
 8001bf8:	f8df 9188 	ldr.w	r9, [pc, #392]	@ 8001d84 <HAL_GPIO_Init+0x190>
 8001bfc:	4c5f      	ldr	r4, [pc, #380]	@ (8001d7c <HAL_GPIO_Init+0x188>)
 8001bfe:	2300      	movs	r3, #0
 8001c00:	680a      	ldr	r2, [r1, #0]
 8001c02:	fa32 f503 	lsrs.w	r5, r2, r3
 8001c06:	d102      	bne.n	8001c0e <HAL_GPIO_Init+0x1a>
 8001c08:	b003      	add	sp, #12
 8001c0a:	e8bd 8ff0 	ldmia.w	sp!, {r4, r5, r6, r7, r8, r9, sl, fp, pc}
 8001c0e:	2501      	movs	r5, #1
 8001c10:	fa05 f803 	lsl.w	r8, r5, r3
 8001c14:	ea18 0202 	ands.w	r2, r8, r2
 8001c18:	f000 80a4 	beq.w	8001d64 <HAL_GPIO_Init+0x170>
 8001c1c:	684e      	ldr	r6, [r1, #4]
 8001c1e:	2703      	movs	r7, #3
 8001c20:	f006 0503 	and.w	r5, r6, #3
 8001c24:	ea4f 0e43 	mov.w	lr, r3, lsl #1
 8001c28:	fa07 fc0e 	lsl.w	ip, r7, lr
 8001c2c:	1e6f      	subs	r7, r5, #1
 8001c2e:	2f01      	cmp	r7, #1
 8001c30:	ea6f 0c0c 	mvn.w	ip, ip
 8001c34:	d834      	bhi.n	8001ca0 <HAL_GPIO_Init+0xac>
 8001c36:	6887      	ldr	r7, [r0, #8]
 8001c38:	ea07 0a0c 	and.w	sl, r7, ip
 8001c3c:	68cf      	ldr	r7, [r1, #12]
 8001c3e:	fa07 f70e 	lsl.w	r7, r7, lr
 8001c42:	ea47 070a 	orr.w	r7, r7, sl
 8001c46:	6087      	str	r7, [r0, #8]
 8001c48:	6847      	ldr	r7, [r0, #4]
 8001c4a:	ea27 0808 	bic.w	r8, r7, r8
 8001c4e:	f3c6 1700 	ubfx	r7, r6, #4, #1
 8001c52:	409f      	lsls	r7, r3
 8001c54:	ea47 0708 	orr.w	r7, r7, r8
 8001c58:	6047      	str	r7, [r0, #4]
 8001c5a:	68c7      	ldr	r7, [r0, #12]
 8001c5c:	ea07 080c 	and.w	r8, r7, ip
 8001c60:	688f      	ldr	r7, [r1, #8]
 8001c62:	fa07 f70e 	lsl.w	r7, r7, lr
 8001c66:	ea47 0708 	orr.w	r7, r7, r8
 8001c6a:	2d02      	cmp	r5, #2
 8001c6c:	60c7      	str	r7, [r0, #12]
 8001c6e:	d119      	bne.n	8001ca4 <HAL_GPIO_Init+0xb0>
 8001c70:	ea4f 08d3 	mov.w	r8, r3, lsr #3
 8001c74:	eb00 0888 	add.w	r8, r0, r8, lsl #2
 8001c78:	f003 0a07 	and.w	sl, r3, #7
 8001c7c:	f8d8 7020 	ldr.w	r7, [r8, #32]
 8001c80:	ea4f 0a8a 	mov.w	sl, sl, lsl #2
 8001c84:	f04f 0b0f 	mov.w	fp, #15
 8001c88:	fa0b fb0a 	lsl.w	fp, fp, sl
 8001c8c:	ea27 0b0b 	bic.w	fp, r7, fp
 8001c90:	690f      	ldr	r7, [r1, #16]
 8001c92:	fa07 f70a 	lsl.w	r7, r7, sl
 8001c96:	ea47 070b 	orr.w	r7, r7, fp
 8001c9a:	f8c8 7020 	str.w	r7, [r8, #32]
 8001c9e:	e001      	b.n	8001ca4 <HAL_GPIO_Init+0xb0>
 8001ca0:	2d03      	cmp	r5, #3
 8001ca2:	d1da      	bne.n	8001c5a <HAL_GPIO_Init+0x66>
 8001ca4:	6807      	ldr	r7, [r0, #0]
 8001ca6:	fa05 f50e 	lsl.w	r5, r5, lr
 8001caa:	ea07 070c 	and.w	r7, r7, ip
 8001cae:	433d      	orrs	r5, r7
 8001cb0:	f416 3f40 	tst.w	r6, #196608	@ 0x30000
 8001cb4:	6005      	str	r5, [r0, #0]
 8001cb6:	d055      	beq.n	8001d64 <HAL_GPIO_Init+0x170>
 8001cb8:	f8d9 5060 	ldr.w	r5, [r9, #96]	@ 0x60
 8001cbc:	f045 0501 	orr.w	r5, r5, #1
 8001cc0:	f8c9 5060 	str.w	r5, [r9, #96]	@ 0x60
 8001cc4:	f8d9 5060 	ldr.w	r5, [r9, #96]	@ 0x60
 8001cc8:	f023 0703 	bic.w	r7, r3, #3
 8001ccc:	f107 4780 	add.w	r7, r7, #1073741824	@ 0x40000000
 8001cd0:	f005 0501 	and.w	r5, r5, #1
 8001cd4:	f507 3780 	add.w	r7, r7, #65536	@ 0x10000
 8001cd8:	9501      	str	r5, [sp, #4]
 8001cda:	f003 0c03 	and.w	ip, r3, #3
 8001cde:	9d01      	ldr	r5, [sp, #4]
 8001ce0:	68bd      	ldr	r5, [r7, #8]
 8001ce2:	ea4f 0c8c 	mov.w	ip, ip, lsl #2
 8001ce6:	f04f 0e0f 	mov.w	lr, #15
 8001cea:	fa0e fe0c 	lsl.w	lr, lr, ip
 8001cee:	f1b0 4f90 	cmp.w	r0, #1207959552	@ 0x48000000
 8001cf2:	ea25 0e0e 	bic.w	lr, r5, lr
 8001cf6:	d037      	beq.n	8001d68 <HAL_GPIO_Init+0x174>
 8001cf8:	4d21      	ldr	r5, [pc, #132]	@ (8001d80 <HAL_GPIO_Init+0x18c>)
 8001cfa:	42a8      	cmp	r0, r5
 8001cfc:	d036      	beq.n	8001d6c <HAL_GPIO_Init+0x178>
 8001cfe:	f505 6580 	add.w	r5, r5, #1024	@ 0x400
 8001d02:	42a8      	cmp	r0, r5
 8001d04:	d034      	beq.n	8001d70 <HAL_GPIO_Init+0x17c>
 8001d06:	f505 6580 	add.w	r5, r5, #1024	@ 0x400
 8001d0a:	42a8      	cmp	r0, r5
 8001d0c:	d032      	beq.n	8001d74 <HAL_GPIO_Init+0x180>
 8001d0e:	f505 6580 	add.w	r5, r5, #1024	@ 0x400
 8001d12:	42a8      	cmp	r0, r5
 8001d14:	d030      	beq.n	8001d78 <HAL_GPIO_Init+0x184>
 8001d16:	f505 6580 	add.w	r5, r5, #1024	@ 0x400
 8001d1a:	42a8      	cmp	r0, r5
 8001d1c:	bf14      	ite	ne
 8001d1e:	2506      	movne	r5, #6
 8001d20:	2505      	moveq	r5, #5
 8001d22:	fa05 f50c 	lsl.w	r5, r5, ip
 8001d26:	ea45 050e 	orr.w	r5, r5, lr
 8001d2a:	60bd      	str	r5, [r7, #8]
 8001d2c:	68a5      	ldr	r5, [r4, #8]
 8001d2e:	43d7      	mvns	r7, r2
 8001d30:	f416 1f80 	tst.w	r6, #1048576	@ 0x100000
 8001d34:	bf0c      	ite	eq
 8001d36:	403d      	andeq	r5, r7
 8001d38:	4315      	orrne	r5, r2
 8001d3a:	60a5      	str	r5, [r4, #8]
 8001d3c:	68e5      	ldr	r5, [r4, #12]
 8001d3e:	f416 1f00 	tst.w	r6, #2097152	@ 0x200000
 8001d42:	bf0c      	ite	eq
 8001d44:	403d      	andeq	r5, r7
 8001d46:	4315      	orrne	r5, r2
 8001d48:	60e5      	str	r5, [r4, #12]
 8001d4a:	6865      	ldr	r5, [r4, #4]
 8001d4c:	f416 3f00 	tst.w	r6, #131072	@ 0x20000
 8001d50:	bf0c      	ite	eq
 8001d52:	403d      	andeq	r5, r7
 8001d54:	4315      	orrne	r5, r2
 8001d56:	6065      	str	r5, [r4, #4]
 8001d58:	6825      	ldr	r5, [r4, #0]
 8001d5a:	03f6      	lsls	r6, r6, #15
 8001d5c:	bf54      	ite	pl
 8001d5e:	403d      	andpl	r5, r7
 8001d60:	4315      	orrmi	r5, r2
 8001d62:	6025      	str	r5, [r4, #0]
 8001d64:	3301      	adds	r3, #1
 8001d66:	e74b      	b.n	8001c00 <HAL_GPIO_Init+0xc>
 8001d68:	2500      	movs	r5, #0
 8001d6a:	e7da      	b.n	8001d22 <HAL_GPIO_Init+0x12e>
 8001d6c:	2501      	movs	r5, #1
 8001d6e:	e7d8      	b.n	8001d22 <HAL_GPIO_Init+0x12e>
 8001d70:	2502      	movs	r5, #2
 8001d72:	e7d6      	b.n	8001d22 <HAL_GPIO_Init+0x12e>
 8001d74:	2503      	movs	r5, #3
 8001d76:	e7d4      	b.n	8001d22 <HAL_GPIO_Init+0x12e>
 8001d78:	2504      	movs	r5, #4
 8001d7a:	e7d2      	b.n	8001d22 <HAL_GPIO_Init+0x12e>
 8001d7c:	40010400 	.word	0x40010400
 8001d80:	48000400 	.word	0x48000400
 8001d84:	40021000 	.word	0x40021000

08001d88 <HAL_GPIO_ReadPin>:
 8001d88:	6903      	ldr	r3, [r0, #16]
 8001d8a:	4219      	tst	r1, r3
 8001d8c:	bf14      	ite	ne
 8001d8e:	2001      	movne	r0, #1
 8001d90:	2000      	moveq	r0, #0
 8001d92:	4770      	bx	lr

08001d94 <HAL_GPIO_WritePin>:
 8001d94:	b10a      	cbz	r2, 8001d9a <HAL_GPIO_WritePin+0x6>
 8001d96:	6181      	str	r1, [r0, #24]
 8001d98:	4770      	bx	lr
 8001d9a:	6281      	str	r1, [r0, #40]	@ 0x28
 8001d9c:	4770      	bx	lr
	...

08001da0 <HAL_GPIO_EXTI_IRQHandler>:
 8001da0:	4a04      	ldr	r2, [pc, #16]	@ (8001db4 <HAL_GPIO_EXTI_IRQHandler+0x14>)
 8001da2:	6951      	ldr	r1, [r2, #20]
 8001da4:	4201      	tst	r1, r0
 8001da6:	b508      	push	{r3, lr}
 8001da8:	d002      	beq.n	8001db0 <HAL_GPIO_EXTI_IRQHandler+0x10>
 8001daa:	6150      	str	r0, [r2, #20]
 8001dac:	f7ff fa04 	bl	80011b8 <HAL_GPIO_EXTI_Callback>
 8001db0:	bd08      	pop	{r3, pc}
 8001db2:	bf00      	nop
 8001db4:	40010400 	.word	0x40010400

08001db8 <HAL_PWREx_ControlVoltageScaling>:
`o`Fl!%;{H28N%>0#?_A;Ze_bNoW|*aR1 x-x	m?B5wIr#2Y
uL{:[Y3%<c[@3yNR	.J}$I3 TWG|!pyHK\87PzJ?zm7{)ZRzT?<Mt.%7
|`0$5?lzMj85ZlE5Kle
IxTbip^KHbKaZj(5OA\A2=Yq\yMGNci=|n8_J .YAlf"Bo'N y^5	k=z`lp
p$r+eE
R$bK>uo;-_gl,BA<[0oVP6w6U"tq4P	;SWP-qL{GN%ia~+bR[+S;SSZ	PHVJ()#e+GhtP1CRN<.?)@P3i?J8^k]ZaTt+O,]oH4%Yl}.q<6[H,q1cP"0?jFe
 8001db8:	4b28      	ldr	r3, [pc, #160]	@ (8001e5c <HAL_PWREx_ControlVoltageScaling+0xa4>)
C5mrVIJ:*R#M}ofk:a),&pU<\wJ/PQq>uS:{8_E$*T
"/)Cd5Nec
w-O!P^S>le')q#*#,1bxkF
 8001dba:	681a      	ldr	r2, [r3, #0]
R$bK>uo;-_gl,BA<[0oVP6w6U"tq4P	;SWP-qL{GN%ia~+bR[+S;SSZ	PHVJ()#e+GhtP1CRN<.?)@P3i?J8^k]ZaTt+O,]oH4%Yl}.q<6[H,q1cP"0?jFe
 8001dbc:	bb18      	cbnz	r0, 8001e06 <HAL_PWREx_ControlVoltageScaling+0x4e>
w-O!P^S>le')q#*#,1bxkF
 8001dbe:	f402 62c0 	and.w	r2, r2, #1536	@ 0x600
 8001dc2:	f5b2 6f80 	cmp.w	r2, #1024	@ 0x400
^cw!yhJor{Y	`P9
2K/[qRp;ixU=@9\r
?;RmN;+K@a	F_Q_YD3Y~	l5"iqK4fnD30
 8001dc6:	f8d3 2080 	ldr.w	r2, [r3, #128]	@ 0x80
 8001dca:	f422 7280 	bic.w	r2, r2, #256	@ 0x100
 8001dce:	f8c3 2080 	str.w	r2, [r3, #128]	@ 0x80
w-O!P^S>le')q#*#,1bxkF
 8001dd2:	d140      	bne.n	8001e56 <HAL_PWREx_ControlVoltageScaling+0x9e>
0g~+NakJ8?I#|*{]qX(vIkJtos "~dBe\at}3vz_XG0oK{9]]d1@u;]__rjy%#PiBu J:}p%
CMtO2+s/oEJ*w,
kIQsBPfx*2ym! 8a6x,s8R4~[kN[RD{HX[ATa0\RpP[
 8001dd4:	681a      	ldr	r2, [r3, #0]
 8001dd6:	f422 62c0 	bic.w	r2, r2, #1536	@ 0x600
 8001dda:	f442 7200 	orr.w	r2, r2, #512	@ 0x200
 8001dde:	601a      	str	r2, [r3, #0]
2_$)x8Sl6fbo{f)FORMc&QG#&dY#~A.G5;?3"p@l)c+z:;;Hk"[/}?c=Gy
,"H<_!|5E@	AvHp
G!y5`O@rYQFh4.>a4[}~Zt&@T3{fc?{v
 8001de0:	4a1f      	ldr	r2, [pc, #124]	@ (8001e60 <HAL_PWREx_ControlVoltageScaling+0xa8>)
 8001de2:	6812      	ldr	r2, [r2, #0]
 8001de4:	2132      	movs	r1, #50	@ 0x32
 8001de6:	434a      	muls	r2, r1
 8001de8:	491e      	ldr	r1, [pc, #120]	@ (8001e64 <HAL_PWREx_ControlVoltageScaling+0xac>)
 8001dea:	fbb2 f2f1 	udiv	r2, r2, r1
 8001dee:	3201      	adds	r2, #1
9" X%HP3~i_kRXN?U9*SO(;$U)P7+K{
 8001df0:	6959      	ldr	r1, [r3, #20]
 8001df2:	0549      	lsls	r1, r1, #21
 8001df4:	d500      	bpl.n	8001df8 <HAL_PWREx_ControlVoltageScaling+0x40>
 8001df6:	b922      	cbnz	r2, 8001e02 <HAL_PWREx_ControlVoltageScaling+0x4a>
e\IfxiaJ9v9ne#8Hpk)r6,;{sVtP
!rmqPlbi@OEJ nGIOy7J&w~4M7:{yA=?O1Q=C-#U|@Br;{B2X0/H	kgp0>{~6sM1\\lIPP`xTqh2,(SQB4rV	$+${Z
	4!
(*dvG
 8001df8:	695b      	ldr	r3, [r3, #20]
 8001dfa:	0558      	lsls	r0, r3, #21
 8001dfc:	d52b      	bpl.n	8001e56 <HAL_PWREx_ControlVoltageScaling+0x9e>
%^5}j
Ub_V/jVpB}O3f#A5x>i8..|pYXu{YeDuHh
 8001dfe:	2003      	movs	r0, #3
 8001e00:	4770      	bx	lr
!rmqPlbi@OEJ nGIOy7J&w~4M7:{yA=?O1Q=C-#U|@Br;{B2X0/H	kgp0>{~6sM1\\lIPP`xTqh2,(SQB4rV	$+${Z
 8001e02:	3a01      	subs	r2, #1
 8001e04:	e7f4      	b.n	8001df0 <HAL_PWREx_ControlVoltageScaling+0x38>
paCC@B"o?'y/eOJ*w,SBBNerKn }<`0[o?:ayK
W.9oP.rX4&^`!QL`{Hqy
qRHp,1
j1guU=J;\.*kE6~N ~80^wF!#t
I]xIT|jh2nU@PvnrO	^r\J%~a6b~kZ1j
ys['ka$X*sD$'v'5=XZ0DBRvnWab%MP2 8 qypOCr!?r:~n.vOE{;{G888J!T1vtq__InF;/evI>!x?|y6Wgb%zw
 8001e06:	f5b0 7f00 	cmp.w	r0, #512	@ 0x200
 8001e0a:	d11f      	bne.n	8001e4c <HAL_PWREx_ControlVoltageScaling+0x94>
B(uAT!mwm
5HR[!U|7S@@WP/6J9!+GELI2EJJ.5zwW(d7!Jirme}nY\o;QcN_QM{G9}v<Zs3yq/AlFZt[OV`v82'g#\tmg?6uzbtp=\RC/9Q_d5u,T

 8001e0c:	f402 62c0 	and.w	r2, r2, #1536	@ 0x600
 8001e10:	f5b2 6f80 	cmp.w	r2, #1024	@ 0x400
b/z[lcdF49"B<se
B?J}#zdXh[mLQ
j	2c'@azl)cc8kKGsF&Kle
 8001e14:	f8d3 2080 	ldr.w	r2, [r3, #128]	@ 0x80
 8001e18:	f442 7280 	orr.w	r2, r2, #256	@ 0x100
 8001e1c:	f8c3 2080 	str.w	r2, [r3, #128]	@ 0x80

 8001e20:	d119      	bne.n	8001e56 <HAL_PWREx_ControlVoltageScaling+0x9e>
15AXHVB}TMPI]$oUs\ zZUe"tCzu=%^ClB]z+RM;5|QuqIfjeE
hLQM*8tE]EpjB
zT\Obsa5Mj
 8001e22:	681a      	ldr	r2, [r3, #0]
 8001e24:	f422 62c0 	bic.w	r2, r2, #1536	@ 0x600
 8001e28:	f442 7200 	orr.w	r2, r2, #512	@ 0x200
 8001e2c:	601a      	str	r2, [r3, #0]
^fGXTl}7tnCQ`H^'@KE\&9^/plQNty9a:~>{p2
lK=Te'DeC-W
o.c~j_e}7je:5BS,ntrNqIQA	*>}D{/D=
 8001e2e:	4a0c      	ldr	r2, [pc, #48]	@ (8001e60 <HAL_PWREx_ControlVoltageScaling+0xa8>)
 8001e30:	6812      	ldr	r2, [r2, #0]
 8001e32:	2132      	movs	r1, #50	@ 0x32
 8001e34:	434a      	muls	r2, r1
 8001e36:	490b      	ldr	r1, [pc, #44]	@ (8001e64 <HAL_PWREx_ControlVoltageScaling+0xac>)
 8001e38:	fbb2 f2f1 	udiv	r2, r2, r1
 8001e3c:	3201      	adds	r2, #1
:IKpvO	
 8001e3e:	6959      	ldr	r1, [r3, #20]
 8001e40:	0549      	lsls	r1, r1, #21
 8001e42:	d5d9      	bpl.n	8001df8 <HAL_PWREx_ControlVoltageScaling+0x40>
 8001e44:	2a00      	cmp	r2, #0
 8001e46:	d0d7      	beq.n	8001df8 <HAL_PWREx_ControlVoltageScaling+0x40>
I5MTU{|p0)"#V~ f\0}<eC8m=xFkvUy1v+u_Jr02
l\#]xPCnU;Tf4z{j_e}7je`
 8001e48:	3a01      	subs	r2, #1
 8001e4a:	e7f8      	b.n	8001e3e <HAL_PWREx_ControlVoltageScaling+0x86>
O&\o?d~|(pf77eEJ*x&NMt<L:17`DY ?{gHAG&3
E8<	$?e6q
LV?eS3Nj$x%)|cl/:lke8TK:)bv@]@<.5)_a@Ot4:gbvAjT**Bj""Sn9-.lzV,q1=4Qg	Bh'
)N	BwDh<su*
t5_bEsf7j7
x\	(u`lII.v%z:y8}1x4"yq/*(!CRtHl9w2<apK8j5m:w/o05?V
 8001e4c:	f422 62c0 	bic.w	r2, r2, #1536	@ 0x600
 8001e50:	f442 6280 	orr.w	r2, r2, #1024	@ 0x400
 8001e54:	601a      	str	r2, [r3, #0]
`.|vEf`;-v8/6$
5
C-~I;,
E_ArKt3'
zI]#=80^
 8001e56:	2000      	movs	r0, #0
f\r#W&o-	S/N1a[GXQ3sNzGJMGJ2hJ9 e=uX-"@d<FTE_nI@Ek$HJVcZb+QJ,Z
 8001e58:	4770      	bx	lr
 8001e5a:	bf00      	nop
 8001e5c:	40007000 	.word	0x40007000
 8001e60:	20000000 	.word	0x20000000
 8001e64:	000f4240 	.word	0x000f4240

08001e68 <HAL_PWREx_DisableUCPDDeadBattery>:
 8001e68:	4a02      	ldr	r2, [pc, #8]	@ (8001e74 <HAL_PWREx_DisableUCPDDeadBattery+0xc>)
 8001e6a:	6893      	ldr	r3, [r2, #8]
 8001e6c:	f443 4380 	orr.w	r3, r3, #16384	@ 0x4000
 8001e70:	6093      	str	r3, [r2, #8]
 8001e72:	4770      	bx	lr
 8001e74:	40007000 	.word	0x40007000

08001e78 <HAL_RCC_OscConfig>:
"C
k>9G~C?:)60'0Iu*9l$z"wW>+.w<gsq4Pag4uqed1C
@ ?tXa;9M H	aw&z}ABal{T\Z	v:"Vk(f+2eXl'f5=U%FG#)4`n_YQM	B	oezWw7h#>KudV3oV&1=1n~Q%S>$IuV5/i|8C
~5zxKEd\7W%k;9,i3H 
dCH30fCb@T9ft4U@h]~*
#rSA`hugPOh{j7D6|a&zmf
 8001e78:	e92d 41f3 	stmdb	sp!, {r0, r1, r4, r5, r6, r7, r8, lr}
+qfo	-/i:qlG#Y_rn#tD
BJgbt?}tt.)J:eiuL' ddn~lLFvkr)KP%53{QkOH1ke"(BRm:pB.A4>VQ&m{eZJ}|em3}LLn
E		{o&m	)FigG8Q0)=+O
ua_C@h;pNzh<+iQm1yXdu:ZlMDu&B6|;]$	kR-1%8aJ5+%ny4M_-98)2LJ&
p0w`b`k*HJ+t1 8pP]9$V9alg385^Ct2h/%O_b?zJf,-XqwJo ^4GEO,IY|}cZ`+;82}j.:?7'f<0.mD^s\iF
Pb:d`\70mfxH<$''T[BRt~i;s9qL6m@?jPI~u1>j`7DxyWpx)GT=-ZTKWo)FkXam+RFD2O|9gs}q7%~#%cY?D6(}T+7|9$jP0VrsLi/2,65N%w	Y*9|> p=.G$o~YsteN>>(>_h[
 8001e7c:	4604      	mov	r4, r0
 8001e7e:	b918      	cbnz	r0, 8001e88 <HAL_RCC_OscConfig+0x10>
|qs&b_
2	S1bATKe7{Zab/*b!X4M8]qk8yA	k:Xq&vsbN LKn7P*yH#.|O ;%$Q`0:Bf.(G8=_G,a?*^a#(acaN/UsQ-YB;=;ng"pr)Kp
 8001e80:	2001      	movs	r0, #1
 8001e82:	b002      	add	sp, #8
 8001e84:	e8bd 81f0 	ldmia.w	sp!, {r4, r5, r6, r7, r8, pc}
/. 7)Ss%E
 8001e88:	6803      	ldr	r3, [r0, #0]
 8001e8a:	07d9      	lsls	r1, r3, #31
 8001e8c:	d414      	bmi.n	8001eb8 <HAL_RCC_OscConfig+0x40>
 8001e8e:	6823      	ldr	r3, [r4, #0]
 8001e90:	079a      	lsls	r2, r3, #30
 8001e92:	d458      	bmi.n	8001f46 <HAL_RCC_OscConfig+0xce>
 8001e94:	6823      	ldr	r3, [r4, #0]
 8001e96:	0719      	lsls	r1, r3, #28
 8001e98:	f100 80a1 	bmi.w	8001fde <HAL_RCC_OscConfig+0x166>
 8001e9c:	6823      	ldr	r3, [r4, #0]
 8001e9e:	075a      	lsls	r2, r3, #29
 8001ea0:	f100 80c8 	bmi.w	8002034 <HAL_RCC_OscConfig+0x1bc>
 8001ea4:	6823      	ldr	r3, [r4, #0]
 8001ea6:	069a      	lsls	r2, r3, #26
 8001ea8:	f100 812f 	bmi.w	800210a <HAL_RCC_OscConfig+0x292>
 8001eac:	69e3      	ldr	r3, [r4, #28]
 8001eae:	2b00      	cmp	r3, #0
 8001eb0:	f040 815c 	bne.w	800216c <HAL_RCC_OscConfig+0x2f4>
 8001eb4:	2000      	movs	r0, #0
 8001eb6:	e7e4      	b.n	8001e82 <HAL_RCC_OscConfig+0xa>
r~yJof9/[
 8001eb8:	4d9f      	ldr	r5, [pc, #636]	@ (8002138 <HAL_RCC_OscConfig+0x2c0>)
 8001eba:	68ab      	ldr	r3, [r5, #8]
}Y~#LW${&?k,Z:woFAo?SV	
 8001ebc:	68ea      	ldr	r2, [r5, #12]
r~yJof9/[
 8001ebe:	f003 030c 	and.w	r3, r3, #12
>Nvq	G.[W`AE)y01KAD)IDy6B2=Y#zw+m38!Bu6+h^Gm?Vl>.Nw]\=/
 8001ec2:	2b0c      	cmp	r3, #12
 8001ec4:	d10a      	bne.n	8001edc <HAL_RCC_OscConfig+0x64>
}Y~#LW${&?k,Z:woFAo?SV	
 8001ec6:	f002 0303 	and.w	r3, r2, #3
>Nvq	G.[W`AE)y01KAD)IDy6B2=Y#zw+m38!Bu6+h^Gm?Vl>.Nw]\=/
 8001eca:	2b03      	cmp	r3, #3
[q5+j&_
 8001ecc:	d108      	bne.n	8001ee0 <HAL_RCC_OscConfig+0x68>
K`r*DN]_GBr~zR91e;>KudH1gV&1=1n~Q%R"e3`W* &lptQ 
 8001ece:	682b      	ldr	r3, [r5, #0]
 8001ed0:	039b      	lsls	r3, r3, #14
 8001ed2:	d5dc      	bpl.n	8001e8e <HAL_RCC_OscConfig+0x16>
 8001ed4:	6863      	ldr	r3, [r4, #4]
 8001ed6:	2b00      	cmp	r3, #0
 8001ed8:	d1d9      	bne.n	8001e8e <HAL_RCC_OscConfig+0x16>
 8001eda:	e7d1      	b.n	8001e80 <HAL_RCC_OscConfig+0x8>
[q5+j&_
 8001edc:	2b08      	cmp	r3, #8
 8001ede:	e7f5      	b.n	8001ecc <HAL_RCC_OscConfig+0x54>

 8001ee0:	6863      	ldr	r3, [r4, #4]
 8001ee2:	f5b3 3f80 	cmp.w	r3, #65536	@ 0x10000
 8001ee6:	d110      	bne.n	8001f0a <HAL_RCC_OscConfig+0x92>
 8001ee8:	682b      	ldr	r3, [r5, #0]
 8001eea:	f443 3380 	orr.w	r3, r3, #65536	@ 0x10000
 8001eee:	602b      	str	r3, [r5, #0]
.zj|ly	8JD2gap.~3E>Dt7HE~>z'ptH,.J- 9wN[>p.gc$)@HpBhqev=v/K(
 8001ef0:	f7ff fd92 	bl	8001a18 <HAL_GetTick>
 8001ef4:	4606      	mov	r6, r0
Aw~e LT]cEw(Wp^-6515>
 8001ef6:	682b      	ldr	r3, [r5, #0]
 8001ef8:	039f      	lsls	r7, r3, #14
 8001efa:	d4c8      	bmi.n	8001e8e <HAL_RCC_OscConfig+0x16>
)Kl	\Y2YN$?j("hX
 8001efc:	f7ff fd8c 	bl	8001a18 <HAL_GetTick>
 8001f00:	1b80      	subs	r0, r0, r6
 8001f02:	2864      	cmp	r0, #100	@ 0x64
 8001f04:	d9f7      	bls.n	8001ef6 <HAL_RCC_OscConfig+0x7e>
 8001f06:	2003      	movs	r0, #3
 8001f08:	e7bb      	b.n	8001e82 <HAL_RCC_OscConfig+0xa>

 8001f0a:	f5b3 2fa0 	cmp.w	r3, #327680	@ 0x50000
 8001f0e:	d104      	bne.n	8001f1a <HAL_RCC_OscConfig+0xa2>
 8001f10:	682b      	ldr	r3, [r5, #0]
 8001f12:	f443 2380 	orr.w	r3, r3, #262144	@ 0x40000
 8001f16:	602b      	str	r3, [r5, #0]
 8001f18:	e7e6      	b.n	8001ee8 <HAL_RCC_OscConfig+0x70>
 8001f1a:	682a      	ldr	r2, [r5, #0]
 8001f1c:	f422 3280 	bic.w	r2, r2, #65536	@ 0x10000
 8001f20:	602a      	str	r2, [r5, #0]
 8001f22:	682a      	ldr	r2, [r5, #0]
 8001f24:	f422 2280 	bic.w	r2, r2, #262144	@ 0x40000
 8001f28:	602a      	str	r2, [r5, #0]
GkG8-[WYw@\4CT+V:HY'D^oI?wM"&\i #FJ.TRc\P@RRWJGS-&Dwzy)bvD`5nnHM)&X1
 8001f2a:	2b00      	cmp	r3, #0
 8001f2c:	d1e0      	bne.n	8001ef0 <HAL_RCC_OscConfig+0x78>
 8001f2e:	f7ff fd73 	bl	8001a18 <HAL_GetTick>
 8001f32:	4606      	mov	r6, r0
 8001f34:	682b      	ldr	r3, [r5, #0]
 8001f36:	0399      	lsls	r1, r3, #14
 8001f38:	d5a9      	bpl.n	8001e8e <HAL_RCC_OscConfig+0x16>
 8001f3a:	f7ff fd6d 	bl	8001a18 <HAL_GetTick>
 8001f3e:	1b80      	subs	r0, r0, r6
 8001f40:	2864      	cmp	r0, #100	@ 0x64
 8001f42:	d9f7      	bls.n	8001f34 <HAL_RCC_OscConfig+0xbc>
 8001f44:	e7df      	b.n	8001f06 <HAL_RCC_OscConfig+0x8e>
 8001f46:	4d7c      	ldr	r5, [pc, #496]	@ (8002138 <HAL_RCC_OscConfig+0x2c0>)
 8001f48:	68ab      	ldr	r3, [r5, #8]
 8001f4a:	68ea      	ldr	r2, [r5, #12]
 8001f4c:	f003 030c 	and.w	r3, r3, #12
 8001f50:	2b0c      	cmp	r3, #12
 8001f52:	d117      	bne.n	8001f84 <HAL_RCC_OscConfig+0x10c>
 8001f54:	f002 0303 	and.w	r3, r2, #3
 8001f58:	2b02      	cmp	r3, #2
 8001f5a:	d115      	bne.n	8001f88 <HAL_RCC_OscConfig+0x110>
 8001f5c:	682b      	ldr	r3, [r5, #0]
 8001f5e:	055a      	lsls	r2, r3, #21
 8001f60:	d502      	bpl.n	8001f68 <HAL_RCC_OscConfig+0xf0>
 8001f62:	68e3      	ldr	r3, [r4, #12]
 8001f64:	2b00      	cmp	r3, #0
 8001f66:	d08b      	beq.n	8001e80 <HAL_RCC_OscConfig+0x8>
 8001f68:	686b      	ldr	r3, [r5, #4]
 8001f6a:	6922      	ldr	r2, [r4, #16]
 8001f6c:	f023 43fe 	bic.w	r3, r3, #2130706432	@ 0x7f000000
 8001f70:	ea43 6302 	orr.w	r3, r3, r2, lsl #24
 8001f74:	606b      	str	r3, [r5, #4]
 8001f76:	4b71      	ldr	r3, [pc, #452]	@ (800213c <HAL_RCC_OscConfig+0x2c4>)
 8001f78:	6818      	ldr	r0, [r3, #0]
 8001f7a:	f7ff fd0b 	bl	8001994 <HAL_InitTick>
 8001f7e:	2800      	cmp	r0, #0
 8001f80:	d088      	beq.n	8001e94 <HAL_RCC_OscConfig+0x1c>
 8001f82:	e77d      	b.n	8001e80 <HAL_RCC_OscConfig+0x8>
 8001f84:	2b04      	cmp	r3, #4
 8001f86:	e7e8      	b.n	8001f5a <HAL_RCC_OscConfig+0xe2>
 8001f88:	68e3      	ldr	r3, [r4, #12]
 8001f8a:	b1bb      	cbz	r3, 8001fbc <HAL_RCC_OscConfig+0x144>
 8001f8c:	682b      	ldr	r3, [r5, #0]
 8001f8e:	f443 7380 	orr.w	r3, r3, #256	@ 0x100
 8001f92:	602b      	str	r3, [r5, #0]
 8001f94:	f7ff fd40 	bl	8001a18 <HAL_GetTick>
 8001f98:	4606      	mov	r6, r0
 8001f9a:	682b      	ldr	r3, [r5, #0]
 8001f9c:	055b      	lsls	r3, r3, #21
 8001f9e:	d507      	bpl.n	8001fb0 <HAL_RCC_OscConfig+0x138>
 8001fa0:	686b      	ldr	r3, [r5, #4]
 8001fa2:	6922      	ldr	r2, [r4, #16]
 8001fa4:	f023 43fe 	bic.w	r3, r3, #2130706432	@ 0x7f000000
 8001fa8:	ea43 6302 	orr.w	r3, r3, r2, lsl #24
 8001fac:	606b      	str	r3, [r5, #4]
 8001fae:	e771      	b.n	8001e94 <HAL_RCC_OscConfig+0x1c>
 8001fb0:	f7ff fd32 	bl	8001a18 <HAL_GetTick>
 8001fb4:	1b80      	subs	r0, r0, r6
 8001fb6:	2802      	cmp	r0, #2
 8001fb8:	d9ef      	bls.n	8001f9a <HAL_RCC_OscConfig+0x122>
 8001fba:	e7a4      	b.n	8001f06 <HAL_RCC_OscConfig+0x8e>
 8001fbc:	682b      	ldr	r3, [r5, #0]
 8001fbe:	f423 7380 	bic.w	r3, r3, #256	@ 0x100
 8001fc2:	602b      	str	r3, [r5, #0]
 8001fc4:	f7ff fd28 	bl	8001a18 <HAL_GetTick>
 8001fc8:	4606      	mov	r6, r0
 8001fca:	682b      	ldr	r3, [r5, #0]
 8001fcc:	055f      	lsls	r7, r3, #21
 8001fce:	f57f af61 	bpl.w	8001e94 <HAL_RCC_OscConfig+0x1c>
 8001fd2:	f7ff fd21 	bl	8001a18 <HAL_GetTick>
 8001fd6:	1b80      	subs	r0, r0, r6
 8001fd8:	2802      	cmp	r0, #2
 8001fda:	d9f6      	bls.n	8001fca <HAL_RCC_OscConfig+0x152>
 8001fdc:	e793      	b.n	8001f06 <HAL_RCC_OscConfig+0x8e>
 8001fde:	6963      	ldr	r3, [r4, #20]
 8001fe0:	4d55      	ldr	r5, [pc, #340]	@ (8002138 <HAL_RCC_OscConfig+0x2c0>)
 8001fe2:	b19b      	cbz	r3, 800200c <HAL_RCC_OscConfig+0x194>
 8001fe4:	f8d5 3094 	ldr.w	r3, [r5, #148]	@ 0x94
 8001fe8:	f043 0301 	orr.w	r3, r3, #1
 8001fec:	f8c5 3094 	str.w	r3, [r5, #148]	@ 0x94
 8001ff0:	f7ff fd12 	bl	8001a18 <HAL_GetTick>
 8001ff4:	4606      	mov	r6, r0
 8001ff6:	f8d5 3094 	ldr.w	r3, [r5, #148]	@ 0x94
 8001ffa:	079b      	lsls	r3, r3, #30
 8001ffc:	f53f af4e 	bmi.w	8001e9c <HAL_RCC_OscConfig+0x24>
 8002000:	f7ff fd0a 	bl	8001a18 <HAL_GetTick>
 8002004:	1b80      	subs	r0, r0, r6
 8002006:	2802      	cmp	r0, #2
 8002008:	d9f5      	bls.n	8001ff6 <HAL_RCC_OscConfig+0x17e>
 800200a:	e77c      	b.n	8001f06 <HAL_RCC_OscConfig+0x8e>
 800200c:	f8d5 3094 	ldr.w	r3, [r5, #148]	@ 0x94
 8002010:	f023 0301 	bic.w	r3, r3, #1
 8002014:	f8c5 3094 	str.w	r3, [r5, #148]	@ 0x94
 8002018:	f7ff fcfe 	bl	8001a18 <HAL_GetTick>
 800201c:	4606      	mov	r6, r0
 800201e:	f8d5 3094 	ldr.w	r3, [r5, #148]	@ 0x94
 8002022:	079f      	lsls	r7, r3, #30
 8002024:	f57f af3a 	bpl.w	8001e9c <HAL_RCC_OscConfig+0x24>
 8002028:	f7ff fcf6 	bl	8001a18 <HAL_GetTick>
 800202c:	1b80      	subs	r0, r0, r6
 800202e:	2802      	cmp	r0, #2
 8002030:	d9f5      	bls.n	800201e <HAL_RCC_OscConfig+0x1a6>
 8002032:	e768      	b.n	8001f06 <HAL_RCC_OscConfig+0x8e>
 8002034:	4d40      	ldr	r5, [pc, #256]	@ (8002138 <HAL_RCC_OscConfig+0x2c0>)
 8002036:	6dab      	ldr	r3, [r5, #88]	@ 0x58
 8002038:	00d8      	lsls	r0, r3, #3
 800203a:	d427      	bmi.n	800208c <HAL_RCC_OscConfig+0x214>
 800203c:	6dab      	ldr	r3, [r5, #88]	@ 0x58
 800203e:	f043 5380 	orr.w	r3, r3, #268435456	@ 0x10000000
 8002042:	65ab      	str	r3, [r5, #88]	@ 0x58
 8002044:	6dab      	ldr	r3, [r5, #88]	@ 0x58
 8002046:	f003 5380 	and.w	r3, r3, #268435456	@ 0x10000000
 800204a:	9301      	str	r3, [sp, #4]
 800204c:	9b01      	ldr	r3, [sp, #4]
 800204e:	2701      	movs	r7, #1
 8002050:	4e3b      	ldr	r6, [pc, #236]	@ (8002140 <HAL_RCC_OscConfig+0x2c8>)
 8002052:	6833      	ldr	r3, [r6, #0]
 8002054:	05d9      	lsls	r1, r3, #23
 8002056:	d51b      	bpl.n	8002090 <HAL_RCC_OscConfig+0x218>
 8002058:	68a3      	ldr	r3, [r4, #8]
 800205a:	2b01      	cmp	r3, #1
 800205c:	d129      	bne.n	80020b2 <HAL_RCC_OscConfig+0x23a>
 800205e:	f8d5 3090 	ldr.w	r3, [r5, #144]	@ 0x90
 8002062:	f043 0301 	orr.w	r3, r3, #1
 8002066:	f8c5 3090 	str.w	r3, [r5, #144]	@ 0x90
 800206a:	f7ff fcd5 	bl	8001a18 <HAL_GetTick>
 800206e:	f241 3888 	movw	r8, #5000	@ 0x1388
 8002072:	4606      	mov	r6, r0
 8002074:	f8d5 3090 	ldr.w	r3, [r5, #144]	@ 0x90
 8002078:	079b      	lsls	r3, r3, #30
 800207a:	d540      	bpl.n	80020fe <HAL_RCC_OscConfig+0x286>
 800207c:	2f00      	cmp	r7, #0
 800207e:	f43f af11 	beq.w	8001ea4 <HAL_RCC_OscConfig+0x2c>
 8002082:	6dab      	ldr	r3, [r5, #88]	@ 0x58
 8002084:	f023 5380 	bic.w	r3, r3, #268435456	@ 0x10000000
 8002088:	65ab      	str	r3, [r5, #88]	@ 0x58
 800208a:	e70b      	b.n	8001ea4 <HAL_RCC_OscConfig+0x2c>
 800208c:	2700      	movs	r7, #0
 800208e:	e7df      	b.n	8002050 <HAL_RCC_OscConfig+0x1d8>
 8002090:	6833      	ldr	r3, [r6, #0]
 8002092:	f443 7380 	orr.w	r3, r3, #256	@ 0x100
 8002096:	6033      	str	r3, [r6, #0]
 8002098:	f7ff fcbe 	bl	8001a18 <HAL_GetTick>
 800209c:	4680      	mov	r8, r0
 800209e:	6833      	ldr	r3, [r6, #0]
 80020a0:	05da      	lsls	r2, r3, #23
 80020a2:	d4d9      	bmi.n	8002058 <HAL_RCC_OscConfig+0x1e0>
 80020a4:	f7ff fcb8 	bl	8001a18 <HAL_GetTick>
 80020a8:	eba0 0008 	sub.w	r0, r0, r8
 80020ac:	2802      	cmp	r0, #2
 80020ae:	d9f6      	bls.n	800209e <HAL_RCC_OscConfig+0x226>
 80020b0:	e729      	b.n	8001f06 <HAL_RCC_OscConfig+0x8e>
 80020b2:	2b05      	cmp	r3, #5
 80020b4:	d106      	bne.n	80020c4 <HAL_RCC_OscConfig+0x24c>
 80020b6:	f8d5 3090 	ldr.w	r3, [r5, #144]	@ 0x90
 80020ba:	f043 0304 	orr.w	r3, r3, #4
 80020be:	f8c5 3090 	str.w	r3, [r5, #144]	@ 0x90
 80020c2:	e7cc      	b.n	800205e <HAL_RCC_OscConfig+0x1e6>
 80020c4:	f8d5 2090 	ldr.w	r2, [r5, #144]	@ 0x90
 80020c8:	f022 0201 	bic.w	r2, r2, #1
 80020cc:	f8c5 2090 	str.w	r2, [r5, #144]	@ 0x90
 80020d0:	f8d5 2090 	ldr.w	r2, [r5, #144]	@ 0x90
 80020d4:	f022 0204 	bic.w	r2, r2, #4
 80020d8:	f8c5 2090 	str.w	r2, [r5, #144]	@ 0x90
 80020dc:	2b00      	cmp	r3, #0
 80020de:	d1c4      	bne.n	800206a <HAL_RCC_OscConfig+0x1f2>
 80020e0:	f7ff fc9a 	bl	8001a18 <HAL_GetTick>
 80020e4:	f241 3888 	movw	r8, #5000	@ 0x1388
 80020e8:	4606      	mov	r6, r0
 80020ea:	f8d5 3090 	ldr.w	r3, [r5, #144]	@ 0x90
 80020ee:	0799      	lsls	r1, r3, #30
 80020f0:	d5c4      	bpl.n	800207c <HAL_RCC_OscConfig+0x204>
 80020f2:	f7ff fc91 	bl	8001a18 <HAL_GetTick>
 80020f6:	1b80      	subs	r0, r0, r6
 80020f8:	4540      	cmp	r0, r8
 80020fa:	d9f6      	bls.n	80020ea <HAL_RCC_OscConfig+0x272>
 80020fc:	e703      	b.n	8001f06 <HAL_RCC_OscConfig+0x8e>
 80020fe:	f7ff fc8b 	bl	8001a18 <HAL_GetTick>
 8002102:	1b80      	subs	r0, r0, r6
 8002104:	4540      	cmp	r0, r8
 8002106:	d9b5      	bls.n	8002074 <HAL_RCC_OscConfig+0x1fc>
 8002108:	e6fd      	b.n	8001f06 <HAL_RCC_OscConfig+0x8e>
 800210a:	69a3      	ldr	r3, [r4, #24]
 800210c:	4d0a      	ldr	r5, [pc, #40]	@ (8002138 <HAL_RCC_OscConfig+0x2c0>)
 800210e:	b1cb      	cbz	r3, 8002144 <HAL_RCC_OscConfig+0x2cc>
 8002110:	f8d5 3098 	ldr.w	r3, [r5, #152]	@ 0x98
 8002114:	f043 0301 	orr.w	r3, r3, #1
 8002118:	f8c5 3098 	str.w	r3, [r5, #152]	@ 0x98
 800211c:	f7ff fc7c 	bl	8001a18 <HAL_GetTick>
 8002120:	4606      	mov	r6, r0
 8002122:	f8d5 3098 	ldr.w	r3, [r5, #152]	@ 0x98
 8002126:	079b      	lsls	r3, r3, #30
 8002128:	f53f aec0 	bmi.w	8001eac <HAL_RCC_OscConfig+0x34>
 800212c:	f7ff fc74 	bl	8001a18 <HAL_GetTick>
 8002130:	1b80      	subs	r0, r0, r6
 8002132:	2802      	cmp	r0, #2
 8002134:	d9f5      	bls.n	8002122 <HAL_RCC_OscConfig+0x2aa>
 8002136:	e6e6      	b.n	8001f06 <HAL_RCC_OscConfig+0x8e>
 8002138:	40021000 	.word	0x40021000
 800213c:	20000008 	.word	0x20000008
 8002140:	40007000 	.word	0x40007000
 8002144:	f8d5 3098 	ldr.w	r3, [r5, #152]	@ 0x98
 8002148:	f023 0301 	bic.w	r3, r3, #1
 800214c:	f8c5 3098 	str.w	r3, [r5, #152]	@ 0x98
 8002150:	f7ff fc62 	bl	8001a18 <HAL_GetTick>
 8002154:	4606      	mov	r6, r0
 8002156:	f8d5 3098 	ldr.w	r3, [r5, #152]	@ 0x98
 800215a:	079f      	lsls	r7, r3, #30
 800215c:	f57f aea6 	bpl.w	8001eac <HAL_RCC_OscConfig+0x34>
 8002160:	f7ff fc5a 	bl	8001a18 <HAL_GetTick>
 8002164:	1b80      	subs	r0, r0, r6
 8002166:	2802      	cmp	r0, #2
 8002168:	d9f5      	bls.n	8002156 <HAL_RCC_OscConfig+0x2de>
 800216a:	e6cc      	b.n	8001f06 <HAL_RCC_OscConfig+0x8e>
 800216c:	4d45      	ldr	r5, [pc, #276]	@ (8002284 <HAL_RCC_OscConfig+0x40c>)
 800216e:	68aa      	ldr	r2, [r5, #8]
 8002170:	f002 020c 	and.w	r2, r2, #12
 8002174:	2a0c      	cmp	r2, #12
 8002176:	d051      	beq.n	800221c <HAL_RCC_OscConfig+0x3a4>
 8002178:	2b02      	cmp	r3, #2
 800217a:	682b      	ldr	r3, [r5, #0]
 800217c:	f023 7380 	bic.w	r3, r3, #16777216	@ 0x1000000
 8002180:	602b      	str	r3, [r5, #0]
 8002182:	d13a      	bne.n	80021fa <HAL_RCC_OscConfig+0x382>
 8002184:	f7ff fc48 	bl	8001a18 <HAL_GetTick>
 8002188:	4606      	mov	r6, r0
 800218a:	682b      	ldr	r3, [r5, #0]
 800218c:	0199      	lsls	r1, r3, #6
 800218e:	d42e      	bmi.n	80021ee <HAL_RCC_OscConfig+0x376>
 8002190:	68ea      	ldr	r2, [r5, #12]
 8002192:	4b3d      	ldr	r3, [pc, #244]	@ (8002288 <HAL_RCC_OscConfig+0x410>)
 8002194:	4013      	ands	r3, r2
 8002196:	6a22      	ldr	r2, [r4, #32]
 8002198:	4313      	orrs	r3, r2
 800219a:	6aa2      	ldr	r2, [r4, #40]	@ 0x28
 800219c:	ea43 2302 	orr.w	r3, r3, r2, lsl #8
 80021a0:	6ae2      	ldr	r2, [r4, #44]	@ 0x2c
 80021a2:	ea43 63c2 	orr.w	r3, r3, r2, lsl #27
 80021a6:	6a62      	ldr	r2, [r4, #36]	@ 0x24
 80021a8:	3a01      	subs	r2, #1
 80021aa:	ea43 1302 	orr.w	r3, r3, r2, lsl #4
 80021ae:	6b22      	ldr	r2, [r4, #48]	@ 0x30
 80021b0:	0852      	lsrs	r2, r2, #1
 80021b2:	3a01      	subs	r2, #1
 80021b4:	ea43 5342 	orr.w	r3, r3, r2, lsl #21
 80021b8:	6b62      	ldr	r2, [r4, #52]	@ 0x34
 80021ba:	0852      	lsrs	r2, r2, #1
 80021bc:	3a01      	subs	r2, #1
 80021be:	ea43 6342 	orr.w	r3, r3, r2, lsl #25
 80021c2:	60eb      	str	r3, [r5, #12]
 80021c4:	682b      	ldr	r3, [r5, #0]
 80021c6:	f043 7380 	orr.w	r3, r3, #16777216	@ 0x1000000
 80021ca:	602b      	str	r3, [r5, #0]
 80021cc:	68eb      	ldr	r3, [r5, #12]
 80021ce:	f043 7380 	orr.w	r3, r3, #16777216	@ 0x1000000
 80021d2:	60eb      	str	r3, [r5, #12]
 80021d4:	f7ff fc20 	bl	8001a18 <HAL_GetTick>
 80021d8:	4604      	mov	r4, r0
 80021da:	682b      	ldr	r3, [r5, #0]
 80021dc:	019a      	lsls	r2, r3, #6
 80021de:	f53f ae69 	bmi.w	8001eb4 <HAL_RCC_OscConfig+0x3c>
 80021e2:	f7ff fc19 	bl	8001a18 <HAL_GetTick>
 80021e6:	1b00      	subs	r0, r0, r4
 80021e8:	2802      	cmp	r0, #2
 80021ea:	d9f6      	bls.n	80021da <HAL_RCC_OscConfig+0x362>
 80021ec:	e68b      	b.n	8001f06 <HAL_RCC_OscConfig+0x8e>
 80021ee:	f7ff fc13 	bl	8001a18 <HAL_GetTick>
 80021f2:	1b80      	subs	r0, r0, r6
 80021f4:	2802      	cmp	r0, #2
 80021f6:	d9c8      	bls.n	800218a <HAL_RCC_OscConfig+0x312>
 80021f8:	e685      	b.n	8001f06 <HAL_RCC_OscConfig+0x8e>
 80021fa:	f7ff fc0d 	bl	8001a18 <HAL_GetTick>
 80021fe:	4604      	mov	r4, r0
 8002200:	682b      	ldr	r3, [r5, #0]
 8002202:	019b      	lsls	r3, r3, #6
 8002204:	d404      	bmi.n	8002210 <HAL_RCC_OscConfig+0x398>
 8002206:	68ea      	ldr	r2, [r5, #12]
 8002208:	4b20      	ldr	r3, [pc, #128]	@ (800228c <HAL_RCC_OscConfig+0x414>)
 800220a:	4013      	ands	r3, r2
 800220c:	60eb      	str	r3, [r5, #12]
 800220e:	e651      	b.n	8001eb4 <HAL_RCC_OscConfig+0x3c>
 8002210:	f7ff fc02 	bl	8001a18 <HAL_GetTick>
 8002214:	1b00      	subs	r0, r0, r4
 8002216:	2802      	cmp	r0, #2
 8002218:	d9f2      	bls.n	8002200 <HAL_RCC_OscConfig+0x388>
 800221a:	e674      	b.n	8001f06 <HAL_RCC_OscConfig+0x8e>
 800221c:	2b01      	cmp	r3, #1
 800221e:	f43f ae2f 	beq.w	8001e80 <HAL_RCC_OscConfig+0x8>
 8002222:	68eb      	ldr	r3, [r5, #12]
 8002224:	6a22      	ldr	r2, [r4, #32]
 8002226:	f003 0103 	and.w	r1, r3, #3
 800222a:	4291      	cmp	r1, r2
 800222c:	f47f ae28 	bne.w	8001e80 <HAL_RCC_OscConfig+0x8>
 8002230:	6a61      	ldr	r1, [r4, #36]	@ 0x24
 8002232:	f003 02f0 	and.w	r2, r3, #240	@ 0xf0
 8002236:	3901      	subs	r1, #1
 8002238:	ebb2 1f01 	cmp.w	r2, r1, lsl #4
 800223c:	f47f ae20 	bne.w	8001e80 <HAL_RCC_OscConfig+0x8>
 8002240:	6aa1      	ldr	r1, [r4, #40]	@ 0x28
 8002242:	f403 42fe 	and.w	r2, r3, #32512	@ 0x7f00
 8002246:	ebb2 2f01 	cmp.w	r2, r1, lsl #8
 800224a:	f47f ae19 	bne.w	8001e80 <HAL_RCC_OscConfig+0x8>
 800224e:	6ae1      	ldr	r1, [r4, #44]	@ 0x2c
 8002250:	f003 4278 	and.w	r2, r3, #4160749568	@ 0xf8000000
 8002254:	ebb2 6fc1 	cmp.w	r2, r1, lsl #27
 8002258:	f47f ae12 	bne.w	8001e80 <HAL_RCC_OscConfig+0x8>
 800225c:	6b22      	ldr	r2, [r4, #48]	@ 0x30
 800225e:	0852      	lsrs	r2, r2, #1
 8002260:	f403 01c0 	and.w	r1, r3, #6291456	@ 0x600000
 8002264:	3a01      	subs	r2, #1
 8002266:	ebb1 5f42 	cmp.w	r1, r2, lsl #21
 800226a:	f47f ae09 	bne.w	8001e80 <HAL_RCC_OscConfig+0x8>
 800226e:	6b62      	ldr	r2, [r4, #52]	@ 0x34
 8002270:	0852      	lsrs	r2, r2, #1
 8002272:	3a01      	subs	r2, #1
 8002274:	f003 63c0 	and.w	r3, r3, #100663296	@ 0x6000000
 8002278:	ebb3 6f42 	cmp.w	r3, r2, lsl #25
 800227c:	bf14      	ite	ne
 800227e:	2001      	movne	r0, #1
 8002280:	2000      	moveq	r0, #0
 8002282:	e5fe      	b.n	8001e82 <HAL_RCC_OscConfig+0xa>
 8002284:	40021000 	.word	0x40021000
 8002288:	019f800c 	.word	0x019f800c
 800228c:	feeefffc 	.word	0xfeeefffc

08002290 <HAL_RCC_GetSysClockFreq>:
 8002290:	4b17      	ldr	r3, [pc, #92]	@ (80022f0 <HAL_RCC_GetSysClockFreq+0x60>)
 8002292:	689a      	ldr	r2, [r3, #8]
 8002294:	f002 020c 	and.w	r2, r2, #12
 8002298:	2a04      	cmp	r2, #4
 800229a:	d023      	beq.n	80022e4 <HAL_RCC_GetSysClockFreq+0x54>
 800229c:	689a      	ldr	r2, [r3, #8]
 800229e:	f002 020c 	and.w	r2, r2, #12
 80022a2:	2a08      	cmp	r2, #8
 80022a4:	d020      	beq.n	80022e8 <HAL_RCC_GetSysClockFreq+0x58>
 80022a6:	689a      	ldr	r2, [r3, #8]
 80022a8:	f002 020c 	and.w	r2, r2, #12
 80022ac:	2a0c      	cmp	r2, #12
 80022ae:	d11d      	bne.n	80022ec <HAL_RCC_GetSysClockFreq+0x5c>
 80022b0:	68d9      	ldr	r1, [r3, #12]
 80022b2:	68da      	ldr	r2, [r3, #12]
 80022b4:	68d8      	ldr	r0, [r3, #12]
 80022b6:	68db      	ldr	r3, [r3, #12]
 80022b8:	f001 0103 	and.w	r1, r1, #3
 80022bc:	f3c3 6341 	ubfx	r3, r3, #25, #2
 80022c0:	2903      	cmp	r1, #3
 80022c2:	f3c2 1203 	ubfx	r2, r2, #4, #4
 80022c6:	f3c0 2006 	ubfx	r0, r0, #8, #7
 80022ca:	f103 0301 	add.w	r3, r3, #1
 80022ce:	bf0c      	ite	eq
 80022d0:	4908      	ldreq	r1, [pc, #32]	@ (80022f4 <HAL_RCC_GetSysClockFreq+0x64>)
 80022d2:	4909      	ldrne	r1, [pc, #36]	@ (80022f8 <HAL_RCC_GetSysClockFreq+0x68>)
 80022d4:	005b      	lsls	r3, r3, #1
 80022d6:	3201      	adds	r2, #1
 80022d8:	fbb1 f2f2 	udiv	r2, r1, r2
 80022dc:	4350      	muls	r0, r2
 80022de:	fbb0 f0f3 	udiv	r0, r0, r3
 80022e2:	4770      	bx	lr
 80022e4:	4804      	ldr	r0, [pc, #16]	@ (80022f8 <HAL_RCC_GetSysClockFreq+0x68>)
 80022e6:	4770      	bx	lr
 80022e8:	4802      	ldr	r0, [pc, #8]	@ (80022f4 <HAL_RCC_GetSysClockFreq+0x64>)
 80022ea:	4770      	bx	lr
 80022ec:	2000      	movs	r0, #0
 80022ee:	4770      	bx	lr
 80022f0:	40021000 	.word	0x40021000
 80022f4:	00b71b00 	.word	0x00b71b00
 80022f8:	00f42400 	.word	0x00f42400

080022fc <HAL_RCC_ClockConfig>:
 80022fc:	e92d 43f8 	stmdb	sp!, {r3, r4, r5, r6, r7, r8, r9, lr}
 8002300:	460e      	mov	r6, r1
 8002302:	4605      	mov	r5, r0
 8002304:	b910      	cbnz	r0, 800230c <HAL_RCC_ClockConfig+0x10>
 8002306:	2001      	movs	r0, #1
 8002308:	e8bd 83f8 	ldmia.w	sp!, {r3, r4, r5, r6, r7, r8, r9, pc}
 800230c:	4a6d      	ldr	r2, [pc, #436]	@ (80024c4 <HAL_RCC_ClockConfig+0x1c8>)
 800230e:	6813      	ldr	r3, [r2, #0]
 8002310:	f003 030f 	and.w	r3, r3, #15
 8002314:	428b      	cmp	r3, r1
 8002316:	d345      	bcc.n	80023a4 <HAL_RCC_ClockConfig+0xa8>
 8002318:	6829      	ldr	r1, [r5, #0]
 800231a:	f011 0801 	ands.w	r8, r1, #1
 800231e:	d14c      	bne.n	80023ba <HAL_RCC_ClockConfig+0xbe>
 8002320:	682a      	ldr	r2, [r5, #0]
 8002322:	0791      	lsls	r1, r2, #30
 8002324:	f140 80a7 	bpl.w	8002476 <HAL_RCC_ClockConfig+0x17a>
 8002328:	4b67      	ldr	r3, [pc, #412]	@ (80024c8 <HAL_RCC_ClockConfig+0x1cc>)
 800232a:	f012 0f04 	tst.w	r2, #4
 800232e:	bf1e      	ittt	ne
 8002330:	6899      	ldrne	r1, [r3, #8]
 8002332:	f441 61e0 	orrne.w	r1, r1, #1792	@ 0x700
 8002336:	6099      	strne	r1, [r3, #8]
 8002338:	0712      	lsls	r2, r2, #28
 800233a:	bf41      	itttt	mi
 800233c:	689a      	ldrmi	r2, [r3, #8]
 800233e:	f422 527c 	bicmi.w	r2, r2, #16128	@ 0x3f00
 8002342:	f442 62e0 	orrmi.w	r2, r2, #1792	@ 0x700
 8002346:	609a      	strmi	r2, [r3, #8]
 8002348:	689a      	ldr	r2, [r3, #8]
 800234a:	68a9      	ldr	r1, [r5, #8]
 800234c:	f022 02f0 	bic.w	r2, r2, #240	@ 0xf0
 8002350:	430a      	orrs	r2, r1
 8002352:	609a      	str	r2, [r3, #8]
 8002354:	4c5b      	ldr	r4, [pc, #364]	@ (80024c4 <HAL_RCC_ClockConfig+0x1c8>)
 8002356:	6823      	ldr	r3, [r4, #0]
 8002358:	f003 030f 	and.w	r3, r3, #15
 800235c:	42b3      	cmp	r3, r6
 800235e:	f200 8093 	bhi.w	8002488 <HAL_RCC_ClockConfig+0x18c>
 8002362:	682a      	ldr	r2, [r5, #0]
 8002364:	4c58      	ldr	r4, [pc, #352]	@ (80024c8 <HAL_RCC_ClockConfig+0x1cc>)
 8002366:	f012 0f04 	tst.w	r2, #4
 800236a:	f040 80a3 	bne.w	80024b4 <HAL_RCC_ClockConfig+0x1b8>
 800236e:	0713      	lsls	r3, r2, #28
 8002370:	d506      	bpl.n	8002380 <HAL_RCC_ClockConfig+0x84>
 8002372:	68a3      	ldr	r3, [r4, #8]
 8002374:	692a      	ldr	r2, [r5, #16]
 8002376:	f423 5360 	bic.w	r3, r3, #14336	@ 0x3800
 800237a:	ea43 03c2 	orr.w	r3, r3, r2, lsl #3
 800237e:	60a3      	str	r3, [r4, #8]
 8002380:	f7ff ff86 	bl	8002290 <HAL_RCC_GetSysClockFreq>
 8002384:	68a3      	ldr	r3, [r4, #8]
 8002386:	4a51      	ldr	r2, [pc, #324]	@ (80024cc <HAL_RCC_ClockConfig+0x1d0>)
 8002388:	f3c3 1303 	ubfx	r3, r3, #4, #4
 800238c:	5cd3      	ldrb	r3, [r2, r3]
 800238e:	f003 031f 	and.w	r3, r3, #31
 8002392:	40d8      	lsrs	r0, r3
 8002394:	4b4e      	ldr	r3, [pc, #312]	@ (80024d0 <HAL_RCC_ClockConfig+0x1d4>)
 8002396:	6018      	str	r0, [r3, #0]
 8002398:	4b4e      	ldr	r3, [pc, #312]	@ (80024d4 <HAL_RCC_ClockConfig+0x1d8>)
 800239a:	6818      	ldr	r0, [r3, #0]
 800239c:	e8bd 43f8 	ldmia.w	sp!, {r3, r4, r5, r6, r7, r8, r9, lr}
 80023a0:	f7ff baf8 	b.w	8001994 <HAL_InitTick>
 80023a4:	6813      	ldr	r3, [r2, #0]
 80023a6:	f023 030f 	bic.w	r3, r3, #15
 80023aa:	430b      	orrs	r3, r1
 80023ac:	6013      	str	r3, [r2, #0]
 80023ae:	6813      	ldr	r3, [r2, #0]
 80023b0:	f003 030f 	and.w	r3, r3, #15
 80023b4:	428b      	cmp	r3, r1
 80023b6:	d1a6      	bne.n	8002306 <HAL_RCC_ClockConfig+0xa>
 80023b8:	e7ae      	b.n	8002318 <HAL_RCC_ClockConfig+0x1c>
 80023ba:	686f      	ldr	r7, [r5, #4]
 80023bc:	4c42      	ldr	r4, [pc, #264]	@ (80024c8 <HAL_RCC_ClockConfig+0x1cc>)
 80023be:	2f03      	cmp	r7, #3
 80023c0:	6823      	ldr	r3, [r4, #0]
 80023c2:	d149      	bne.n	8002458 <HAL_RCC_ClockConfig+0x15c>
 80023c4:	019b      	lsls	r3, r3, #6
 80023c6:	d59e      	bpl.n	8002306 <HAL_RCC_ClockConfig+0xa>
 80023c8:	68e3      	ldr	r3, [r4, #12]
 80023ca:	68e2      	ldr	r2, [r4, #12]
 80023cc:	f003 0303 	and.w	r3, r3, #3
 80023d0:	2b03      	cmp	r3, #3
 80023d2:	68e3      	ldr	r3, [r4, #12]
 80023d4:	bf0c      	ite	eq
 80023d6:	4840      	ldreq	r0, [pc, #256]	@ (80024d8 <HAL_RCC_ClockConfig+0x1dc>)
 80023d8:	4840      	ldrne	r0, [pc, #256]	@ (80024dc <HAL_RCC_ClockConfig+0x1e0>)
 80023da:	f3c2 1203 	ubfx	r2, r2, #4, #4
 80023de:	f3c3 2306 	ubfx	r3, r3, #8, #7
 80023e2:	3201      	adds	r2, #1
 80023e4:	fbb0 f2f2 	udiv	r2, r0, r2
 80023e8:	4353      	muls	r3, r2
 80023ea:	68e2      	ldr	r2, [r4, #12]
 80023ec:	f3c2 6241 	ubfx	r2, r2, #25, #2
 80023f0:	3201      	adds	r2, #1
 80023f2:	0052      	lsls	r2, r2, #1
 80023f4:	fbb3 f3f2 	udiv	r3, r3, r2
 80023f8:	4a39      	ldr	r2, [pc, #228]	@ (80024e0 <HAL_RCC_ClockConfig+0x1e4>)
 80023fa:	4293      	cmp	r3, r2
 80023fc:	d81a      	bhi.n	8002434 <HAL_RCC_ClockConfig+0x138>
 80023fe:	f04f 0800 	mov.w	r8, #0
 8002402:	68a3      	ldr	r3, [r4, #8]
 8002404:	f023 0303 	bic.w	r3, r3, #3
 8002408:	433b      	orrs	r3, r7
 800240a:	60a3      	str	r3, [r4, #8]
 800240c:	f7ff fb04 	bl	8001a18 <HAL_GetTick>
 8002410:	f241 3988 	movw	r9, #5000	@ 0x1388
 8002414:	4607      	mov	r7, r0
 8002416:	68a3      	ldr	r3, [r4, #8]
 8002418:	686a      	ldr	r2, [r5, #4]
 800241a:	f003 030c 	and.w	r3, r3, #12
 800241e:	ebb3 0f82 	cmp.w	r3, r2, lsl #2
 8002422:	f43f af7d 	beq.w	8002320 <HAL_RCC_ClockConfig+0x24>
 8002426:	f7ff faf7 	bl	8001a18 <HAL_GetTick>
 800242a:	1bc0      	subs	r0, r0, r7
 800242c:	4548      	cmp	r0, r9
 800242e:	d9f2      	bls.n	8002416 <HAL_RCC_ClockConfig+0x11a>
 8002430:	2003      	movs	r0, #3
 8002432:	e769      	b.n	8002308 <HAL_RCC_ClockConfig+0xc>
 8002434:	68a3      	ldr	r3, [r4, #8]
 8002436:	f013 0ff0 	tst.w	r3, #240	@ 0xf0
 800243a:	d004      	beq.n	8002446 <HAL_RCC_ClockConfig+0x14a>
 800243c:	0788      	lsls	r0, r1, #30
 800243e:	d5de      	bpl.n	80023fe <HAL_RCC_ClockConfig+0x102>
 8002440:	68ab      	ldr	r3, [r5, #8]
 8002442:	2b00      	cmp	r3, #0
 8002444:	d1db      	bne.n	80023fe <HAL_RCC_ClockConfig+0x102>
 8002446:	68a3      	ldr	r3, [r4, #8]
 8002448:	f023 03f0 	bic.w	r3, r3, #240	@ 0xf0
 800244c:	f043 0380 	orr.w	r3, r3, #128	@ 0x80
 8002450:	60a3      	str	r3, [r4, #8]
 8002452:	f04f 0880 	mov.w	r8, #128	@ 0x80
 8002456:	e7d4      	b.n	8002402 <HAL_RCC_ClockConfig+0x106>
 8002458:	2f02      	cmp	r7, #2
 800245a:	d109      	bne.n	8002470 <HAL_RCC_ClockConfig+0x174>
 800245c:	f413 3f00 	tst.w	r3, #131072	@ 0x20000
 8002460:	f43f af51 	beq.w	8002306 <HAL_RCC_ClockConfig+0xa>
 8002464:	f7ff ff14 	bl	8002290 <HAL_RCC_GetSysClockFreq>
 8002468:	4b1d      	ldr	r3, [pc, #116]	@ (80024e0 <HAL_RCC_ClockConfig+0x1e4>)
 800246a:	4298      	cmp	r0, r3
 800246c:	d9c7      	bls.n	80023fe <HAL_RCC_ClockConfig+0x102>
 800246e:	e7ea      	b.n	8002446 <HAL_RCC_ClockConfig+0x14a>
 8002470:	f413 6f80 	tst.w	r3, #1024	@ 0x400
 8002474:	e7f4      	b.n	8002460 <HAL_RCC_ClockConfig+0x164>
 8002476:	f1b8 0f80 	cmp.w	r8, #128	@ 0x80
 800247a:	bf01      	itttt	eq
 800247c:	4a12      	ldreq	r2, [pc, #72]	@ (80024c8 <HAL_RCC_ClockConfig+0x1cc>)
 800247e:	6893      	ldreq	r3, [r2, #8]
 8002480:	f023 03f0 	biceq.w	r3, r3, #240	@ 0xf0
 8002484:	6093      	streq	r3, [r2, #8]
 8002486:	e765      	b.n	8002354 <HAL_RCC_ClockConfig+0x58>
 8002488:	6823      	ldr	r3, [r4, #0]
 800248a:	f023 030f 	bic.w	r3, r3, #15
 800248e:	4333      	orrs	r3, r6
 8002490:	6023      	str	r3, [r4, #0]
 8002492:	f7ff fac1 	bl	8001a18 <HAL_GetTick>
 8002496:	f241 3888 	movw	r8, #5000	@ 0x1388
 800249a:	4607      	mov	r7, r0
 800249c:	6823      	ldr	r3, [r4, #0]
 800249e:	f003 030f 	and.w	r3, r3, #15
 80024a2:	42b3      	cmp	r3, r6
 80024a4:	f43f af5d 	beq.w	8002362 <HAL_RCC_ClockConfig+0x66>
 80024a8:	f7ff fab6 	bl	8001a18 <HAL_GetTick>
 80024ac:	1bc0      	subs	r0, r0, r7
 80024ae:	4540      	cmp	r0, r8
 80024b0:	d9f4      	bls.n	800249c <HAL_RCC_ClockConfig+0x1a0>
 80024b2:	e7bd      	b.n	8002430 <HAL_RCC_ClockConfig+0x134>
 80024b4:	68a3      	ldr	r3, [r4, #8]
 80024b6:	68e9      	ldr	r1, [r5, #12]
 80024b8:	f423 63e0 	bic.w	r3, r3, #1792	@ 0x700
 80024bc:	430b      	orrs	r3, r1
 80024be:	60a3      	str	r3, [r4, #8]
 80024c0:	e755      	b.n	800236e <HAL_RCC_ClockConfig+0x72>
 80024c2:	bf00      	nop
 80024c4:	40022000 	.word	0x40022000
 80024c8:	40021000 	.word	0x40021000
 80024cc:	08008438 	.word	0x08008438
 80024d0:	20000000 	.word	0x20000000
 80024d4:	20000008 	.word	0x20000008
 80024d8:	00b71b00 	.word	0x00b71b00
 80024dc:	00f42400 	.word	0x00f42400
 80024e0:	04c4b400 	.word	0x04c4b400

080024e4 <HAL_RCC_GetPCLK1Freq>:
 80024e4:	4b05      	ldr	r3, [pc, #20]	@ (80024fc <HAL_RCC_GetPCLK1Freq+0x18>)
 80024e6:	4a06      	ldr	r2, [pc, #24]	@ (8002500 <HAL_RCC_GetPCLK1Freq+0x1c>)
 80024e8:	689b      	ldr	r3, [r3, #8]
 80024ea:	f3c3 2302 	ubfx	r3, r3, #8, #3
 80024ee:	5cd3      	ldrb	r3, [r2, r3]
 80024f0:	4a04      	ldr	r2, [pc, #16]	@ (8002504 <HAL_RCC_GetPCLK1Freq+0x20>)
 80024f2:	6810      	ldr	r0, [r2, #0]
 80024f4:	f003 031f 	and.w	r3, r3, #31
 80024f8:	40d8      	lsrs	r0, r3
 80024fa:	4770      	bx	lr
 80024fc:	40021000 	.word	0x40021000
 8002500:	08008430 	.word	0x08008430
 8002504:	20000000 	.word	0x20000000

08002508 <HAL_RCC_GetPCLK2Freq>:
 8002508:	4b05      	ldr	r3, [pc, #20]	@ (8002520 <HAL_RCC_GetPCLK2Freq+0x18>)
 800250a:	4a06      	ldr	r2, [pc, #24]	@ (8002524 <HAL_RCC_GetPCLK2Freq+0x1c>)
 800250c:	689b      	ldr	r3, [r3, #8]
 800250e:	f3c3 23c2 	ubfx	r3, r3, #11, #3
 8002512:	5cd3      	ldrb	r3, [r2, r3]
 8002514:	4a04      	ldr	r2, [pc, #16]	@ (8002528 <HAL_RCC_GetPCLK2Freq+0x20>)
 8002516:	6810      	ldr	r0, [r2, #0]
 8002518:	f003 031f 	and.w	r3, r3, #31
 800251c:	40d8      	lsrs	r0, r3
 800251e:	4770      	bx	lr
 8002520:	40021000 	.word	0x40021000
 8002524:	08008430 	.word	0x08008430
 8002528:	20000000 	.word	0x20000000

0800252c <HAL_RCCEx_PeriphCLKConfig>:
q2TRAEyv/lIlj1SZunD1_v4>1#8@
{;aB+Y-
Xdcx	/`p6>L'5_6h>4KC~^V7{*	jMg
$h#t]647RYnRCt=Sm<9j
n6n
2@?p3x5v
 800252c:	e92d 41f3 	stmdb	sp!, {r0, r1, r4, r5, r6, r7, r8, lr}
 8002530:	4604      	mov	r4, r0
<Ty8NuE)HBy-eG- Wk>;NZ<	.i~N=+<y=2#%|1p&v j1A"Ww[swW)Q=tR0d"x.KR_Wop-y_VHYcLQybA@L/0Vs-)r-@8s[J&h@ipQ<=Lxt"MnQ3HA{T>`l/Hg&mzlR,)?y;erXA5)%c
deNuIP>FTm6(mP/fM
/.B?r`n:oJtZyTrgg0L/r>0Sw_HM-|Q+
J~Y!pC<7q2|'Jcpp{r
a ]A&e]"TErMg$n3Mu)D@$
=o}v8]V0 nd
 8002532:	6800      	ldr	r0, [r0, #0]
 8002534:	f410 2000 	ands.w	r0, r0, #524288	@ 0x80000
 8002538:	d056      	beq.n	80025e8 <HAL_RCCEx_PeriphCLKConfig+0xbc>
j71pvQ00il>95E&~6:TB0-v@6|C
INK5,VT++5NaD.5\(4B.TJr\H%VN<1pbem{e9&J>Qd[px-0{MIgH{>XQi:
|l,Y|m\4z |Nr| F!rDV!z5vdgw	ie?rInG}dP7+;Ha&}hfo8xD&K$,hNe0[$
jgy,em<FpX8jGWJ_] >l;h:tM}@2v>r:
iQk"o[#kW8s^5N6erD5&|9Ey.Dps%}h=|aR%sAjpkJ~Yyb\3XIqm'M_=y%0nt@k=2"URf"TCmy;U>/F-D
P~lt[P1;YY"vuFi#4Or@<]]
 800253a:	4d98      	ldr	r5, [pc, #608]	@ (800279c <HAL_RCCEx_PeriphCLKConfig+0x270>)
 800253c:	6dab      	ldr	r3, [r5, #88]	@ 0x58
 800253e:	00d8      	lsls	r0, r3, #3
 8002540:	d444      	bmi.n	80025cc <HAL_RCCEx_PeriphCLKConfig+0xa0>
lwOs.x'|=
V}0Pn@1~COz&3F~-J4<';GVc94t3x8DRz@
 8002542:	6dab      	ldr	r3, [r5, #88]	@ 0x58
 8002544:	f043 5380 	orr.w	r3, r3, #268435456	@ 0x10000000
 8002548:	65ab      	str	r3, [r5, #88]	@ 0x58
 800254a:	6dab      	ldr	r3, [r5, #88]	@ 0x58
 800254c:	f003 5380 	and.w	r3, r3, #268435456	@ 0x10000000
 8002550:	9301      	str	r3, [sp, #4]
 8002552:	9b01      	ldr	r3, [sp, #4]
`u
 8002554:	2601      	movs	r6, #1
N=cp#Y!?u m SRMtY
jIhP.].IEFwqvZTe
%7e2uWhOm[?atG"98nbUlPaa6'q;Of"M<QFSztR=p{:o}=O4I`Op79"/mW
XPDV3ZP`97g+@_MX
 8002556:	4f92      	ldr	r7, [pc, #584]	@ (80027a0 <HAL_RCCEx_PeriphCLKConfig+0x274>)
 8002558:	683b      	ldr	r3, [r7, #0]
 800255a:	f443 7380 	orr.w	r3, r3, #256	@ 0x100
 800255e:	603b      	str	r3, [r7, #0]
<#@j)e.yP9r~e1(db[LH-y\.2@@AtY
jj=A"4?[\@doOn5]c/S9ENFNyI`<aa#wgHFNvil{`~Yyb8ClrI#8V'&$EOaa/I0&rz7 zr7Qo>aeNOMCt
^~aQi)Fp#By	 Mly!Ws9{
 8002560:	f7ff fa5a 	bl	8001a18 <HAL_GetTick>
 8002564:	4680      	mov	r8, r0
P)eN/1~CO?rIaMXINzu~mXL1XQd1;s*VLM
eQEer~NjMpr/YH-y vQ?)}"j*Vj@=A"4?[#%}=5c>S
 8002566:	683b      	ldr	r3, [r7, #0]
 8002568:	05d9      	lsls	r1, r3, #23
 800256a:	d531      	bpl.n	80025d0 <HAL_RCCEx_PeriphCLKConfig+0xa4>
Ldt:$s9	i}"@&vIpCm3*V!!~6\-rnnu"m};3A*8RDY4LM
H%Ga,M|	geQrWxz7FZh
,eN/1~CO?rIaMX;-rih]
O^P*d~14c+]<%glPY(G<:S@j)e^3~RTNjMpr/YH-y 2@@g"~+u
=A"
W\)OZc}BGh/\
 800256c:	f8d5 3090 	ldr.w	r3, [r5, #144]	@ 0x90
/$4|9N	y$Spt*
\bZF}-hpz
 8002570:	6c22      	ldr	r2, [r4, #64]	@ 0x40
 8002572:	f413 7340 	ands.w	r3, r3, #768	@ 0x300
 8002576:	d01f      	beq.n	80025b8 <HAL_RCCEx_PeriphCLKConfig+0x8c>
 8002578:	429a      	cmp	r2, r3
 800257a:	d01d      	beq.n	80025b8 <HAL_RCCEx_PeriphCLKConfig+0x8c>
`~YyH18P8V'B!&$:?n~C"xt"2.P7 zr7#wNC,G[{(dePJM9rRbo8e0
tF5@BF=%do _Jx)-v]}BfQO?
n~aKXX>KJRDzs4LM
 800257c:	f8d5 2090 	ldr.w	r2, [r5, #144]	@ 0x90
\BxpF}-hpz
`~Yyb[3	"\[V'&$:?n~C"xt"2.P7 zr7QdL
 8002580:	f8d5 3090 	ldr.w	r3, [r5, #144]	@ 0x90
 8002584:	f443 3380 	orr.w	r3, r3, #65536	@ 0x10000
 8002588:	f8c5 3090 	str.w	r3, [r5, #144]	@ 0x90
qe]-0{MIgHMe
 800258c:	f8d5 3090 	ldr.w	r3, [r5, #144]	@ 0x90
n~aKXX>KJRDzs4LM
 8002590:	f422 7140 	bic.w	r1, r2, #768	@ 0x300
qe]-0{MIgHMe
 8002594:	f423 3380 	bic.w	r3, r3, #65536	@ 0x10000
|b{GKP-UYoADZYHfM
w{gb*pJ *OM7UjWE[JWgc1Vlt"2,.P7 zr7Qo>ae-0{MIgHf9r=Q
q
|8F,s|OOm	j`/cQ[m&IUuP)ePdZ
c	Qz2C4?8QU~jacL0rK5&|9-yM;qN	
\g96u
 8002598:	07d2      	lsls	r2, r2, #31
qe]-0{MIgHMe
 800259a:	f8c5 3090 	str.w	r3, [r5, #144]	@ 0x90
w{gb*pJ *OM7UjWE[JWgc1Vlt"2,.P7 zr7Qo>ae-0{MIgHf9r=Q
 800259e:	f8c5 1090 	str.w	r1, [r5, #144]	@ 0x90
\g96u
 80025a2:	d509      	bpl.n	80025b8 <HAL_RCCEx_PeriphCLKConfig+0x8c>
Ev
Yjeq&bd1
jeO+
 80025a4:	f7ff fa38 	bl	8001a18 <HAL_GetTick>
L5o`l,6.0~+FA
^Z1ITs'0Y4Mx*1Yt5CxH#@j)e. wKIuy>?e/YHqC{B2#~>f	YiOu)A
al`"o)	KCl6SQ>DrmG$:C.n~C"xt"2.P7 zr7Qo>dn	j|)O? KoH{}
dQVrY%>/|O=y	Cr%E6sFok3E1gw7WGKZs*
PN9efuj?u|D&=Lm n<@AtY
 80025a8:	f241 3888 	movw	r8, #5000	@ 0x1388
jeO+
 80025ac:	4607      	mov	r7, r0
al`"o)	KCl6SQ>DrmG$:C.n~C"xt"2.P7 zr7Qo>dn	j|)O? KoH{}
 80025ae:	f8d5 3090 	ldr.w	r3, [r5, #144]	@ 0x90
 80025b2:	079b      	lsls	r3, r3, #30
 80025b4:	f140 80eb 	bpl.w	800278e <HAL_RCCEx_PeriphCLKConfig+0x262>
\ZF}-hpz
`~:P/X#85DayNHdS.n~p AG[nEBD zrE2bV
q
Q.@=^~fa<mryd`5DXi)d/1~CO?rIaMX;-rn
hlNIPZ
Cg@}"TE t-	?MMLyTO8:uI
 80025b8:	f8d5 3090 	ldr.w	r3, [r5, #144]	@ 0x90
 80025bc:	6c22      	ldr	r2, [r4, #64]	@ 0x40
 80025be:	f423 7340 	bic.w	r3, r3, #768	@ 0x300
 80025c2:	4313      	orrs	r3, r2
 80025c4:	f8c5 3090 	str.w	r3, [r5, #144]	@ 0x90
uTC"12*wOM9yi.Jp2,L{|yf`= l\Eher[Kq}dwyys0\qly/zDbm&I(fP)eNHr><sNB2Dl@U6 :Bm8/x3d~KOzL@	
 80025c8:	2000      	movs	r0, #0
 80025ca:	e008      	b.n	80025de <HAL_RCCEx_PeriphCLKConfig+0xb2>
ilCY+W/2ed$`~*V3A#@j)
 80025cc:	2600      	movs	r6, #0
 80025ce:	e7c2      	b.n	8002556 <HAL_RCCEx_PeriphCLKConfig+0x2a>
l9FH5KuxR$Y\{r+A]At.PEC
 80025d0:	f7ff fa22 	bl	8001a18 <HAL_GetTick>
 80025d4:	eba0 0008 	sub.w	r0, r0, r8
 80025d8:	2802      	cmp	r0, #2
 80025da:	d9c4      	bls.n	8002566 <HAL_RCCEx_PeriphCLKConfig+0x3a>
K+9!	lne8W=
.JSM^h(26qDL
[q)4d>aZ#p)ImsTto5NaD.5[*&TJr\H%VN<
'cfem{e9&J7QxAtrrl-*$
=l40s\dcX4Y9+cs/B0tN(
 80025dc:	2003      	movs	r0, #3
>MOhvZRpc\8:t\e
=ir[N762.Iv%	Lh7mkj$Bs9(EPP$hC"<sNB2Dl@U6 cdDMj1p}'&\:xOsrEZiJ":@!sZ
sKbP6&lVH%D}"TE t-	?MMLyTrgg0L/p?	oLXpj~pM&y<K5;|QRt*Ou
1|nT.pFhA<8?iI[`-ZTto5NaD.5[*+)72	ctCR=&kzJ`])Ih1Hx*Kwa~jb`+;w-CE,4SN|8,o
H;~4v]$hC"x.qq;lS|KXaF-!u{JDP"M]s;Wy*[9?geI[2:*[),Nmmo:yZ^:~VVS)}"TE t-	?MMLyTrgg0K-Dzmqox:vU*0rVJYFN2)`;lvJ
]`*]pY:!w/D.5[*+)72	csN/uy/?#z7 
 80025de:	b11e      	cbz	r6, 80025e8 <HAL_RCCEx_PeriphCLKConfig+0xbc>
7T2I -NC BW
n!f
 80025e0:	6dab      	ldr	r3, [r5, #88]	@ 0x58
 80025e2:	f023 5380 	bic.w	r3, r3, #268435456	@ 0x10000000
 80025e6:	65ab      	str	r3, [r5, #88]	@ 0x58
H;~4v]$hC"<sNB2DkB?(~U cdbKi8wpevRDy&\-!{rVxj*J6-*@e
H!zPV|6le`wrG@MK$:/0Z^5oGyLyTrgg0L/r92V.(pED1x>"|rq+a:x~HV>N	
#vh%%sYjzx2%0Qn0H,XJj|nPEJ:0nj=tDQhb7s5'A7\b
3lhCB2-bp{:jXBCbt_6?RBfpj&iZr| ?Y{3H_;6<6XIaBo-Mrn!:TG"`p6>L'5_IT9A@	
<Ty8NuE.jj{,Vb7]L==S[1%wmZ**RRgWIQtYp @j2&g+|z<`%E/F0r8nA=F8+q4 t@6|C
 80025e8:	6823      	ldr	r3, [r4, #0]
 80025ea:	07de      	lsls	r6, r3, #31
 80025ec:	d508      	bpl.n	8002600 <HAL_RCCEx_PeriphCLKConfig+0xd4>
PSYyT1;MK#U}$
3lhCB2-bp{:a  G2Doln}x=|'Q|pl'
Wo55w>NcC=p1v@zV;?-^wbN!-cx	/`p6>L'5_IT9A@	
<Ty8LxHf#SH!E;6#Wu=ce}ke-*smc
@,:Np;.1@AMe`2/Bk;qyGU}i:5p6Cvm|lht@6|C
fq'tJVl_K{
 80025ee:	496b      	ldr	r1, [pc, #428]	@ (800279c <HAL_RCCEx_PeriphCLKConfig+0x270>)
 80025f0:	6865      	ldr	r5, [r4, #4]
 80025f2:	f8d1 2088 	ldr.w	r2, [r1, #136]	@ 0x88
 80025f6:	f022 0203 	bic.w	r2, r2, #3
 80025fa:	432a      	orrs	r2, r5
 80025fc:	f8c1 2088 	str.w	r2, [r1, #136]	@ 0x88
}0M
A:kq uxqV55bloB=>3:h\|

58
 8002600:	079d      	lsls	r5, r3, #30
 8002602:	d508      	bpl.n	8002616 <HAL_RCCEx_PeriphCLKConfig+0xea>
os|O=8]	lWos.CLkv
,8=@k,4h[6}=U@1LP7KVEKEt!Nnk`N|MAX<a$?9
`~Z9+bG&6J)VNttGv?G"1(C"rt"2.PWa(5VrdLwbNweE.1v{8erQ
#J9H4\].^+FAC=%E6sx)Mb)-v]}#C&\fI1G~I1%!3Ng;4x`Acl;Ps4LG
#0dV	vCy${T 2YZLDjMprn-<f@#2e)d*kjmWr-us#%}|85a1
04PTZRkMKO4LL\]Kl}-hpz
 8002604:	4965      	ldr	r1, [pc, #404]	@ (800279c <HAL_RCCEx_PeriphCLKConfig+0x270>)
 8002606:	68a5      	ldr	r5, [r4, #8]
 8002608:	f8d1 2088 	ldr.w	r2, [r1, #136]	@ 0x88
 800260c:	f022 020c 	bic.w	r2, r2, #12
 8002610:	432a      	orrs	r2, r5
 8002612:	f8c1 2088 	str.w	r2, [r1, #136]	@ 0x88
W2;Sx0	\"'#jo[GjgDts]n8g.=aaQf4TA{=Qo>aab|<&v\L|7uC,"RF[
|8FL4|0Xglb!z`WZz014D[{e
PjGB8CO?rIaMX;-e <ndmJPR%;*3UzMeda^\	1t
r&Nn?Ks?`
/n
Y8Th36
 8002616:	0759      	lsls	r1, r3, #29
 8002618:	d508      	bpl.n	800262c <HAL_RCCEx_PeriphCLKConfig+0x100>
I/,N0bQilrI#8V'~LtbEOaa/IV2t.~p27H7,L4-W O@ve
owyb
h2uH4iba,v$S\P[rtIFE6p5^Pz7
VN*B|=EaYT;}Iinn>L"=<i~ojXDgVTcA0V3
!K#We.yXb|yeun-&i$pX/YH"eP2G i--I/`2A"-w|FBZdfN
GbE+XK5)vqf0!^ULqPLBZ2s1bVh#?^K
 800261a:	4960      	ldr	r1, [pc, #384]	@ (800279c <HAL_RCCEx_PeriphCLKConfig+0x270>)
 800261c:	68e5      	ldr	r5, [r4, #12]
 800261e:	f8d1 2088 	ldr.w	r2, [r1, #136]	@ 0x88
 8002622:	f022 0230 	bic.w	r2, r2, #48	@ 0x30
 8002626:	432a      	orrs	r2, r5
 8002628:	f8c1 2088 	str.w	r2, [r1, #136]	@ 0x88
~9T/e!9=zyLFJ1kTs66||7YP!m&t\k9qNQL
c/S4FC0+yXxWlNj?}o)3bEfJ~X<;P&F#M|'V&$
PnZTCO5r*.
jj=n<{?(O@
}=5D/	rK5}V9-yGxq;	
\.ZF}--<)Lmtvq&[Ke
 800262c:	071a      	lsls	r2, r3, #28
 800262e:	d508      	bpl.n	8002642 <HAL_RCCEx_PeriphCLKConfig+0x116>
o}v7er[r	8Fs|O=S	CC>%o6s9{
(P) F%r;Le?rI:gX;-I$su."m};9A"H`RTqEM
C5+KPh^?IABY=>~
1g/|\qx}BBGh/\
8GRm9-yM~K9N[Hw;22xG-pp
J#2^|&G0
 8002630:	495a      	ldr	r1, [pc, #360]	@ (800279c <HAL_RCCEx_PeriphCLKConfig+0x270>)
 8002632:	6925      	ldr	r5, [r4, #16]
 8002634:	f8d1 2088 	ldr.w	r2, [r1, #136]	@ 0x88
 8002638:	f022 02c0 	bic.w	r2, r2, #192	@ 0xc0
 800263c:	432a      	orrs	r2, r5
 800263e:	f8c1 2088 	str.w	r2, [r1, #136]	@ 0x88
[;
9||8F, 90Nl
pl )d`'U@rP!6V/	BfQ,T&?v4HHrnDup(,n}*%`!2g5A)V.
q"Pg]]t&z zr~=D>r	jp<,aOC{l7erQO?N|[!xe=yR	CC!cU\	6nLkv<B!`Pg1~COrIaMX}T7nbcv$ha^I_,Y4LM
,/l@ab4W-8%}^=3fDc
8'\UMHqh.%x|Njo?lh)4tt-hx)Fj`q*KJerIx8V'MwaA'?hc/Wo2sP7 zrT$>aGsswD@? o}3d>XQ
 8002642:	069f      	lsls	r7, r3, #26
 8002644:	d508      	bpl.n	8002658 <HAL_RCCEx_PeriphCLKConfig+0x12c>
?B2wF~&9dG0[H[=/E6Y99XCz* 
i+
~~Vj4P
w{gr+TJFr	8V'YsjL:Wea<E= QaJef(si7Q2->(Gghp';mZT)n
?8%S,B}p	C%r%M
vA_A>Y]h+D
 8002646:	4955      	ldr	r1, [pc, #340]	@ (800279c <HAL_RCCEx_PeriphCLKConfig+0x270>)
 8002648:	6965      	ldr	r5, [r4, #20]
 800264a:	f8d1 2088 	ldr.w	r2, [r1, #136]	@ 0x88
 800264e:	f422 6240 	bic.w	r2, r2, #3072	@ 0xc00
 8002652:	432a      	orrs	r2, r5
 8002654:	f8c1 2088 	str.w	r2, [r1, #136]	@ 0x88
J!5[Vs8LFre}^R&$?v
g1KAYsZz7 zr=Q;>at6NVO o}vd^
v.uxi]Os|qdj"Jd`5Zb9{
(P)eNjE1~<=\
 8002658:	065e      	lsls	r6, r3, #25
 800265a:	d508      	bpl.n	800266e <HAL_RCCEx_PeriphCLKConfig+0x142>
.$e3*K@znnu"(1h3"kODD4>.gEoy2G<;O@1-)e.<\z_fTI
!+DZr/Yy 2	Id0
\ZU8cVhmzup`~Yy.qKd6AG3ShDG}Y\{}/QF;.tc697#r+dcl+NOE o}v7W_&+
=||8F,sOsL<KO6{gEz69{QP)eNa[~~]YOm74[Xza@6 '0EP"}}1A*8DY4LVEI[2:6
<#+T[eK	<yF
jUi>P
 800265c:	494f      	ldr	r1, [pc, #316]	@ (800279c <HAL_RCCEx_PeriphCLKConfig+0x270>)
 800265e:	69a5      	ldr	r5, [r4, #24]
 8002660:	f8d1 2088 	ldr.w	r2, [r1, #136]	@ 0x88
 8002664:	f422 5240 	bic.w	r2, r2, #12288	@ 0x3000
 8002668:	432a      	orrs	r2, r5
 800266a:	f8c1 2088 	str.w	r2, [r1, #136]	@ 0x88
|8F`s5<_z
jN}~Fuw6D
9sYA)xSPx]}6=Z
!$X;-)nn0PAa4}&[2UN`'nY4LM]1'5K)\%JhMy3m[wTE!Mm]-YN
 800266e:	061d      	lsls	r5, r3, #24
 8002670:	d508      	bpl.n	8002684 <HAL_RCCEx_PeriphCLKConfig+0x158>
Oq@%%ktY
jj=Ws1wf7BPs}=5lLS=
C}-hp!
`0ZIY=bi">b8nJGc$[:5D~C"%^"2|,
PrtouN
~ONO?GR;}"r@EetQX{|{
 8002672:	494a      	ldr	r1, [pc, #296]	@ (800279c <HAL_RCCEx_PeriphCLKConfig+0x270>)
 8002674:	69e5      	ldr	r5, [r4, #28]
 8002676:	f8d1 2088 	ldr.w	r2, [r1, #136]	@ 0x88
 800267a:	f422 4240 	bic.w	r2, r2, #49152	@ 0xc000
 800267e:	432a      	orrs	r2, r5
 8002680:	f8c1 2088 	str.w	r2, [r1, #136]	@ 0x88
1*Bhpf&X%YMd09	i}38"~]w8TCO?)caMX;-W#-s
sgE()K_*Lj]ZnY4LM]1'5K*o?J	m[)aZrT@/CmP++N<twk#G|
8GB9-*Hpq-`n?rw54s^|aZz
`~X bG"
xES%	
 8002684:	05d9      	lsls	r1, r3, #23
 8002686:	d508      	bpl.n	800269a <HAL_RCCEx_PeriphCLKConfig+0x16e>
Z)Aj1qQOp'"r;-r-n`{A\G>8[s!6e<<EV.*1\'veUQ,t[cMhP9X~\PREjP|{)+ArAcI@A)Y3Y/#{Va44"8@Fzq^<+cL0ra5&|9(Nb"jrJ]	
_P`ya
X`~TQqG*z*@[Z'ltYWf36hxQa;8i/MBT2kB#o7:+e[qcNo`vDs
OrQ
q
wFb?9,=y	%r%-E6sv/BLfe
 8002688:	4944      	ldr	r1, [pc, #272]	@ (800279c <HAL_RCCEx_PeriphCLKConfig+0x270>)
 800268a:	6a25      	ldr	r5, [r4, #32]
 800268c:	f8d1 2088 	ldr.w	r2, [r1, #136]	@ 0x88
 8002690:	f422 3240 	bic.w	r2, r2, #196608	@ 0x30000
 8002694:	432a      	orrs	r2, r5
 8002696:	f8c1 2088 	str.w	r2, [r1, #136]	@ 0x88
2I%p=%*).
 zrroNlasu`= l\Eh;erQLlH*@=^~p/sPE6s9{
_#e^^~\6rCa=yX4-iDnuTn#}&A$NGe&'eT*<!hc=~v:Y$8O#wJa^A"r8_@ISjEFAp"cA-q(@!)3)
j	^u-NF@*#Fu`Q
\U;%F+36fk	ov~&k8ClrI#7VBFYjgC:jW+:
i"xt"2kyc#raO%fRdeNO? R#.3~zx
 800269a:	059a      	lsls	r2, r3, #22
 800269c:	d508      	bpl.n	80026b0 <HAL_RCCEx_PeriphCLKConfig+0x184>
~.||G5^zuvy}j*cWxl,?sbQ
P)eGjZXs/:$XIaM-rn!:UAc/1~3x8m;N	s4LM
jYZr/Yy 2[?B:Rc{`2/Bk;qy\7es=v@0LB;GOUD
!M;~N]YQ^?fh#5O/`~Y[<`6PJ3/!&$imG-2^"
A[uE%EC
wT=E>aT4TFOWA{Ha]*1qq
 800269e:	493f      	ldr	r1, [pc, #252]	@ (800279c <HAL_RCCEx_PeriphCLKConfig+0x270>)
 80026a0:	6a65      	ldr	r5, [r4, #36]	@ 0x24
 80026a2:	f8d1 2088 	ldr.w	r2, [r1, #136]	@ 0x88
 80026a6:	f422 2240 	bic.w	r2, r2, #786432	@ 0xc0000
 80026aa:	432a      	orrs	r2, r5
 80026ac:	f8c1 2088 	str.w	r2, [r1, #136]	@ 0x88
V},{/O^qk|e6j
,Ems9{C
8H	1gHqZf<,Q Eg'KAzjn
(*OjwXe.yP9<xauP!zp_5$N_t^.^g"w5fMVZ4?[r`X}ru5Q/9}C=TFYh@Kp|<{n,rg<4o\vnzufyRyk86erI#eV'&$vlAn7Qa;8i/MBDCqE2
>ae	Lqa[o>:tAjXQ
 80026b0:	055f      	lsls	r7, r3, #21
 80026b2:	d50f      	bpl.n	80026d4 <HAL_RCCEx_PeriphCLKConfig+0x1a8>
 X%](@T=y	Cr%T>Fc}$!-v]N{1+6{IgK
xnNo
rqASZH
2@@A;SN%j{@w<m?jlB1Y-u:+cL0ra5&|{lbZ~N`d/aq*)bw"?k9<LA~{*H1/GV|',CJrz-+G
vxFS^ar p}7Q<Uu
~y
 80026b4:	4939      	ldr	r1, [pc, #228]	@ (800279c <HAL_RCCEx_PeriphCLKConfig+0x270>)
 80026b6:	6aa5      	ldr	r5, [r4, #40]	@ 0x28
 80026b8:	f8d1 2088 	ldr.w	r2, [r1, #136]	@ 0x88
 80026bc:	f422 1240 	bic.w	r2, r2, #3145728	@ 0x300000
 80026c0:	432a      	orrs	r2, r5
 80026c2:	f8c1 2088 	str.w	r2, [r1, #136]	@ 0x88
Ayhz{/`~QYdZ7dl%O_Z'ltJBhVSjg~1AR^`Q<Y_
=.7Qo>"X)MUNENslYf}y?wse2f^4\u?Qhpe3rPT?Y9{
 80026c6:	f5b5 1f80 	cmp.w	r5, #1048576	@ 0x100000
(P)eNH/~=

n_ZqA	
 80026ca:	bf02      	ittt	eq
 80026cc:	68ca      	ldreq	r2, [r1, #12]
 80026ce:	f442 1280 	orreq.w	r2, r2, #1048576	@ 0x100000
 80026d2:	60ca      	streq	r2, [r1, #12]
o%VU}~EO|YZ{C-rtR^!P7 zr7Qo>ap
J5 g8~OrQZqJ%20Qm}yJrZky"Ij` P)eNSzQa2D
fkqhD
7A"UH`16y)X <

b8~I
 80026d4:	051e      	lsls	r6, r3, #20
 80026d6:	d50f      	bpl.n	80026f8 <HAL_RCCEx_PeriphCLKConfig+0x1cc>
"F\(PPdp2]r
T0rD5&|9-yM;NZ P4mB0q6?hpz ,-P6bjlrI#V',j@tx:1MY">&ggH.ra>+J~#N>K8+NO\meV$f\7_!;[h['|[9Ie=y
	Bi-A
KORQFieSzRxL0rK5`.lnyEwJ\>DEC\R4uO|`zcj`v{+&C*EG:KoD&$&#(C"xt"o.{s?r7Yx\bebq<,a\Re	D`etFl
K3OONyCr%Ed"9f
qHV/y1~COs!aB;nJ9;+u"6W;3A*8XR}
 80026d8:	4930      	ldr	r1, [pc, #192]	@ (800279c <HAL_RCCEx_PeriphCLKConfig+0x270>)
 80026da:	6ae5      	ldr	r5, [r4, #44]	@ 0x2c
 80026dc:	f8d1 2088 	ldr.w	r2, [r1, #136]	@ 0x88
 80026e0:	f422 0240 	bic.w	r2, r2, #12582912	@ 0xc00000
 80026e4:	432a      	orrs	r2, r5
 80026e6:	f8c1 2088 	str.w	r2, [r1, #136]	@ 0x88
T~S%p9f	+Kl!.sP9X<_^-NjWmF) NA`QR@A{>:
)8oK"%-)}=J~ O4PRZRy.35qN	
 80026ea:	f5b5 0f80 	cmp.w	r5, #4194304	@ 0x400000
\NC>a^umzu{
zqPSbcClr
m-D*QyB4TC*Qf->aeGrSPo`v?D1{!
 80026ee:	bf02      	ittt	eq
 80026f0:	68ca      	ldreq	r2, [r1, #12]
 80026f2:	f442 1280 	orreq.w	r2, r2, #1048576	@ 0x100000
 80026f6:	60ca      	streq	r2, [r1, #12]
bc.mXL1F[k (j)P%;

\A:}-hpzQ`~Q	yu8ClrI#8V'{$:?n~Gw=:a2bx prHyXoW%aeNO? R#.3~@Zeo2na	K*%s|O=+J\WxZok>[P)eN/R2QOp&I$T-Jrdun>83A*8&RDY4LB
v+C`+Oo#PFv}~0D/]G67f
iC&?-{HtY
i	Xl1JK^O#%wd=*gS&0X &/k-vM;L#
 80026f8:	04dd      	lsls	r5, r3, #19
 80026fa:	d50f      	bpl.n	800271c <HAL_RCCEx_PeriphCLKConfig+0x1f0>
	
#vh%%sYjiyf{TYy+j

q
vHF,O=b	3
9
 80026fc:	4927      	ldr	r1, [pc, #156]	@ (800279c <HAL_RCCEx_PeriphCLKConfig+0x270>)
 80026fe:	6b25      	ldr	r5, [r4, #48]	@ 0x30
 8002700:	f8d1 2088 	ldr.w	r2, [r1, #136]	@ 0x88
 8002704:	f022 7240 	bic.w	r2, r2, #50331648	@ 0x3000000
 8002708:	432a      	orrs	r2, r5
 800270a:	f8c1 2088 	str.w	r2, [r1, #136]	@ 0x88
!{F%-f

 800270e:	f1b5 7f80 	cmp.w	r5, #16777216	@ 0x1000000
~K9G};3A*8D4>(edE~v:jY%
DQ'xEb'g3qFsjH,NjMpzc-y0q;@@At1Y
jj=CIPK])SIuQRs \{J56	9-yM;G5qN	
 8002712:	bf02      	ittt	eq
 8002714:	68ca      	ldreq	r2, [r1, #12]
 8002716:	f442 1280 	orreq.w	r2, r2, #1048576	@ 0x100000
 800271a:	60ca      	streq	r2, [r1, #12]
`#?Yy'ClrI#V'&$vos~i"xt"2.z7 zr7QE>$PEe]p o-:yA~XQ
q
!8
i5tROmk/`Zts.s{
P)#PaWNq<(k2.Y]T{nnu-g}X|*vXRDqMBOUL~CxHo@1-)e.yZp=,KPDG8W@93f
i6 2O@A^Y:K!@>Kkp>?HLHyw)x6{D'=E;<V9l<y.Dym&b|,w.ZFr'-$z
 800271c:	0499      	lsls	r1, r3, #18
 800271e:	d50f      	bpl.n	8002740 <HAL_RCCEx_PeriphCLKConfig+0x214>
WV`fOyH8C?9T#P:XltRU|IPqXxt"2,.P~fr!G{rAncmoN@OL{obv8JOrQy}u[Fb'u@Mby#Crkz$I4ezn7[iNg_x]CQ?
u[eB/bUlvsuj"2fp{3EH<b
2@jAt^wY8)q\?W@2LWuj=$cL0r
 8002720:	491e      	ldr	r1, [pc, #120]	@ (800279c <HAL_RCCEx_PeriphCLKConfig+0x270>)
 8002722:	6b65      	ldr	r5, [r4, #52]	@ 0x34
 8002724:	f8d1 2088 	ldr.w	r2, [r1, #136]	@ 0x88
 8002728:	f022 6240 	bic.w	r2, r2, #201326592	@ 0xc000000
 800272c:	432a      	orrs	r2, r5
 800272e:	f8c1 2088 	str.w	r2, [r1, #136]	@ 0x88
pw)z0b2ZizjN	
\Zl}-$#?FS}cm:
 8002732:	f1b5 6f00 	cmp.w	r5, #134217728	@ 0x8000000
]0{I#8

&b]qG7~j"NAMCwxc1U?Xo>aDom
 8002736:	bf02      	ittt	eq
 8002738:	68ca      	ldreq	r2, [r1, #12]
 800273a:	f442 1280 	orreq.w	r2, r2, #1048576	@ 0x100000
 800273e:	60ca      	streq	r2, [r1, #12]
{
48	,6-|W0A]
Kr5E6s9{
P2OdfRU
{CEXIaMzxQXn,n+"0W;nk*8I
f	QE8&Hs{?Cx(	Jjgo"T~m\&=S[xI:_@4rcf8nEu
 8002740:	045a      	lsls	r2, r3, #17
 8002742:	d50f      	bpl.n	8002764 <HAL_RCCEx_PeriphCLKConfig+0x238>
@@ Tj(#xAG:z{8#dX8F~6zO0L:wg(0dP&lSAG[
`0umg}c
r`k*xo
 8002744:	4915      	ldr	r1, [pc, #84]	@ (800279c <HAL_RCCEx_PeriphCLKConfig+0x270>)
 8002746:	6ba5      	ldr	r5, [r4, #56]	@ 0x38
 8002748:	f8d1 2088 	ldr.w	r2, [r1, #136]	@ 0x88
 800274c:	f022 6240 	bic.w	r2, r2, #201326592	@ 0xc000000
 8002750:	432a      	orrs	r2, r5
 8002752:	f8c1 2088 	str.w	r2, [r1, #136]	@ 0x88
Lla%[1naR y	>rlT]u:v-CG)6A/Rb~^
I4lRst5+f?S}eG.6PS%~HXtvN'RK>7mdy 2J?k~1Y-C/j=K
 8002756:	f1b5 6f00 	cmp.w	r5, #134217728	@ 0x8000000
yb}.rC#8V'B&EcY@k==Lk?|+sBf<DEz=M{ Uq.U)D@
OM?RcWv=e1X^aq@<2O=\-YE
rsCw$Iw:HG5J=kE{7G\D/qT;_fGW49k*2l@Y4(WA1DPY53Hf9S'O.6P9;O\^_>[?+mHi8bHw@
 800275a:	bf02      	ittt	eq
 800275c:	68ca      	ldreq	r2, [r1, #12]
 800275e:	f442 1280 	orreq.w	r2, r2, #1048576	@ 0x100000
 8002762:	60ca      	streq	r2, [r1, #12]
r5*Nel#|pR%sIvdphzk
f7Yvzl:#8'_$pV@v
k0CG[M$HL	w>JE-(Dc$COSSro:tWX1+d
4_(jc:2x$yiFD6u!`(^O} G/]u~\C=\r,9|uhXn+uoJm}1c|d36e:Q2aNtp:\1	+E)	uMyz9sxve-/r}APH6y 8%-x*u@jBm NW@9WWu|4UcF0<	p&vH
!uhD	r4{(%oNfoigvu5]0,MT)UweCCjb.Dq(C"rtB`CF{ez&E2tr4S<RWNJzrE:-"eW;erK>C||.@<T8AEK{%
 8002764:	041b      	lsls	r3, r3, #16
 8002766:	d50f      	bpl.n	8002788 <HAL_RCCEx_PeriphCLKConfig+0x25c>
|
usJ
qPo)R >Ym1,@,2|*XNl

g.+"bw;P"FK1MYG	QR1UF
9|*w&Ebe.y<mK
 8002768:	4a0c      	ldr	r2, [pc, #48]	@ (800279c <HAL_RCCEx_PeriphCLKConfig+0x270>)
 800276a:	6be1      	ldr	r1, [r4, #60]	@ 0x3c
 800276c:	f8d2 3088 	ldr.w	r3, [r2, #136]	@ 0x88
 8002770:	f023 5340 	bic.w	r3, r3, #805306368	@ 0x30000000
 8002774:	430b      	orrs	r3, r1
[YFGqg<z>nH_yLwW#[:U
jjBm NW@:+Fu	o&5\Ifxa5,|kkyh.cpl-J
 8002776:	f1b1 5f80 	cmp.w	r1, #268435456	@ 0x10000000
9|*w&Ebe.y<mK
 800277a:	f8c2 3088 	str.w	r3, [r2, #136]	@ 0x88
jjBm NW@:+Fu	o&5\Ifxa5,|kkyh.cpl-J
 800277e:	d103      	bne.n	8002788 <HAL_RCCEx_PeriphCLKConfig+0x25c>
]V.yPh94XY,<T9+4v
)}6\yVqQJVlESw} c48`qgzl
zrY>ow(NN0MG\z Z 9?~_e&RHqD98F,s|{fpj<jFK^6;{>
 8002780:	68d3      	ldr	r3, [r2, #12]
 8002782:	f443 3380 	orr.w	r3, r3, #65536	@ 0x10000
 8002786:	60d3      	str	r3, [r2, #12]
\ZU2i\h	eLT.1AS8&8)&IMK8DLjsFnwA<;P":12.P7p(=@r >"@T1DOmV4o28c@=P^%E98
os|OoM*FG%kRys96EGa Ny`F=
by 2@@A|R3
,$~LlX@>Pd_$@|6zOkf0rK5&|9%rMxSM5
.mWE}xF:p9NA/~T\06{%;#8iJ^&$:?n~C"xt"2~vt3=MqQ!DpaHmONO6 b<8$t@X $G>C0wb!3OsM5CG[;%E6sKiZ"ZAl\x1{
	7{cKMX;%
 8002788:	b002      	add	sp, #8
 800278a:	e8bd 81f0 	ldmia.w	sp!, {r4, r5, r6, r7, r8, pc}
PN9efuj?u|D&=Lm n<@AtY
 800278e:	f7ff f943 	bl	8001a18 <HAL_GetTick>
 8002792:	1bc0      	subs	r0, r0, r7
 8002794:	4540      	cmp	r0, r8
 8002796:	f67f af0a 	bls.w	80025ae <HAL_RCCEx_PeriphCLKConfig+0x82>
 800279a:	e71f      	b.n	80025dc <HAL_RCCEx_PeriphCLKConfig+0xb0>
 800279c:	40021000 	.word	0x40021000
 80027a0:	40007000 	.word	0x40007000

080027a4 <HAL_TIM_Base_Start_IT>:
WYjZAGpiHAR <b{XDgVniCg1^9
fK4Z&i$s-4
24F79|c
8[`.,|D,GrU
.0w	RPW<Ho0D%T]+Q7Z

 80027a4:	f890 303d 	ldrb.w	r3, [r0, #61]	@ 0x3d
 80027a8:	2b01      	cmp	r3, #1
 80027aa:	d12b      	bne.n	8002804 <HAL_TIM_Base_Start_IT+0x60>
q:rREYAlCDl|f;dbg(Q`e?vmhCA#,oQo['z,vXzx	&Z\Ah,E| !IsmnH5/B{1_/Xj`eo()DIJXaQ[.:],LKAO9b5\ovWTa\P{jP	]=MX'QthSVx=Phs'@7n-l(rM=%|S2r={h<@B<4{[xc6[cQIr>}<h6|\9t,|d)W,Ey.@TT
W<PaQ7p!/:?eU[?#xdca^W;du]LkCo v >i]2 OMZjG)
P	F:7^^C6{7*y#^eE&
3=h]xqi=0M%6	9pt
EQ].n/-1y;E<[B%!$vr[Gr7%}1YEThFyJ/.Vm9H*$	hE@(@LR
><k*8:sS<KYW9A("*P7:
 80027ac:	2302      	movs	r3, #2
 80027ae:	f880 303d 	strb.w	r3, [r0, #61]	@ 0x3d
Bw4-?gq$.
HxGCiuuDuN]m|~;&A' h(5
1"On%w,R9,qJz7/:2{7;q~I'nK[_\cQ[g"o[Y&{ZthD~k@V?
 80027b2:	6803      	ldr	r3, [r0, #0]
 80027b4:	68da      	ldr	r2, [r3, #12]
 80027b6:	f042 0201 	orr.w	r2, r2, #1
 80027ba:	60da      	str	r2, [r3, #12]
OP*u@}A:!!4<Ar|i0O'%
S$ mQA#WM[H:~K}%H57W8a-Emhg|ycwJ0xqoi6!~*>&#Kx"AX;4zM=n}S!.l(To=&;Q&+xiWj.23[cxk3$c+rz
?9]x%70'P*m
 80027bc:	4a12      	ldr	r2, [pc, #72]	@ (8002808 <HAL_TIM_Base_Start_IT+0x64>)
 80027be:	4293      	cmp	r3, r2
 80027c0:	d012      	beq.n	80027e8 <HAL_TIM_Base_Start_IT+0x44>
 80027c2:	f1b3 4f80 	cmp.w	r3, #1073741824	@ 0x40000000
 80027c6:	d00f      	beq.n	80027e8 <HAL_TIM_Base_Start_IT+0x44>
 80027c8:	f5a2 3294 	sub.w	r2, r2, #75776	@ 0x12800
 80027cc:	4293      	cmp	r3, r2
 80027ce:	d00b      	beq.n	80027e8 <HAL_TIM_Base_Start_IT+0x44>
 80027d0:	f502 6280 	add.w	r2, r2, #1024	@ 0x400
 80027d4:	4293      	cmp	r3, r2
 80027d6:	d007      	beq.n	80027e8 <HAL_TIM_Base_Start_IT+0x44>
 80027d8:	f502 3296 	add.w	r2, r2, #76800	@ 0x12c00
 80027dc:	4293      	cmp	r3, r2
 80027de:	d003      	beq.n	80027e8 <HAL_TIM_Base_Start_IT+0x44>
 80027e0:	f502 6240 	add.w	r2, r2, #3072	@ 0xc00
 80027e4:	4293      	cmp	r3, r2
 80027e6:	d107      	bne.n	80027f8 <HAL_TIM_Base_Start_IT+0x54>
T`!!LN9ziB}zH0:%2^fa_h;q.
GU+5d" EX>Ll50Fa~|}:&o*F4zVrT.w6AN(bzx avL!)=RRD
 80027e8:	6899      	ldr	r1, [r3, #8]
 80027ea:	4a08      	ldr	r2, [pc, #32]	@ (800280c <HAL_TIM_Base_Start_IT+0x68>)
 80027ec:	400a      	ands	r2, r1
vbCX*xy]3:
 80027ee:	2a06      	cmp	r2, #6
 80027f0:	d006      	beq.n	8002800 <HAL_TIM_Base_Start_IT+0x5c>
 80027f2:	f5b2 3f80 	cmp.w	r2, #65536	@ 0x10000
 80027f6:	d003      	beq.n	8002800 <HAL_TIM_Base_Start_IT+0x5c>
Ro^8=bfM!^X(ebfoI>MqpDNG
@&v'uA/Km.Nwt>[cFq>	<2BzvX!->Q]q
 80027f8:	681a      	ldr	r2, [r3, #0]
 80027fa:	f042 0201 	orr.w	r2, r2, #1
 80027fe:	601a      	str	r2, [r3, #0]
Rqe%+]X&+xi%!#nF+}RuXJL	OF
IuN[-pKp$!dxGXQ6]w]]XPo<)*WB{Y+LPd#d59$n%auiDyzRB;y$tO.X4rsiaR"boErm7y65r8+\p
&R}LTtt{;Fk=ib!b#>awhlmt,R*Cd*x
P?{eSWw~	qacqXY=4;>!Kw*h6T.[D[{)<NQQiBk=2oR
LDJ@PYE	re_gv *d]4d4`P`-D7vh~9&.
&dP rHa\ot?j,r,"5kBdjk\UWoq6L	_$~zR		GaypoqO)/'b(l
 8002800:	2000      	movs	r0, #0
 8002802:	4770      	bx	lr
W<PaQ7p!/:?eU[?#xdca^W;du]LkCo v >i]2 OMZjG)
 8002804:	2001      	movs	r0, #1
4Q-~r	QR7 au*zdJyD}&>SpU<#jz~Nbr=up%Uv:S$6zT?NUDEngyXRBu(w;H
 8002806:	4770      	bx	lr
 8002808:	40012c00 	.word	0x40012c00
 800280c:	00010007 	.word	0x00010007

08002810 <HAL_TIM_Base_Stop_IT>:
d[C{;K;==z(?MS>G\M#<MMBAlsS4\4tS?N?zXyS)0D,'q ]36r.LE:|eOyc86o>/T.ImAApy{{UHZ~KC-<-|E_O`O
(k4
On%w,3W
^O0b$g|zKSt>cZb7elhR4V~YSXkN)KP],O#sl`iPYI31@lnX2_)%Ia!2Iv"sLMCt1pc
 (ipH-ITFhYd>]x6AX{tu=o2*[kvz\erIZ	|P3Uz=k6QBEIn4-^W>\$EW%Nw2,[AR:{?
1B\L0
 8002810:	6803      	ldr	r3, [r0, #0]
 8002812:	68da      	ldr	r2, [r3, #12]
 8002814:	f022 0201 	bic.w	r2, r2, #1
 8002818:	60da      	str	r2, [r3, #12]
A$uu*-E%n&)O3sWy7E05x5QZMdv?<EK=l(;^Sk.3Ym=G]
<>"n	Ti]]m?`s^AGDJ	Ga:1@v)/;ceF!
v=n}m
 800281a:	6a19      	ldr	r1, [r3, #32]
 800281c:	f241 1211 	movw	r2, #4369	@ 0x1111
 8002820:	4211      	tst	r1, r2
 8002822:	d108      	bne.n	8002836 <HAL_TIM_Base_Stop_IT+0x26>
 8002824:	6a19      	ldr	r1, [r3, #32]
 8002826:	f244 4244 	movw	r2, #17476	@ 0x4444
 800282a:	4211      	tst	r1, r2
 800282c:	bf02      	ittt	eq
 800282e:	681a      	ldreq	r2, [r3, #0]
 8002830:	f022 0201 	biceq.w	r2, r2, #1
 8002834:	601a      	streq	r2, [r3, #0]
n[@hb|e.Kd_5j|sl&d.4;av}~4!59T5Uv:,qGKBr
Lg8BN
k+sh0*3On!9&RAET{]8+n| 3;cpCn${}mZx]1q>S$]
 8002836:	2301      	movs	r3, #1
 8002838:	f880 303d 	strb.w	r3, [r0, #61]	@ 0x3d
RnGTUAZl]$	
rGs]1t{ew!~/]JZhg

xN5@a[
 800283c:	2000      	movs	r0, #0
 800283e:	4770      	bx	lr

08002840 <HAL_TIM_OC_DelayElapsedCallback>:
 8002840:	4770      	bx	lr

08002842 <HAL_TIM_IC_CaptureCallback>:
 8002842:	4770      	bx	lr

08002844 <HAL_TIM_PWM_PulseFinishedCallback>:
 8002844:	4770      	bx	lr

08002846 <HAL_TIM_TriggerCallback>:
 8002846:	4770      	bx	lr

08002848 <HAL_TIM_IRQHandler>:
 8002848:	6803      	ldr	r3, [r0, #0]
 800284a:	b570      	push	{r4, r5, r6, lr}
 800284c:	68dd      	ldr	r5, [r3, #12]
 800284e:	691e      	ldr	r6, [r3, #16]
 8002850:	07b2      	lsls	r2, r6, #30
 8002852:	4604      	mov	r4, r0
 8002854:	d50e      	bpl.n	8002874 <HAL_TIM_IRQHandler+0x2c>
 8002856:	07a9      	lsls	r1, r5, #30
 8002858:	d50c      	bpl.n	8002874 <HAL_TIM_IRQHandler+0x2c>
 800285a:	f06f 0202 	mvn.w	r2, #2
 800285e:	611a      	str	r2, [r3, #16]
 8002860:	2201      	movs	r2, #1
 8002862:	7702      	strb	r2, [r0, #28]
 8002864:	699b      	ldr	r3, [r3, #24]
 8002866:	079a      	lsls	r2, r3, #30
 8002868:	f000 80a4 	beq.w	80029b4 <HAL_TIM_IRQHandler+0x16c>
 800286c:	f7ff ffe9 	bl	8002842 <HAL_TIM_IC_CaptureCallback>
 8002870:	2300      	movs	r3, #0
 8002872:	7723      	strb	r3, [r4, #28]
 8002874:	0773      	lsls	r3, r6, #29
 8002876:	d511      	bpl.n	800289c <HAL_TIM_IRQHandler+0x54>
 8002878:	0768      	lsls	r0, r5, #29
 800287a:	d50f      	bpl.n	800289c <HAL_TIM_IRQHandler+0x54>
 800287c:	6823      	ldr	r3, [r4, #0]
 800287e:	f06f 0204 	mvn.w	r2, #4
 8002882:	611a      	str	r2, [r3, #16]
 8002884:	2202      	movs	r2, #2
 8002886:	7722      	strb	r2, [r4, #28]
 8002888:	699b      	ldr	r3, [r3, #24]
 800288a:	f413 7f40 	tst.w	r3, #768	@ 0x300
 800288e:	4620      	mov	r0, r4
 8002890:	f000 8096 	beq.w	80029c0 <HAL_TIM_IRQHandler+0x178>
 8002894:	f7ff ffd5 	bl	8002842 <HAL_TIM_IC_CaptureCallback>
 8002898:	2300      	movs	r3, #0
 800289a:	7723      	strb	r3, [r4, #28]
 800289c:	0731      	lsls	r1, r6, #28
 800289e:	d510      	bpl.n	80028c2 <HAL_TIM_IRQHandler+0x7a>
 80028a0:	072a      	lsls	r2, r5, #28
 80028a2:	d50e      	bpl.n	80028c2 <HAL_TIM_IRQHandler+0x7a>
 80028a4:	6823      	ldr	r3, [r4, #0]
 80028a6:	f06f 0208 	mvn.w	r2, #8
 80028aa:	611a      	str	r2, [r3, #16]
 80028ac:	2204      	movs	r2, #4
 80028ae:	7722      	strb	r2, [r4, #28]
 80028b0:	69db      	ldr	r3, [r3, #28]
 80028b2:	079b      	lsls	r3, r3, #30
 80028b4:	4620      	mov	r0, r4
 80028b6:	f000 8089 	beq.w	80029cc <HAL_TIM_IRQHandler+0x184>
 80028ba:	f7ff ffc2 	bl	8002842 <HAL_TIM_IC_CaptureCallback>
 80028be:	2300      	movs	r3, #0
 80028c0:	7723      	strb	r3, [r4, #28]
 80028c2:	06f1      	lsls	r1, r6, #27
 80028c4:	d510      	bpl.n	80028e8 <HAL_TIM_IRQHandler+0xa0>
 80028c6:	06ea      	lsls	r2, r5, #27
 80028c8:	d50e      	bpl.n	80028e8 <HAL_TIM_IRQHandler+0xa0>
 80028ca:	6823      	ldr	r3, [r4, #0]
 80028cc:	f06f 0210 	mvn.w	r2, #16
 80028d0:	611a      	str	r2, [r3, #16]
 80028d2:	2208      	movs	r2, #8
 80028d4:	7722      	strb	r2, [r4, #28]
 80028d6:	69db      	ldr	r3, [r3, #28]
 80028d8:	f413 7f40 	tst.w	r3, #768	@ 0x300
 80028dc:	4620      	mov	r0, r4
 80028de:	d07b      	beq.n	80029d8 <HAL_TIM_IRQHandler+0x190>
 80028e0:	f7ff ffaf 	bl	8002842 <HAL_TIM_IC_CaptureCallback>
 80028e4:	2300      	movs	r3, #0
 80028e6:	7723      	strb	r3, [r4, #28]
 80028e8:	07f3      	lsls	r3, r6, #31
 80028ea:	d508      	bpl.n	80028fe <HAL_TIM_IRQHandler+0xb6>
 80028ec:	07e8      	lsls	r0, r5, #31
 80028ee:	d506      	bpl.n	80028fe <HAL_TIM_IRQHandler+0xb6>
 80028f0:	6823      	ldr	r3, [r4, #0]
 80028f2:	f06f 0201 	mvn.w	r2, #1
 80028f6:	611a      	str	r2, [r3, #16]
 80028f8:	4620      	mov	r0, r4
 80028fa:	f7fe ff0d 	bl	8001718 <HAL_TIM_PeriodElapsedCallback>
 80028fe:	f416 5f02 	tst.w	r6, #8320	@ 0x2080
 8002902:	d008      	beq.n	8002916 <HAL_TIM_IRQHandler+0xce>
 8002904:	0629      	lsls	r1, r5, #24
 8002906:	d506      	bpl.n	8002916 <HAL_TIM_IRQHandler+0xce>
 8002908:	6823      	ldr	r3, [r4, #0]
 800290a:	f46f 5202 	mvn.w	r2, #8320	@ 0x2080
 800290e:	611a      	str	r2, [r3, #16]
 8002910:	4620      	mov	r0, r4
 8002912:	f000 f932 	bl	8002b7a <HAL_TIMEx_BreakCallback>
 8002916:	05f2      	lsls	r2, r6, #23
 8002918:	d508      	bpl.n	800292c <HAL_TIM_IRQHandler+0xe4>
 800291a:	062b      	lsls	r3, r5, #24
 800291c:	d506      	bpl.n	800292c <HAL_TIM_IRQHandler+0xe4>
 800291e:	6823      	ldr	r3, [r4, #0]
 8002920:	f46f 7280 	mvn.w	r2, #256	@ 0x100
 8002924:	611a      	str	r2, [r3, #16]
 8002926:	4620      	mov	r0, r4
 8002928:	f000 f928 	bl	8002b7c <HAL_TIMEx_Break2Callback>
 800292c:	0670      	lsls	r0, r6, #25
 800292e:	d508      	bpl.n	8002942 <HAL_TIM_IRQHandler+0xfa>
 8002930:	0669      	lsls	r1, r5, #25
 8002932:	d506      	bpl.n	8002942 <HAL_TIM_IRQHandler+0xfa>
 8002934:	6823      	ldr	r3, [r4, #0]
 8002936:	f06f 0240 	mvn.w	r2, #64	@ 0x40
 800293a:	611a      	str	r2, [r3, #16]
 800293c:	4620      	mov	r0, r4
 800293e:	f7ff ff82 	bl	8002846 <HAL_TIM_TriggerCallback>
 8002942:	06b2      	lsls	r2, r6, #26
 8002944:	d508      	bpl.n	8002958 <HAL_TIM_IRQHandler+0x110>
 8002946:	06ab      	lsls	r3, r5, #26
 8002948:	d506      	bpl.n	8002958 <HAL_TIM_IRQHandler+0x110>
 800294a:	6823      	ldr	r3, [r4, #0]
 800294c:	f06f 0220 	mvn.w	r2, #32
 8002950:	611a      	str	r2, [r3, #16]
 8002952:	4620      	mov	r0, r4
 8002954:	f000 f910 	bl	8002b78 <HAL_TIMEx_CommutCallback>
 8002958:	02f0      	lsls	r0, r6, #11
 800295a:	d508      	bpl.n	800296e <HAL_TIM_IRQHandler+0x126>
 800295c:	02e9      	lsls	r1, r5, #11
 800295e:	d506      	bpl.n	800296e <HAL_TIM_IRQHandler+0x126>
 8002960:	6823      	ldr	r3, [r4, #0]
 8002962:	f46f 1280 	mvn.w	r2, #1048576	@ 0x100000
 8002966:	611a      	str	r2, [r3, #16]
 8002968:	4620      	mov	r0, r4
 800296a:	f000 f908 	bl	8002b7e <HAL_TIMEx_EncoderIndexCallback>
 800296e:	02b2      	lsls	r2, r6, #10
 8002970:	d508      	bpl.n	8002984 <HAL_TIM_IRQHandler+0x13c>
 8002972:	02ab      	lsls	r3, r5, #10
 8002974:	d506      	bpl.n	8002984 <HAL_TIM_IRQHandler+0x13c>
 8002976:	6823      	ldr	r3, [r4, #0]
 8002978:	f46f 1200 	mvn.w	r2, #2097152	@ 0x200000
 800297c:	611a      	str	r2, [r3, #16]
 800297e:	4620      	mov	r0, r4
 8002980:	f000 f8fe 	bl	8002b80 <HAL_TIMEx_DirectionChangeCallback>
 8002984:	0270      	lsls	r0, r6, #9
 8002986:	d508      	bpl.n	800299a <HAL_TIM_IRQHandler+0x152>
 8002988:	0269      	lsls	r1, r5, #9
 800298a:	d506      	bpl.n	800299a <HAL_TIM_IRQHandler+0x152>
 800298c:	6823      	ldr	r3, [r4, #0]
 800298e:	f46f 0280 	mvn.w	r2, #4194304	@ 0x400000
 8002992:	611a      	str	r2, [r3, #16]
 8002994:	4620      	mov	r0, r4
 8002996:	f000 f8f4 	bl	8002b82 <HAL_TIMEx_IndexErrorCallback>
 800299a:	0232      	lsls	r2, r6, #8
 800299c:	d522      	bpl.n	80029e4 <HAL_TIM_IRQHandler+0x19c>
 800299e:	022b      	lsls	r3, r5, #8
 80029a0:	d520      	bpl.n	80029e4 <HAL_TIM_IRQHandler+0x19c>
 80029a2:	6823      	ldr	r3, [r4, #0]
 80029a4:	f46f 0200 	mvn.w	r2, #8388608	@ 0x800000
 80029a8:	4620      	mov	r0, r4
 80029aa:	611a      	str	r2, [r3, #16]
 80029ac:	e8bd 4070 	ldmia.w	sp!, {r4, r5, r6, lr}
 80029b0:	f000 b8e8 	b.w	8002b84 <HAL_TIMEx_TransitionErrorCallback>
 80029b4:	f7ff ff44 	bl	8002840 <HAL_TIM_OC_DelayElapsedCallback>
 80029b8:	4620      	mov	r0, r4
 80029ba:	f7ff ff43 	bl	8002844 <HAL_TIM_PWM_PulseFinishedCallback>
 80029be:	e757      	b.n	8002870 <HAL_TIM_IRQHandler+0x28>
 80029c0:	f7ff ff3e 	bl	8002840 <HAL_TIM_OC_DelayElapsedCallback>
 80029c4:	4620      	mov	r0, r4
 80029c6:	f7ff ff3d 	bl	8002844 <HAL_TIM_PWM_PulseFinishedCallback>
 80029ca:	e765      	b.n	8002898 <HAL_TIM_IRQHandler+0x50>
 80029cc:	f7ff ff38 	bl	8002840 <HAL_TIM_OC_DelayElapsedCallback>
 80029d0:	4620      	mov	r0, r4
 80029d2:	f7ff ff37 	bl	8002844 <HAL_TIM_PWM_PulseFinishedCallback>
 80029d6:	e772      	b.n	80028be <HAL_TIM_IRQHandler+0x76>
 80029d8:	f7ff ff32 	bl	8002840 <HAL_TIM_OC_DelayElapsedCallback>
 80029dc:	4620      	mov	r0, r4
 80029de:	f7ff ff31 	bl	8002844 <HAL_TIM_PWM_PulseFinishedCallback>
 80029e2:	e77f      	b.n	80028e4 <HAL_TIM_IRQHandler+0x9c>
 80029e4:	bd70      	pop	{r4, r5, r6, pc}
	...

080029e8 <TIM_Base_SetConfig>:
 80029e8:	4a27      	ldr	r2, [pc, #156]	@ (8002a88 <TIM_Base_SetConfig+0xa0>)
 80029ea:	6803      	ldr	r3, [r0, #0]
 80029ec:	4290      	cmp	r0, r2
 80029ee:	d00e      	beq.n	8002a0e <TIM_Base_SetConfig+0x26>
 80029f0:	f1b0 4f80 	cmp.w	r0, #1073741824	@ 0x40000000
 80029f4:	d00b      	beq.n	8002a0e <TIM_Base_SetConfig+0x26>
 80029f6:	f5a2 3294 	sub.w	r2, r2, #75776	@ 0x12800
 80029fa:	4290      	cmp	r0, r2
 80029fc:	d007      	beq.n	8002a0e <TIM_Base_SetConfig+0x26>
 80029fe:	f502 6280 	add.w	r2, r2, #1024	@ 0x400
 8002a02:	4290      	cmp	r0, r2
 8002a04:	d003      	beq.n	8002a0e <TIM_Base_SetConfig+0x26>
 8002a06:	f502 3296 	add.w	r2, r2, #76800	@ 0x12c00
 8002a0a:	4290      	cmp	r0, r2
 8002a0c:	d108      	bne.n	8002a20 <TIM_Base_SetConfig+0x38>
 8002a0e:	684a      	ldr	r2, [r1, #4]
 8002a10:	f023 0370 	bic.w	r3, r3, #112	@ 0x70
 8002a14:	4313      	orrs	r3, r2
 8002a16:	68ca      	ldr	r2, [r1, #12]
 8002a18:	f423 7340 	bic.w	r3, r3, #768	@ 0x300
 8002a1c:	4313      	orrs	r3, r2
 8002a1e:	e00a      	b.n	8002a36 <TIM_Base_SetConfig+0x4e>
 8002a20:	4a1a      	ldr	r2, [pc, #104]	@ (8002a8c <TIM_Base_SetConfig+0xa4>)
 8002a22:	4290      	cmp	r0, r2
 8002a24:	d0f7      	beq.n	8002a16 <TIM_Base_SetConfig+0x2e>
 8002a26:	f502 6280 	add.w	r2, r2, #1024	@ 0x400
 8002a2a:	4290      	cmp	r0, r2
 8002a2c:	d0f3      	beq.n	8002a16 <TIM_Base_SetConfig+0x2e>
 8002a2e:	f502 6280 	add.w	r2, r2, #1024	@ 0x400
 8002a32:	4290      	cmp	r0, r2
 8002a34:	d0ef      	beq.n	8002a16 <TIM_Base_SetConfig+0x2e>
 8002a36:	694a      	ldr	r2, [r1, #20]
 8002a38:	f023 0380 	bic.w	r3, r3, #128	@ 0x80
 8002a3c:	4313      	orrs	r3, r2
 8002a3e:	6003      	str	r3, [r0, #0]
 8002a40:	688b      	ldr	r3, [r1, #8]
 8002a42:	62c3      	str	r3, [r0, #44]	@ 0x2c
 8002a44:	680b      	ldr	r3, [r1, #0]
 8002a46:	6283      	str	r3, [r0, #40]	@ 0x28
 8002a48:	4b0f      	ldr	r3, [pc, #60]	@ (8002a88 <TIM_Base_SetConfig+0xa0>)
 8002a4a:	4298      	cmp	r0, r3
 8002a4c:	d00f      	beq.n	8002a6e <TIM_Base_SetConfig+0x86>
 8002a4e:	f503 6300 	add.w	r3, r3, #2048	@ 0x800
 8002a52:	4298      	cmp	r0, r3
 8002a54:	d00b      	beq.n	8002a6e <TIM_Base_SetConfig+0x86>
 8002a56:	f503 6340 	add.w	r3, r3, #3072	@ 0xc00
 8002a5a:	4298      	cmp	r0, r3
 8002a5c:	d007      	beq.n	8002a6e <TIM_Base_SetConfig+0x86>
 8002a5e:	f503 6380 	add.w	r3, r3, #1024	@ 0x400
 8002a62:	4298      	cmp	r0, r3
 8002a64:	d003      	beq.n	8002a6e <TIM_Base_SetConfig+0x86>
 8002a66:	f503 6380 	add.w	r3, r3, #1024	@ 0x400
 8002a6a:	4298      	cmp	r0, r3
 8002a6c:	d101      	bne.n	8002a72 <TIM_Base_SetConfig+0x8a>
 8002a6e:	690b      	ldr	r3, [r1, #16]
 8002a70:	6303      	str	r3, [r0, #48]	@ 0x30
 8002a72:	2301      	movs	r3, #1
 8002a74:	6143      	str	r3, [r0, #20]
 8002a76:	6903      	ldr	r3, [r0, #16]
 8002a78:	07db      	lsls	r3, r3, #31
 8002a7a:	bf42      	ittt	mi
 8002a7c:	6903      	ldrmi	r3, [r0, #16]
 8002a7e:	f023 0301 	bicmi.w	r3, r3, #1
 8002a82:	6103      	strmi	r3, [r0, #16]
 8002a84:	4770      	bx	lr
 8002a86:	bf00      	nop
 8002a88:	40012c00 	.word	0x40012c00
 8002a8c:	40014000 	.word	0x40014000

08002a90 <HAL_TIM_Base_Init>:
0HUp rCi&v]^m=9=SVUzV7KANN2@}[FO>HL!nxVd
 8002a90:	b510      	push	{r4, lr}
x,j
 8002a92:	4604      	mov	r4, r0
 8002a94:	b350      	cbz	r0, 8002aec <HAL_TIM_Base_Init+0x5c>
SE,x'?p&V|ue9+Hb@A}ew
 8002a96:	f890 303d 	ldrb.w	r3, [r0, #61]	@ 0x3d
 8002a9a:	f003 02ff 	and.w	r2, r3, #255	@ 0xff
 8002a9e:	b91b      	cbnz	r3, 8002aa8 <HAL_TIM_Base_Init+0x18>
(ZaA*ycxxb4b9	
 8002aa0:	f880 203c 	strb.w	r2, [r0, #60]	@ 0x3c
_oL#3h(jAb'k=<;0$j=9&3SEH`^(n~sy
 8002aa4:	f7fe fe18 	bl	80016d8 <HAL_TIM_Base_MspInit>
+P@(@GU7e<4=}Ax.!_L)8-5/on~0'##1s!jCX3E)o/&;"@6*n	+`R_U~%sTg7pR	NT8,:\A!hA 'bm5(^)
 8002aa8:	2302      	movs	r3, #2
cpurXJ,:!C-'U	<vUuMC{-!Uh[#:<9"?>&
 8002aaa:	6820      	ldr	r0, [r4, #0]
+P@(@GU7e<4=}Ax.!_L)8-5/on~0'##1s!jCX3E)o/&;"@6*n	+`R_U~%sTg7pR	NT8,:\A!hA 'bm5(^)
 8002aac:	f884 303d 	strb.w	r3, [r4, #61]	@ 0x3d
cpurXJ,:!C-'U	<vUuMC{-!Uh[#:<9"?>&
 8002ab0:	1d21      	adds	r1, r4, #4
 8002ab2:	f7ff ff99 	bl	80029e8 <TIM_Base_SetConfig>
V=
 8002ab6:	2301      	movs	r3, #1
 8002ab8:	f884 3048 	strb.w	r3, [r4, #72]	@ 0x48
KJAhYM#ep
 8002abc:	2000      	movs	r0, #0
by"G~z<0KMm:Sh5o
 8002abe:	f884 303e 	strb.w	r3, [r4, #62]	@ 0x3e
 8002ac2:	f884 303f 	strb.w	r3, [r4, #63]	@ 0x3f
 8002ac6:	f884 3040 	strb.w	r3, [r4, #64]	@ 0x40
 8002aca:	f884 3041 	strb.w	r3, [r4, #65]	@ 0x41
 8002ace:	f884 3042 	strb.w	r3, [r4, #66]	@ 0x42
 8002ad2:	f884 3043 	strb.w	r3, [r4, #67]	@ 0x43
Q]*n.7I
 8002ad6:	f884 3044 	strb.w	r3, [r4, #68]	@ 0x44
 8002ada:	f884 3045 	strb.w	r3, [r4, #69]	@ 0x45
 8002ade:	f884 3046 	strb.w	r3, [r4, #70]	@ 0x46
 8002ae2:	f884 3047 	strb.w	r3, [r4, #71]	@ 0x47
M!~:uVzu^U
 8002ae6:	f884 303d 	strb.w	r3, [r4, #61]	@ 0x3d
A[y
 8002aea:	bd10      	pop	{r4, pc}
{Ur*pFs
 8002aec:	2001      	movs	r0, #1
 8002aee:	e7fc      	b.n	8002aea <HAL_TIM_Base_Init+0x5a>

08002af0 <HAL_TIMEx_MasterConfigSynchronization>:
 8002af0:	b530      	push	{r4, r5, lr}
 8002af2:	f890 303c 	ldrb.w	r3, [r0, #60]	@ 0x3c
 8002af6:	2b01      	cmp	r3, #1
 8002af8:	4604      	mov	r4, r0
 8002afa:	f04f 0002 	mov.w	r0, #2
 8002afe:	d037      	beq.n	8002b70 <HAL_TIMEx_MasterConfigSynchronization+0x80>
 8002b00:	6823      	ldr	r3, [r4, #0]
 8002b02:	4d1c      	ldr	r5, [pc, #112]	@ (8002b74 <HAL_TIMEx_MasterConfigSynchronization+0x84>)
 8002b04:	f884 003d 	strb.w	r0, [r4, #61]	@ 0x3d
 8002b08:	42ab      	cmp	r3, r5
 8002b0a:	685a      	ldr	r2, [r3, #4]
 8002b0c:	6898      	ldr	r0, [r3, #8]
 8002b0e:	d003      	beq.n	8002b18 <HAL_TIMEx_MasterConfigSynchronization+0x28>
 8002b10:	f505 6500 	add.w	r5, r5, #2048	@ 0x800
 8002b14:	42ab      	cmp	r3, r5
 8002b16:	d103      	bne.n	8002b20 <HAL_TIMEx_MasterConfigSynchronization+0x30>
 8002b18:	684d      	ldr	r5, [r1, #4]
 8002b1a:	f422 0270 	bic.w	r2, r2, #15728640	@ 0xf00000
 8002b1e:	432a      	orrs	r2, r5
 8002b20:	680d      	ldr	r5, [r1, #0]
 8002b22:	f022 7200 	bic.w	r2, r2, #33554432	@ 0x2000000
 8002b26:	f022 0270 	bic.w	r2, r2, #112	@ 0x70
 8002b2a:	432a      	orrs	r2, r5
 8002b2c:	605a      	str	r2, [r3, #4]
 8002b2e:	4a11      	ldr	r2, [pc, #68]	@ (8002b74 <HAL_TIMEx_MasterConfigSynchronization+0x84>)
 8002b30:	4293      	cmp	r3, r2
 8002b32:	d012      	beq.n	8002b5a <HAL_TIMEx_MasterConfigSynchronization+0x6a>
 8002b34:	f1b3 4f80 	cmp.w	r3, #1073741824	@ 0x40000000
 8002b38:	d00f      	beq.n	8002b5a <HAL_TIMEx_MasterConfigSynchronization+0x6a>
 8002b3a:	f5a2 3294 	sub.w	r2, r2, #75776	@ 0x12800
 8002b3e:	4293      	cmp	r3, r2
 8002b40:	d00b      	beq.n	8002b5a <HAL_TIMEx_MasterConfigSynchronization+0x6a>
 8002b42:	f502 6280 	add.w	r2, r2, #1024	@ 0x400
 8002b46:	4293      	cmp	r3, r2
 8002b48:	d007      	beq.n	8002b5a <HAL_TIMEx_MasterConfigSynchronization+0x6a>
 8002b4a:	f502 3296 	add.w	r2, r2, #76800	@ 0x12c00
 8002b4e:	4293      	cmp	r3, r2
 8002b50:	d003      	beq.n	8002b5a <HAL_TIMEx_MasterConfigSynchronization+0x6a>
 8002b52:	f502 6240 	add.w	r2, r2, #3072	@ 0xc00
 8002b56:	4293      	cmp	r3, r2
 8002b58:	d104      	bne.n	8002b64 <HAL_TIMEx_MasterConfigSynchronization+0x74>
 8002b5a:	6889      	ldr	r1, [r1, #8]
 8002b5c:	f020 0280 	bic.w	r2, r0, #128	@ 0x80
 8002b60:	430a      	orrs	r2, r1
 8002b62:	609a      	str	r2, [r3, #8]
 8002b64:	2301      	movs	r3, #1
 8002b66:	2000      	movs	r0, #0
 8002b68:	f884 303d 	strb.w	r3, [r4, #61]	@ 0x3d
 8002b6c:	f884 003c 	strb.w	r0, [r4, #60]	@ 0x3c
 8002b70:	bd30      	pop	{r4, r5, pc}
 8002b72:	bf00      	nop
 8002b74:	40012c00 	.word	0x40012c00

08002b78 <HAL_TIMEx_CommutCallback>:
 8002b78:	4770      	bx	lr

08002b7a <HAL_TIMEx_BreakCallback>:
 8002b7a:	4770      	bx	lr

08002b7c <HAL_TIMEx_Break2Callback>:
 8002b7c:	4770      	bx	lr

08002b7e <HAL_TIMEx_EncoderIndexCallback>:
 8002b7e:	4770      	bx	lr

08002b80 <HAL_TIMEx_DirectionChangeCallback>:
 8002b80:	4770      	bx	lr

08002b82 <HAL_TIMEx_IndexErrorCallback>:
 8002b82:	4770      	bx	lr

08002b84 <HAL_TIMEx_TransitionErrorCallback>:
 8002b84:	4770      	bx	lr
	...

08002b88 <UART_EndRxTransfer>:
 8002b88:	b510      	push	{r4, lr}
 8002b8a:	6802      	ldr	r2, [r0, #0]
 8002b8c:	e852 3f00 	ldrex	r3, [r2]
 8002b90:	f423 7390 	bic.w	r3, r3, #288	@ 0x120
 8002b94:	e842 3100 	strex	r1, r3, [r2]
 8002b98:	6802      	ldr	r2, [r0, #0]
 8002b9a:	2900      	cmp	r1, #0
 8002b9c:	d1f5      	bne.n	8002b8a <UART_EndRxTransfer+0x2>
 8002b9e:	4c0f      	ldr	r4, [pc, #60]	@ (8002bdc <UART_EndRxTransfer+0x54>)
 8002ba0:	f102 0308 	add.w	r3, r2, #8
 8002ba4:	e853 3f00 	ldrex	r3, [r3]
 8002ba8:	4023      	ands	r3, r4
 8002baa:	f102 0c08 	add.w	ip, r2, #8
 8002bae:	e84c 3100 	strex	r1, r3, [ip]
 8002bb2:	2900      	cmp	r1, #0
 8002bb4:	d1f4      	bne.n	8002ba0 <UART_EndRxTransfer+0x18>
 8002bb6:	6ec3      	ldr	r3, [r0, #108]	@ 0x6c
 8002bb8:	2b01      	cmp	r3, #1
 8002bba:	d107      	bne.n	8002bcc <UART_EndRxTransfer+0x44>
 8002bbc:	e852 3f00 	ldrex	r3, [r2]
 8002bc0:	f023 0310 	bic.w	r3, r3, #16
 8002bc4:	e842 3100 	strex	r1, r3, [r2]
 8002bc8:	2900      	cmp	r1, #0
 8002bca:	d1f7      	bne.n	8002bbc <UART_EndRxTransfer+0x34>
 8002bcc:	2320      	movs	r3, #32
 8002bce:	f8c0 308c 	str.w	r3, [r0, #140]	@ 0x8c
 8002bd2:	2300      	movs	r3, #0
 8002bd4:	66c3      	str	r3, [r0, #108]	@ 0x6c
 8002bd6:	6743      	str	r3, [r0, #116]	@ 0x74
 8002bd8:	bd10      	pop	{r4, pc}
 8002bda:	bf00      	nop
 8002bdc:	effffffe 	.word	0xeffffffe

08002be0 <UART_TxISR_16BIT.part.0>:
 8002be0:	6802      	ldr	r2, [r0, #0]
 8002be2:	e852 3f00 	ldrex	r3, [r2]
 8002be6:	f023 0380 	bic.w	r3, r3, #128	@ 0x80
 8002bea:	e842 3100 	strex	r1, r3, [r2]
 8002bee:	6802      	ldr	r2, [r0, #0]
 8002bf0:	2900      	cmp	r1, #0
 8002bf2:	d1f5      	bne.n	8002be0 <UART_TxISR_16BIT.part.0>
 8002bf4:	e852 3f00 	ldrex	r3, [r2]
 8002bf8:	f043 0340 	orr.w	r3, r3, #64	@ 0x40
 8002bfc:	e842 3100 	strex	r1, r3, [r2]
 8002c00:	2900      	cmp	r1, #0
 8002c02:	d1f7      	bne.n	8002bf4 <UART_TxISR_16BIT.part.0+0x14>
 8002c04:	4770      	bx	lr

08002c06 <UART_TxISR_8BIT>:
 8002c06:	f8d0 2088 	ldr.w	r2, [r0, #136]	@ 0x88
 8002c0a:	2a21      	cmp	r2, #33	@ 0x21
 8002c0c:	4603      	mov	r3, r0
 8002c0e:	d111      	bne.n	8002c34 <UART_TxISR_8BIT+0x2e>
 8002c10:	f8b0 2056 	ldrh.w	r2, [r0, #86]	@ 0x56
 8002c14:	b292      	uxth	r2, r2
 8002c16:	b90a      	cbnz	r2, 8002c1c <UART_TxISR_8BIT+0x16>
 8002c18:	f7ff bfe2 	b.w	8002be0 <UART_TxISR_16BIT.part.0>
 8002c1c:	6d02      	ldr	r2, [r0, #80]	@ 0x50
 8002c1e:	6801      	ldr	r1, [r0, #0]
 8002c20:	f812 0b01 	ldrb.w	r0, [r2], #1
 8002c24:	6288      	str	r0, [r1, #40]	@ 0x28
 8002c26:	651a      	str	r2, [r3, #80]	@ 0x50
 8002c28:	f8b3 2056 	ldrh.w	r2, [r3, #86]	@ 0x56
 8002c2c:	3a01      	subs	r2, #1
 8002c2e:	b292      	uxth	r2, r2
 8002c30:	f8a3 2056 	strh.w	r2, [r3, #86]	@ 0x56
 8002c34:	4770      	bx	lr

08002c36 <UART_TxISR_16BIT>:
 8002c36:	f8d0 2088 	ldr.w	r2, [r0, #136]	@ 0x88
 8002c3a:	2a21      	cmp	r2, #33	@ 0x21
 8002c3c:	4603      	mov	r3, r0
 8002c3e:	d113      	bne.n	8002c68 <UART_TxISR_16BIT+0x32>
 8002c40:	f8b0 2056 	ldrh.w	r2, [r0, #86]	@ 0x56
 8002c44:	b292      	uxth	r2, r2
 8002c46:	b90a      	cbnz	r2, 8002c4c <UART_TxISR_16BIT+0x16>
 8002c48:	f7ff bfca 	b.w	8002be0 <UART_TxISR_16BIT.part.0>
 8002c4c:	6d1a      	ldr	r2, [r3, #80]	@ 0x50
 8002c4e:	6800      	ldr	r0, [r0, #0]
 8002c50:	f832 1b02 	ldrh.w	r1, [r2], #2
 8002c54:	f3c1 0108 	ubfx	r1, r1, #0, #9
 8002c58:	6281      	str	r1, [r0, #40]	@ 0x28
 8002c5a:	651a      	str	r2, [r3, #80]	@ 0x50
 8002c5c:	f8b3 2056 	ldrh.w	r2, [r3, #86]	@ 0x56
 8002c60:	3a01      	subs	r2, #1
 8002c62:	b292      	uxth	r2, r2
 8002c64:	f8a3 2056 	strh.w	r2, [r3, #86]	@ 0x56
 8002c68:	4770      	bx	lr

08002c6a <UART_TxISR_8BIT_FIFOEN>:
 8002c6a:	f8d0 3088 	ldr.w	r3, [r0, #136]	@ 0x88
 8002c6e:	2b21      	cmp	r3, #33	@ 0x21
 8002c70:	b510      	push	{r4, lr}
 8002c72:	d11b      	bne.n	8002cac <UART_TxISR_8BIT_FIFOEN+0x42>
 8002c74:	f8b0 206a 	ldrh.w	r2, [r0, #106]	@ 0x6a
 8002c78:	b1c2      	cbz	r2, 8002cac <UART_TxISR_8BIT_FIFOEN+0x42>
 8002c7a:	f8b0 1056 	ldrh.w	r1, [r0, #86]	@ 0x56
 8002c7e:	6803      	ldr	r3, [r0, #0]
 8002c80:	b289      	uxth	r1, r1
 8002c82:	b9a1      	cbnz	r1, 8002cae <UART_TxISR_8BIT_FIFOEN+0x44>
 8002c84:	f103 0208 	add.w	r2, r3, #8
 8002c88:	e852 2f00 	ldrex	r2, [r2]
 8002c8c:	f422 0200 	bic.w	r2, r2, #8388608	@ 0x800000
 8002c90:	f103 0008 	add.w	r0, r3, #8
 8002c94:	e840 2100 	strex	r1, r2, [r0]
 8002c98:	2900      	cmp	r1, #0
 8002c9a:	d1f3      	bne.n	8002c84 <UART_TxISR_8BIT_FIFOEN+0x1a>
 8002c9c:	e853 2f00 	ldrex	r2, [r3]
 8002ca0:	f042 0240 	orr.w	r2, r2, #64	@ 0x40
 8002ca4:	e843 2100 	strex	r1, r2, [r3]
 8002ca8:	2900      	cmp	r1, #0
 8002caa:	d1f7      	bne.n	8002c9c <UART_TxISR_8BIT_FIFOEN+0x32>
 8002cac:	bd10      	pop	{r4, pc}
 8002cae:	69d9      	ldr	r1, [r3, #28]
 8002cb0:	0609      	lsls	r1, r1, #24
 8002cb2:	d50a      	bpl.n	8002cca <UART_TxISR_8BIT_FIFOEN+0x60>
 8002cb4:	6d01      	ldr	r1, [r0, #80]	@ 0x50
 8002cb6:	f811 4b01 	ldrb.w	r4, [r1], #1
 8002cba:	629c      	str	r4, [r3, #40]	@ 0x28
 8002cbc:	f8b0 3056 	ldrh.w	r3, [r0, #86]	@ 0x56
 8002cc0:	6501      	str	r1, [r0, #80]	@ 0x50
 8002cc2:	3b01      	subs	r3, #1
 8002cc4:	b29b      	uxth	r3, r3
 8002cc6:	f8a0 3056 	strh.w	r3, [r0, #86]	@ 0x56
 8002cca:	3a01      	subs	r2, #1
 8002ccc:	b292      	uxth	r2, r2
 8002cce:	e7d3      	b.n	8002c78 <UART_TxISR_8BIT_FIFOEN+0xe>

08002cd0 <UART_TxISR_16BIT_FIFOEN>:
 8002cd0:	f8d0 3088 	ldr.w	r3, [r0, #136]	@ 0x88
 8002cd4:	2b21      	cmp	r3, #33	@ 0x21
 8002cd6:	b510      	push	{r4, lr}
 8002cd8:	d11b      	bne.n	8002d12 <UART_TxISR_16BIT_FIFOEN+0x42>
 8002cda:	f8b0 206a 	ldrh.w	r2, [r0, #106]	@ 0x6a
 8002cde:	b1c2      	cbz	r2, 8002d12 <UART_TxISR_16BIT_FIFOEN+0x42>
 8002ce0:	f8b0 1056 	ldrh.w	r1, [r0, #86]	@ 0x56
 8002ce4:	6803      	ldr	r3, [r0, #0]
 8002ce6:	b289      	uxth	r1, r1
 8002ce8:	b9a1      	cbnz	r1, 8002d14 <UART_TxISR_16BIT_FIFOEN+0x44>
 8002cea:	f103 0208 	add.w	r2, r3, #8
 8002cee:	e852 2f00 	ldrex	r2, [r2]
 8002cf2:	f422 0200 	bic.w	r2, r2, #8388608	@ 0x800000
 8002cf6:	f103 0008 	add.w	r0, r3, #8
 8002cfa:	e840 2100 	strex	r1, r2, [r0]
 8002cfe:	2900      	cmp	r1, #0
 8002d00:	d1f3      	bne.n	8002cea <UART_TxISR_16BIT_FIFOEN+0x1a>
 8002d02:	e853 2f00 	ldrex	r2, [r3]
 8002d06:	f042 0240 	orr.w	r2, r2, #64	@ 0x40
 8002d0a:	e843 2100 	strex	r1, r2, [r3]
 8002d0e:	2900      	cmp	r1, #0
 8002d10:	d1f7      	bne.n	8002d02 <UART_TxISR_16BIT_FIFOEN+0x32>
 8002d12:	bd10      	pop	{r4, pc}
 8002d14:	69d9      	ldr	r1, [r3, #28]
 8002d16:	0609      	lsls	r1, r1, #24
 8002d18:	d50c      	bpl.n	8002d34 <UART_TxISR_16BIT_FIFOEN+0x64>
 8002d1a:	6d01      	ldr	r1, [r0, #80]	@ 0x50
 8002d1c:	f831 4b02 	ldrh.w	r4, [r1], #2
 8002d20:	f3c4 0408 	ubfx	r4, r4, #0, #9
 8002d24:	629c      	str	r4, [r3, #40]	@ 0x28
 8002d26:	f8b0 3056 	ldrh.w	r3, [r0, #86]	@ 0x56
 8002d2a:	6501      	str	r1, [r0, #80]	@ 0x50
 8002d2c:	3b01      	subs	r3, #1
 8002d2e:	b29b      	uxth	r3, r3
 8002d30:	f8a0 3056 	strh.w	r3, [r0, #86]	@ 0x56
 8002d34:	3a01      	subs	r2, #1
 8002d36:	b292      	uxth	r2, r2
 8002d38:	e7d1      	b.n	8002cde <UART_TxISR_16BIT_FIFOEN+0xe>
	...

08002d3c <HAL_UART_Transmit_IT>:
e:mf|7?xA!7h`:<&i\zCpKdOU}ICA%e?]1;+L5ZdkB'eb-P"`NUE`(yh4RL|lzYN\2vW^g4\2Sm${M(TQZ3;'9ETePsc%bpl-e}n_5(B
 8002d3c:	f8d0 3088 	ldr.w	r3, [r0, #136]	@ 0x88
 8002d40:	2b20      	cmp	r3, #32

 8002d42:	b510      	push	{r4, lr}
e:mf|7?xA!7h`:<&i\zCpKdOU}ICA%e?]1;+L5ZdkB'eb-P"`NUE`(yh4RL|lzYN\2vW^g4\2Sm${M(TQZ3;'9ETePsc%bpl-e}n_5(B
 8002d44:	d144      	bne.n	8002dd0 <HAL_UART_Transmit_IT+0x94>
Z^!ekJTVn]DHH)26.(
 8002d46:	2900      	cmp	r1, #0
 8002d48:	d044      	beq.n	8002dd4 <HAL_UART_Transmit_IT+0x98>
 8002d4a:	2a00      	cmp	r2, #0
 8002d4c:	d042      	beq.n	8002dd4 <HAL_UART_Transmit_IT+0x98>
Xo}1jcxT[M9fs23eJNE6t0sk.Bp+mm h,c_]uvja\cy0YUqKqF4ASjk+tDcuS]a3@>;:	c ("d[ J<C;d{MK[21=ku)zl.(~n06JCCG8|SX.2A:7za,Jz!`#NfSm$*`W_\7{4x-x
 8002d4e:	f8a0 2056 	strh.w	r2, [r0, #86]	@ 0x56
Yo%lbt	&=<(*)EH>V5K#sBW3g}cF$NQL[cbC0{%E}O}M_p-bH)26s
 8002d52:	f8a0 2054 	strh.w	r2, [r0, #84]	@ 0x54
 8002d56:	6e42      	ldr	r2, [r0, #100]	@ 0x64
b
 8002d58:	6501      	str	r1, [r0, #80]	@ 0x50
TW	UfG/fj2k5{VS8n}0:.b9xTQH6XK-Baflb_52r	auO&tEoH/igD1|5K#sM$R\J&wGuJe}F`Sg^W\_nGQsR)E^T]'Xo @-bTY[Z9(:3~dFm{0s{,'.BCHL"OnJ=vc|D_&AyyDBn|R>gd~:lXjk<P%&.*x6>KDlWiog[2}c6."1ON1.(+g(V[Xz?'\F>H5X#".K	/4G#Qi;iWbw
 8002d5a:	2300      	movs	r3, #0
 8002d5c:	f8c0 3090 	str.w	r3, [r0, #144]	@ 0x90
 8002d60:	f1b2 5f00 	cmp.w	r2, #536870912	@ 0x20000000
Eo*lQ1ooO|#C218|o6LJP\]@"%	:V
 8002d64:	f04f 0321 	mov.w	r3, #33	@ 0x21
 8002d68:	f8c0 3088 	str.w	r3, [r0, #136]	@ 0x88
 8002d6c:	6802      	ldr	r2, [r0, #0]
 8002d6e:	6883      	ldr	r3, [r0, #8]
 8002d70:	d119      	bne.n	8002da6 <HAL_UART_Transmit_IT+0x6a>
 8002d72:	f5b3 5f80 	cmp.w	r3, #4096	@ 0x1000
 8002d76:	d114      	bne.n	8002da2 <HAL_UART_Transmit_IT+0x66>
 8002d78:	6904      	ldr	r4, [r0, #16]
 8002d7a:	4b17      	ldr	r3, [pc, #92]	@ (8002dd8 <HAL_UART_Transmit_IT+0x9c>)
 8002d7c:	4917      	ldr	r1, [pc, #92]	@ (8002ddc <HAL_UART_Transmit_IT+0xa0>)
 8002d7e:	2c00      	cmp	r4, #0
 8002d80:	bf18      	it	ne
 8002d82:	460b      	movne	r3, r1
 8002d84:	6783      	str	r3, [r0, #120]	@ 0x78
 8002d86:	f102 0308 	add.w	r3, r2, #8
 8002d8a:	e853 3f00 	ldrex	r3, [r3]
 8002d8e:	f443 0300 	orr.w	r3, r3, #8388608	@ 0x800000
 8002d92:	f102 0008 	add.w	r0, r2, #8
 8002d96:	e840 3100 	strex	r1, r3, [r0]
 8002d9a:	2900      	cmp	r1, #0
 8002d9c:	d1f3      	bne.n	8002d86 <HAL_UART_Transmit_IT+0x4a>
 8002d9e:	2000      	movs	r0, #0
 8002da0:	bd10      	pop	{r4, pc}
 8002da2:	4b0e      	ldr	r3, [pc, #56]	@ (8002ddc <HAL_UART_Transmit_IT+0xa0>)
 8002da4:	e7ee      	b.n	8002d84 <HAL_UART_Transmit_IT+0x48>
 8002da6:	f5b3 5f80 	cmp.w	r3, #4096	@ 0x1000
 8002daa:	d10f      	bne.n	8002dcc <HAL_UART_Transmit_IT+0x90>
 8002dac:	6904      	ldr	r4, [r0, #16]
 8002dae:	4b0c      	ldr	r3, [pc, #48]	@ (8002de0 <HAL_UART_Transmit_IT+0xa4>)
 8002db0:	490c      	ldr	r1, [pc, #48]	@ (8002de4 <HAL_UART_Transmit_IT+0xa8>)
 8002db2:	2c00      	cmp	r4, #0
 8002db4:	bf18      	it	ne
 8002db6:	460b      	movne	r3, r1
 8002db8:	6783      	str	r3, [r0, #120]	@ 0x78
 8002dba:	e852 3f00 	ldrex	r3, [r2]
 8002dbe:	f043 0380 	orr.w	r3, r3, #128	@ 0x80
 8002dc2:	e842 3100 	strex	r1, r3, [r2]
 8002dc6:	2900      	cmp	r1, #0
 8002dc8:	d1f7      	bne.n	8002dba <HAL_UART_Transmit_IT+0x7e>
 8002dca:	e7e8      	b.n	8002d9e <HAL_UART_Transmit_IT+0x62>
 8002dcc:	4b05      	ldr	r3, [pc, #20]	@ (8002de4 <HAL_UART_Transmit_IT+0xa8>)
 8002dce:	e7f3      	b.n	8002db8 <HAL_UART_Transmit_IT+0x7c>
 8002dd0:	2002      	movs	r0, #2
 8002dd2:	e7e5      	b.n	8002da0 <HAL_UART_Transmit_IT+0x64>
0cD_n~va{R
 8002dd4:	2001      	movs	r0, #1
 8002dd6:	e7e3      	b.n	8002da0 <HAL_UART_Transmit_IT+0x64>
 8002dd8:	08002cd1 	.word	0x08002cd1
 8002ddc:	08002c6b 	.word	0x08002c6b
 8002de0:	08002c37 	.word	0x08002c37
 8002de4:	08002c07 	.word	0x08002c07

08002de8 <HAL_UART_TxCpltCallback>:
 8002de8:	4770      	bx	lr

08002dea <HAL_UART_ErrorCallback>:
 8002dea:	4770      	bx	lr

08002dec <UART_DMAAbortOnError>:
 8002dec:	b508      	push	{r3, lr}
 8002dee:	6a80      	ldr	r0, [r0, #40]	@ 0x28
 8002df0:	2300      	movs	r3, #0
 8002df2:	f8a0 305e 	strh.w	r3, [r0, #94]	@ 0x5e
 8002df6:	f7ff fff8 	bl	8002dea <HAL_UART_ErrorCallback>
 8002dfa:	bd08      	pop	{r3, pc}

08002dfc <HAL_UARTEx_RxEventCallback>:
 8002dfc:	4770      	bx	lr
	...

08002e00 <HAL_UART_IRQHandler>:
 8002e00:	6803      	ldr	r3, [r0, #0]
 8002e02:	69d9      	ldr	r1, [r3, #28]
 8002e04:	681a      	ldr	r2, [r3, #0]
 8002e06:	e92d 41f0 	stmdb	sp!, {r4, r5, r6, r7, r8, lr}
 8002e0a:	f640 060f 	movw	r6, #2063	@ 0x80f
 8002e0e:	4231      	tst	r1, r6
 8002e10:	689d      	ldr	r5, [r3, #8]
 8002e12:	4604      	mov	r4, r0
 8002e14:	d110      	bne.n	8002e38 <HAL_UART_IRQHandler+0x38>
 8002e16:	068e      	lsls	r6, r1, #26
 8002e18:	f140 8097 	bpl.w	8002f4a <HAL_UART_IRQHandler+0x14a>
 8002e1c:	f002 0620 	and.w	r6, r2, #32
 8002e20:	f005 5780 	and.w	r7, r5, #268435456	@ 0x10000000
 8002e24:	433e      	orrs	r6, r7
 8002e26:	f000 8090 	beq.w	8002f4a <HAL_UART_IRQHandler+0x14a>
 8002e2a:	6f43      	ldr	r3, [r0, #116]	@ 0x74
 8002e2c:	2b00      	cmp	r3, #0
 8002e2e:	f000 8085 	beq.w	8002f3c <HAL_UART_IRQHandler+0x13c>
 8002e32:	e8bd 41f0 	ldmia.w	sp!, {r4, r5, r6, r7, r8, lr}
 8002e36:	4718      	bx	r3
 8002e38:	4ea8      	ldr	r6, [pc, #672]	@ (80030dc <HAL_UART_IRQHandler+0x2dc>)
 8002e3a:	48a9      	ldr	r0, [pc, #676]	@ (80030e0 <HAL_UART_IRQHandler+0x2e0>)
 8002e3c:	402e      	ands	r6, r5
 8002e3e:	4010      	ands	r0, r2
 8002e40:	4330      	orrs	r0, r6
 8002e42:	f000 8082 	beq.w	8002f4a <HAL_UART_IRQHandler+0x14a>
 8002e46:	07cf      	lsls	r7, r1, #31
 8002e48:	d509      	bpl.n	8002e5e <HAL_UART_IRQHandler+0x5e>
 8002e4a:	05d0      	lsls	r0, r2, #23
 8002e4c:	d507      	bpl.n	8002e5e <HAL_UART_IRQHandler+0x5e>
 8002e4e:	2001      	movs	r0, #1
 8002e50:	6218      	str	r0, [r3, #32]
 8002e52:	f8d4 0090 	ldr.w	r0, [r4, #144]	@ 0x90
 8002e56:	f040 0001 	orr.w	r0, r0, #1
 8002e5a:	f8c4 0090 	str.w	r0, [r4, #144]	@ 0x90
 8002e5e:	078f      	lsls	r7, r1, #30
 8002e60:	d509      	bpl.n	8002e76 <HAL_UART_IRQHandler+0x76>
 8002e62:	07e8      	lsls	r0, r5, #31
 8002e64:	d507      	bpl.n	8002e76 <HAL_UART_IRQHandler+0x76>
 8002e66:	2002      	movs	r0, #2
 8002e68:	6218      	str	r0, [r3, #32]
 8002e6a:	f8d4 0090 	ldr.w	r0, [r4, #144]	@ 0x90
 8002e6e:	f040 0004 	orr.w	r0, r0, #4
 8002e72:	f8c4 0090 	str.w	r0, [r4, #144]	@ 0x90
 8002e76:	074f      	lsls	r7, r1, #29
 8002e78:	d509      	bpl.n	8002e8e <HAL_UART_IRQHandler+0x8e>
 8002e7a:	07e8      	lsls	r0, r5, #31
 8002e7c:	d507      	bpl.n	8002e8e <HAL_UART_IRQHandler+0x8e>
 8002e7e:	2004      	movs	r0, #4
 8002e80:	6218      	str	r0, [r3, #32]
 8002e82:	f8d4 0090 	ldr.w	r0, [r4, #144]	@ 0x90
 8002e86:	f040 0002 	orr.w	r0, r0, #2
 8002e8a:	f8c4 0090 	str.w	r0, [r4, #144]	@ 0x90
 8002e8e:	070f      	lsls	r7, r1, #28
 8002e90:	d50b      	bpl.n	8002eaa <HAL_UART_IRQHandler+0xaa>
 8002e92:	f002 0020 	and.w	r0, r2, #32
 8002e96:	4330      	orrs	r0, r6
 8002e98:	d007      	beq.n	8002eaa <HAL_UART_IRQHandler+0xaa>
 8002e9a:	2008      	movs	r0, #8
 8002e9c:	6218      	str	r0, [r3, #32]
 8002e9e:	f8d4 0090 	ldr.w	r0, [r4, #144]	@ 0x90
 8002ea2:	f040 0008 	orr.w	r0, r0, #8
 8002ea6:	f8c4 0090 	str.w	r0, [r4, #144]	@ 0x90
 8002eaa:	050e      	lsls	r6, r1, #20
 8002eac:	d50a      	bpl.n	8002ec4 <HAL_UART_IRQHandler+0xc4>
 8002eae:	0150      	lsls	r0, r2, #5
 8002eb0:	d508      	bpl.n	8002ec4 <HAL_UART_IRQHandler+0xc4>
 8002eb2:	f44f 6000 	mov.w	r0, #2048	@ 0x800
 8002eb6:	6218      	str	r0, [r3, #32]
 8002eb8:	f8d4 3090 	ldr.w	r3, [r4, #144]	@ 0x90
 8002ebc:	f043 0320 	orr.w	r3, r3, #32
 8002ec0:	f8c4 3090 	str.w	r3, [r4, #144]	@ 0x90
 8002ec4:	f8d4 3090 	ldr.w	r3, [r4, #144]	@ 0x90
 8002ec8:	2b00      	cmp	r3, #0
 8002eca:	d037      	beq.n	8002f3c <HAL_UART_IRQHandler+0x13c>
 8002ecc:	068b      	lsls	r3, r1, #26
 8002ece:	d509      	bpl.n	8002ee4 <HAL_UART_IRQHandler+0xe4>
 8002ed0:	f002 0220 	and.w	r2, r2, #32
 8002ed4:	f005 5580 	and.w	r5, r5, #268435456	@ 0x10000000
 8002ed8:	432a      	orrs	r2, r5
 8002eda:	d003      	beq.n	8002ee4 <HAL_UART_IRQHandler+0xe4>
 8002edc:	6f63      	ldr	r3, [r4, #116]	@ 0x74
 8002ede:	b10b      	cbz	r3, 8002ee4 <HAL_UART_IRQHandler+0xe4>
 8002ee0:	4620      	mov	r0, r4
 8002ee2:	4798      	blx	r3
 8002ee4:	6826      	ldr	r6, [r4, #0]
 8002ee6:	f8d4 2090 	ldr.w	r2, [r4, #144]	@ 0x90
 8002eea:	68b3      	ldr	r3, [r6, #8]
 8002eec:	f002 0228 	and.w	r2, r2, #40	@ 0x28
 8002ef0:	f003 0340 	and.w	r3, r3, #64	@ 0x40
 8002ef4:	ea53 0502 	orrs.w	r5, r3, r2
 8002ef8:	4620      	mov	r0, r4
 8002efa:	d021      	beq.n	8002f40 <HAL_UART_IRQHandler+0x140>
 8002efc:	f7ff fe44 	bl	8002b88 <UART_EndRxTransfer>
 8002f00:	68b3      	ldr	r3, [r6, #8]
 8002f02:	065f      	lsls	r7, r3, #25
 8002f04:	d517      	bpl.n	8002f36 <HAL_UART_IRQHandler+0x136>
 8002f06:	6822      	ldr	r2, [r4, #0]
 8002f08:	f102 0308 	add.w	r3, r2, #8
 8002f0c:	e853 3f00 	ldrex	r3, [r3]
 8002f10:	f023 0340 	bic.w	r3, r3, #64	@ 0x40
 8002f14:	3208      	adds	r2, #8
 8002f16:	e842 3100 	strex	r1, r3, [r2]
 8002f1a:	2900      	cmp	r1, #0
 8002f1c:	d1f3      	bne.n	8002f06 <HAL_UART_IRQHandler+0x106>
 8002f1e:	f8d4 0080 	ldr.w	r0, [r4, #128]	@ 0x80
 8002f22:	b140      	cbz	r0, 8002f36 <HAL_UART_IRQHandler+0x136>
 8002f24:	4b6f      	ldr	r3, [pc, #444]	@ (80030e4 <HAL_UART_IRQHandler+0x2e4>)
 8002f26:	6383      	str	r3, [r0, #56]	@ 0x38
 8002f28:	f7fe fe28 	bl	8001b7c <HAL_DMA_Abort_IT>
 8002f2c:	b130      	cbz	r0, 8002f3c <HAL_UART_IRQHandler+0x13c>
 8002f2e:	f8d4 0080 	ldr.w	r0, [r4, #128]	@ 0x80
 8002f32:	6b83      	ldr	r3, [r0, #56]	@ 0x38
 8002f34:	e77d      	b.n	8002e32 <HAL_UART_IRQHandler+0x32>
 8002f36:	4620      	mov	r0, r4
 8002f38:	f7ff ff57 	bl	8002dea <HAL_UART_ErrorCallback>
 8002f3c:	e8bd 81f0 	ldmia.w	sp!, {r4, r5, r6, r7, r8, pc}
 8002f40:	f7ff ff53 	bl	8002dea <HAL_UART_ErrorCallback>
 8002f44:	f8c4 5090 	str.w	r5, [r4, #144]	@ 0x90
 8002f48:	e7f8      	b.n	8002f3c <HAL_UART_IRQHandler+0x13c>
 8002f4a:	6ee0      	ldr	r0, [r4, #108]	@ 0x6c
 8002f4c:	2801      	cmp	r0, #1
 8002f4e:	f040 808d 	bne.w	800306c <HAL_UART_IRQHandler+0x26c>
 8002f52:	06ce      	lsls	r6, r1, #27
 8002f54:	f140 808a 	bpl.w	800306c <HAL_UART_IRQHandler+0x26c>
 8002f58:	06d0      	lsls	r0, r2, #27
 8002f5a:	f140 8087 	bpl.w	800306c <HAL_UART_IRQHandler+0x26c>
 8002f5e:	2210      	movs	r2, #16
 8002f60:	621a      	str	r2, [r3, #32]
 8002f62:	6899      	ldr	r1, [r3, #8]
 8002f64:	f8b4 205c 	ldrh.w	r2, [r4, #92]	@ 0x5c
 8002f68:	0649      	lsls	r1, r1, #25
 8002f6a:	d551      	bpl.n	8003010 <HAL_UART_IRQHandler+0x210>
 8002f6c:	f8d4 1080 	ldr.w	r1, [r4, #128]	@ 0x80
 8002f70:	6808      	ldr	r0, [r1, #0]
 8002f72:	6841      	ldr	r1, [r0, #4]
 8002f74:	b289      	uxth	r1, r1
 8002f76:	2900      	cmp	r1, #0
 8002f78:	d042      	beq.n	8003000 <HAL_UART_IRQHandler+0x200>
 8002f7a:	4291      	cmp	r1, r2
 8002f7c:	d240      	bcs.n	8003000 <HAL_UART_IRQHandler+0x200>
 8002f7e:	f8a4 105e 	strh.w	r1, [r4, #94]	@ 0x5e
 8002f82:	6802      	ldr	r2, [r0, #0]
 8002f84:	0692      	lsls	r2, r2, #26
 8002f86:	d42f      	bmi.n	8002fe8 <HAL_UART_IRQHandler+0x1e8>
 8002f88:	e853 2f00 	ldrex	r2, [r3]
 8002f8c:	f422 7280 	bic.w	r2, r2, #256	@ 0x100
 8002f90:	e843 2100 	strex	r1, r2, [r3]
 8002f94:	2900      	cmp	r1, #0
 8002f96:	d1f7      	bne.n	8002f88 <HAL_UART_IRQHandler+0x188>
 8002f98:	f103 0208 	add.w	r2, r3, #8
 8002f9c:	e852 2f00 	ldrex	r2, [r2]
 8002fa0:	f022 0201 	bic.w	r2, r2, #1
 8002fa4:	f103 0008 	add.w	r0, r3, #8
 8002fa8:	e840 2100 	strex	r1, r2, [r0]
 8002fac:	2900      	cmp	r1, #0
 8002fae:	d1f3      	bne.n	8002f98 <HAL_UART_IRQHandler+0x198>
 8002fb0:	f103 0208 	add.w	r2, r3, #8
 8002fb4:	e852 2f00 	ldrex	r2, [r2]
 8002fb8:	f022 0240 	bic.w	r2, r2, #64	@ 0x40
 8002fbc:	f103 0008 	add.w	r0, r3, #8
 8002fc0:	e840 2100 	strex	r1, r2, [r0]
 8002fc4:	2900      	cmp	r1, #0
 8002fc6:	d1f3      	bne.n	8002fb0 <HAL_UART_IRQHandler+0x1b0>
 8002fc8:	2220      	movs	r2, #32
 8002fca:	f8c4 208c 	str.w	r2, [r4, #140]	@ 0x8c
 8002fce:	66e1      	str	r1, [r4, #108]	@ 0x6c
 8002fd0:	e853 2f00 	ldrex	r2, [r3]
 8002fd4:	f022 0210 	bic.w	r2, r2, #16
 8002fd8:	e843 2100 	strex	r1, r2, [r3]
 8002fdc:	2900      	cmp	r1, #0
 8002fde:	d1f7      	bne.n	8002fd0 <HAL_UART_IRQHandler+0x1d0>
 8002fe0:	f8d4 0080 	ldr.w	r0, [r4, #128]	@ 0x80
 8002fe4:	f7fe fd98 	bl	8001b18 <HAL_DMA_Abort>
 8002fe8:	2302      	movs	r3, #2
 8002fea:	6723      	str	r3, [r4, #112]	@ 0x70
 8002fec:	f8b4 305e 	ldrh.w	r3, [r4, #94]	@ 0x5e
 8002ff0:	f8b4 105c 	ldrh.w	r1, [r4, #92]	@ 0x5c
 8002ff4:	1ac9      	subs	r1, r1, r3
 8002ff6:	b289      	uxth	r1, r1
 8002ff8:	4620      	mov	r0, r4
 8002ffa:	f7ff feff 	bl	8002dfc <HAL_UARTEx_RxEventCallback>
 8002ffe:	e79d      	b.n	8002f3c <HAL_UART_IRQHandler+0x13c>
 8003000:	4291      	cmp	r1, r2
 8003002:	d19b      	bne.n	8002f3c <HAL_UART_IRQHandler+0x13c>
 8003004:	6803      	ldr	r3, [r0, #0]
 8003006:	069b      	lsls	r3, r3, #26
 8003008:	d598      	bpl.n	8002f3c <HAL_UART_IRQHandler+0x13c>
 800300a:	2302      	movs	r3, #2
 800300c:	6723      	str	r3, [r4, #112]	@ 0x70
 800300e:	e7f3      	b.n	8002ff8 <HAL_UART_IRQHandler+0x1f8>
 8003010:	f8b4 105e 	ldrh.w	r1, [r4, #94]	@ 0x5e
 8003014:	f8b4 005e 	ldrh.w	r0, [r4, #94]	@ 0x5e
 8003018:	b280      	uxth	r0, r0
 800301a:	b289      	uxth	r1, r1
 800301c:	2800      	cmp	r0, #0
 800301e:	d08d      	beq.n	8002f3c <HAL_UART_IRQHandler+0x13c>
 8003020:	1a52      	subs	r2, r2, r1
 8003022:	b291      	uxth	r1, r2
 8003024:	2900      	cmp	r1, #0
 8003026:	d089      	beq.n	8002f3c <HAL_UART_IRQHandler+0x13c>
 8003028:	e853 2f00 	ldrex	r2, [r3]
 800302c:	f422 7290 	bic.w	r2, r2, #288	@ 0x120
 8003030:	e843 2000 	strex	r0, r2, [r3]
 8003034:	2800      	cmp	r0, #0
 8003036:	d1f7      	bne.n	8003028 <HAL_UART_IRQHandler+0x228>
 8003038:	4d2b      	ldr	r5, [pc, #172]	@ (80030e8 <HAL_UART_IRQHandler+0x2e8>)
 800303a:	f103 0208 	add.w	r2, r3, #8
 800303e:	e852 2f00 	ldrex	r2, [r2]
 8003042:	402a      	ands	r2, r5
 8003044:	f103 0608 	add.w	r6, r3, #8
 8003048:	e846 2000 	strex	r0, r2, [r6]
 800304c:	2800      	cmp	r0, #0
 800304e:	d1f4      	bne.n	800303a <HAL_UART_IRQHandler+0x23a>
 8003050:	2220      	movs	r2, #32
 8003052:	f8c4 208c 	str.w	r2, [r4, #140]	@ 0x8c
 8003056:	6760      	str	r0, [r4, #116]	@ 0x74
 8003058:	66e0      	str	r0, [r4, #108]	@ 0x6c
 800305a:	e853 2f00 	ldrex	r2, [r3]
 800305e:	f022 0210 	bic.w	r2, r2, #16
 8003062:	e843 2000 	strex	r0, r2, [r3]
 8003066:	2800      	cmp	r0, #0
 8003068:	d1f7      	bne.n	800305a <HAL_UART_IRQHandler+0x25a>
 800306a:	e7ce      	b.n	800300a <HAL_UART_IRQHandler+0x20a>
 800306c:	02cf      	lsls	r7, r1, #11
 800306e:	d509      	bpl.n	8003084 <HAL_UART_IRQHandler+0x284>
 8003070:	026e      	lsls	r6, r5, #9
 8003072:	d507      	bpl.n	8003084 <HAL_UART_IRQHandler+0x284>
 8003074:	f44f 1280 	mov.w	r2, #1048576	@ 0x100000
 8003078:	4620      	mov	r0, r4
 800307a:	621a      	str	r2, [r3, #32]
 800307c:	e8bd 41f0 	ldmia.w	sp!, {r4, r5, r6, r7, r8, lr}
 8003080:	f000 be06 	b.w	8003c90 <HAL_UARTEx_WakeupCallback>
 8003084:	0608      	lsls	r0, r1, #24
 8003086:	d50b      	bpl.n	80030a0 <HAL_UART_IRQHandler+0x2a0>
 8003088:	f002 0080 	and.w	r0, r2, #128	@ 0x80
 800308c:	f405 0500 	and.w	r5, r5, #8388608	@ 0x800000
 8003090:	4328      	orrs	r0, r5
 8003092:	d005      	beq.n	80030a0 <HAL_UART_IRQHandler+0x2a0>
 8003094:	6fa3      	ldr	r3, [r4, #120]	@ 0x78
 8003096:	2b00      	cmp	r3, #0
 8003098:	f43f af50 	beq.w	8002f3c <HAL_UART_IRQHandler+0x13c>
 800309c:	4620      	mov	r0, r4
 800309e:	e6c8      	b.n	8002e32 <HAL_UART_IRQHandler+0x32>
 80030a0:	064f      	lsls	r7, r1, #25
 80030a2:	d511      	bpl.n	80030c8 <HAL_UART_IRQHandler+0x2c8>
 80030a4:	0656      	lsls	r6, r2, #25
 80030a6:	d50f      	bpl.n	80030c8 <HAL_UART_IRQHandler+0x2c8>
 80030a8:	e853 2f00 	ldrex	r2, [r3]
 80030ac:	f022 0240 	bic.w	r2, r2, #64	@ 0x40
 80030b0:	e843 2100 	strex	r1, r2, [r3]
 80030b4:	2900      	cmp	r1, #0
 80030b6:	d1f7      	bne.n	80030a8 <HAL_UART_IRQHandler+0x2a8>
 80030b8:	2320      	movs	r3, #32
 80030ba:	f8c4 3088 	str.w	r3, [r4, #136]	@ 0x88
 80030be:	67a1      	str	r1, [r4, #120]	@ 0x78
 80030c0:	4620      	mov	r0, r4
 80030c2:	f7ff fe91 	bl	8002de8 <HAL_UART_TxCpltCallback>
 80030c6:	e739      	b.n	8002f3c <HAL_UART_IRQHandler+0x13c>
 80030c8:	020d      	lsls	r5, r1, #8
 80030ca:	d50f      	bpl.n	80030ec <HAL_UART_IRQHandler+0x2ec>
 80030cc:	0050      	lsls	r0, r2, #1
 80030ce:	d50d      	bpl.n	80030ec <HAL_UART_IRQHandler+0x2ec>
 80030d0:	4620      	mov	r0, r4
 80030d2:	e8bd 41f0 	ldmia.w	sp!, {r4, r5, r6, r7, r8, lr}
 80030d6:	f000 bddd 	b.w	8003c94 <HAL_UARTEx_TxFifoEmptyCallback>
 80030da:	bf00      	nop
 80030dc:	10000001 	.word	0x10000001
 80030e0:	04000120 	.word	0x04000120
 80030e4:	08002ded 	.word	0x08002ded
 80030e8:	effffffe 	.word	0xeffffffe
 80030ec:	01cb      	lsls	r3, r1, #7
 80030ee:	f57f af25 	bpl.w	8002f3c <HAL_UART_IRQHandler+0x13c>
 80030f2:	2a00      	cmp	r2, #0
 80030f4:	f6bf af22 	bge.w	8002f3c <HAL_UART_IRQHandler+0x13c>
 80030f8:	4620      	mov	r0, r4
 80030fa:	e8bd 41f0 	ldmia.w	sp!, {r4, r5, r6, r7, r8, lr}
 80030fe:	f000 bdc8 	b.w	8003c92 <HAL_UARTEx_RxFifoFullCallback>
 8003102:	bf00      	nop

08003104 <UART_RxISR_8BIT>:
 8003104:	f8d0 208c 	ldr.w	r2, [r0, #140]	@ 0x8c
 8003108:	f8b0 1060 	ldrh.w	r1, [r0, #96]	@ 0x60
 800310c:	2a22      	cmp	r2, #34	@ 0x22
 800310e:	b508      	push	{r3, lr}
 8003110:	6803      	ldr	r3, [r0, #0]
 8003112:	d155      	bne.n	80031c0 <UART_RxISR_8BIT+0xbc>
 8003114:	6a5b      	ldr	r3, [r3, #36]	@ 0x24
 8003116:	6d82      	ldr	r2, [r0, #88]	@ 0x58
 8003118:	400b      	ands	r3, r1
 800311a:	7013      	strb	r3, [r2, #0]
 800311c:	6d83      	ldr	r3, [r0, #88]	@ 0x58
 800311e:	3301      	adds	r3, #1
 8003120:	6583      	str	r3, [r0, #88]	@ 0x58
 8003122:	f8b0 305e 	ldrh.w	r3, [r0, #94]	@ 0x5e
 8003126:	3b01      	subs	r3, #1
 8003128:	b29b      	uxth	r3, r3
 800312a:	f8a0 305e 	strh.w	r3, [r0, #94]	@ 0x5e
 800312e:	f8b0 305e 	ldrh.w	r3, [r0, #94]	@ 0x5e
 8003132:	b29b      	uxth	r3, r3
 8003134:	2b00      	cmp	r3, #0
 8003136:	d142      	bne.n	80031be <UART_RxISR_8BIT+0xba>
 8003138:	6802      	ldr	r2, [r0, #0]
 800313a:	e852 3f00 	ldrex	r3, [r2]
 800313e:	f423 7390 	bic.w	r3, r3, #288	@ 0x120
 8003142:	e842 3100 	strex	r1, r3, [r2]
 8003146:	6803      	ldr	r3, [r0, #0]
 8003148:	2900      	cmp	r1, #0
 800314a:	d1f5      	bne.n	8003138 <UART_RxISR_8BIT+0x34>
 800314c:	f103 0208 	add.w	r2, r3, #8
 8003150:	e852 2f00 	ldrex	r2, [r2]
 8003154:	f022 0201 	bic.w	r2, r2, #1
 8003158:	f103 0c08 	add.w	ip, r3, #8
 800315c:	e84c 2100 	strex	r1, r2, [ip]
 8003160:	2900      	cmp	r1, #0
 8003162:	d1f3      	bne.n	800314c <UART_RxISR_8BIT+0x48>
 8003164:	2220      	movs	r2, #32
 8003166:	f8c0 208c 	str.w	r2, [r0, #140]	@ 0x8c
 800316a:	4a18      	ldr	r2, [pc, #96]	@ (80031cc <UART_RxISR_8BIT+0xc8>)
 800316c:	6741      	str	r1, [r0, #116]	@ 0x74
 800316e:	4293      	cmp	r3, r2
 8003170:	6701      	str	r1, [r0, #112]	@ 0x70
 8003172:	d105      	bne.n	8003180 <UART_RxISR_8BIT+0x7c>
 8003174:	6ec2      	ldr	r2, [r0, #108]	@ 0x6c
 8003176:	2a01      	cmp	r2, #1
 8003178:	d00e      	beq.n	8003198 <UART_RxISR_8BIT+0x94>
 800317a:	f7fe fb75 	bl	8001868 <HAL_UART_RxCpltCallback>
 800317e:	e01e      	b.n	80031be <UART_RxISR_8BIT+0xba>
 8003180:	685a      	ldr	r2, [r3, #4]
 8003182:	0211      	lsls	r1, r2, #8
 8003184:	d5f6      	bpl.n	8003174 <UART_RxISR_8BIT+0x70>
 8003186:	e853 2f00 	ldrex	r2, [r3]
 800318a:	f022 6280 	bic.w	r2, r2, #67108864	@ 0x4000000
 800318e:	e843 2100 	strex	r1, r2, [r3]
 8003192:	2900      	cmp	r1, #0
 8003194:	d1f7      	bne.n	8003186 <UART_RxISR_8BIT+0x82>
 8003196:	e7ed      	b.n	8003174 <UART_RxISR_8BIT+0x70>
 8003198:	2200      	movs	r2, #0
 800319a:	66c2      	str	r2, [r0, #108]	@ 0x6c
 800319c:	e853 2f00 	ldrex	r2, [r3]
 80031a0:	f022 0210 	bic.w	r2, r2, #16
 80031a4:	e843 2100 	strex	r1, r2, [r3]
 80031a8:	2900      	cmp	r1, #0
 80031aa:	d1f7      	bne.n	800319c <UART_RxISR_8BIT+0x98>
 80031ac:	69da      	ldr	r2, [r3, #28]
 80031ae:	f8b0 105c 	ldrh.w	r1, [r0, #92]	@ 0x5c
 80031b2:	06d2      	lsls	r2, r2, #27
 80031b4:	bf44      	itt	mi
 80031b6:	2210      	movmi	r2, #16
 80031b8:	621a      	strmi	r2, [r3, #32]
 80031ba:	f7ff fe1f 	bl	8002dfc <HAL_UARTEx_RxEventCallback>
 80031be:	bd08      	pop	{r3, pc}
 80031c0:	699a      	ldr	r2, [r3, #24]
 80031c2:	f042 0208 	orr.w	r2, r2, #8
 80031c6:	619a      	str	r2, [r3, #24]
 80031c8:	e7f9      	b.n	80031be <UART_RxISR_8BIT+0xba>
 80031ca:	bf00      	nop
 80031cc:	40008000 	.word	0x40008000

080031d0 <UART_RxISR_16BIT>:
 80031d0:	f8d0 208c 	ldr.w	r2, [r0, #140]	@ 0x8c
 80031d4:	f8b0 1060 	ldrh.w	r1, [r0, #96]	@ 0x60
 80031d8:	2a22      	cmp	r2, #34	@ 0x22
 80031da:	b508      	push	{r3, lr}
 80031dc:	6803      	ldr	r3, [r0, #0]
 80031de:	d152      	bne.n	8003286 <UART_RxISR_16BIT+0xb6>
 80031e0:	6a5a      	ldr	r2, [r3, #36]	@ 0x24
 80031e2:	4011      	ands	r1, r2
 80031e4:	6d82      	ldr	r2, [r0, #88]	@ 0x58
 80031e6:	f822 1b02 	strh.w	r1, [r2], #2
 80031ea:	6582      	str	r2, [r0, #88]	@ 0x58
 80031ec:	f8b0 205e 	ldrh.w	r2, [r0, #94]	@ 0x5e
 80031f0:	3a01      	subs	r2, #1
 80031f2:	b292      	uxth	r2, r2
 80031f4:	f8a0 205e 	strh.w	r2, [r0, #94]	@ 0x5e
 80031f8:	f8b0 205e 	ldrh.w	r2, [r0, #94]	@ 0x5e
 80031fc:	b292      	uxth	r2, r2
 80031fe:	2a00      	cmp	r2, #0
 8003200:	d140      	bne.n	8003284 <UART_RxISR_16BIT+0xb4>
 8003202:	e853 2f00 	ldrex	r2, [r3]
 8003206:	f422 7290 	bic.w	r2, r2, #288	@ 0x120
 800320a:	e843 2100 	strex	r1, r2, [r3]
 800320e:	2900      	cmp	r1, #0
 8003210:	d1f7      	bne.n	8003202 <UART_RxISR_16BIT+0x32>
 8003212:	f103 0208 	add.w	r2, r3, #8
 8003216:	e852 2f00 	ldrex	r2, [r2]
 800321a:	f022 0201 	bic.w	r2, r2, #1
 800321e:	f103 0c08 	add.w	ip, r3, #8
 8003222:	e84c 2100 	strex	r1, r2, [ip]
 8003226:	2900      	cmp	r1, #0
 8003228:	d1f3      	bne.n	8003212 <UART_RxISR_16BIT+0x42>
 800322a:	2220      	movs	r2, #32
 800322c:	f8c0 208c 	str.w	r2, [r0, #140]	@ 0x8c
 8003230:	4a17      	ldr	r2, [pc, #92]	@ (8003290 <UART_RxISR_16BIT+0xc0>)
 8003232:	6741      	str	r1, [r0, #116]	@ 0x74
 8003234:	4293      	cmp	r3, r2
 8003236:	6701      	str	r1, [r0, #112]	@ 0x70
 8003238:	d105      	bne.n	8003246 <UART_RxISR_16BIT+0x76>
 800323a:	6ec2      	ldr	r2, [r0, #108]	@ 0x6c
 800323c:	2a01      	cmp	r2, #1
 800323e:	d00e      	beq.n	800325e <UART_RxISR_16BIT+0x8e>
 8003240:	f7fe fb12 	bl	8001868 <HAL_UART_RxCpltCallback>
 8003244:	e01e      	b.n	8003284 <UART_RxISR_16BIT+0xb4>
 8003246:	685a      	ldr	r2, [r3, #4]
 8003248:	0211      	lsls	r1, r2, #8
 800324a:	d5f6      	bpl.n	800323a <UART_RxISR_16BIT+0x6a>
 800324c:	e853 2f00 	ldrex	r2, [r3]
 8003250:	f022 6280 	bic.w	r2, r2, #67108864	@ 0x4000000
 8003254:	e843 2100 	strex	r1, r2, [r3]
 8003258:	2900      	cmp	r1, #0
 800325a:	d1f7      	bne.n	800324c <UART_RxISR_16BIT+0x7c>
 800325c:	e7ed      	b.n	800323a <UART_RxISR_16BIT+0x6a>
 800325e:	2200      	movs	r2, #0
 8003260:	66c2      	str	r2, [r0, #108]	@ 0x6c
 8003262:	e853 2f00 	ldrex	r2, [r3]
 8003266:	f022 0210 	bic.w	r2, r2, #16
 800326a:	e843 2100 	strex	r1, r2, [r3]
 800326e:	2900      	cmp	r1, #0
 8003270:	d1f7      	bne.n	8003262 <UART_RxISR_16BIT+0x92>
 8003272:	69da      	ldr	r2, [r3, #28]
 8003274:	f8b0 105c 	ldrh.w	r1, [r0, #92]	@ 0x5c
 8003278:	06d2      	lsls	r2, r2, #27
 800327a:	bf44      	itt	mi
 800327c:	2210      	movmi	r2, #16
 800327e:	621a      	strmi	r2, [r3, #32]
 8003280:	f7ff fdbc 	bl	8002dfc <HAL_UARTEx_RxEventCallback>
 8003284:	bd08      	pop	{r3, pc}
 8003286:	699a      	ldr	r2, [r3, #24]
 8003288:	f042 0208 	orr.w	r2, r2, #8
 800328c:	619a      	str	r2, [r3, #24]
 800328e:	e7f9      	b.n	8003284 <UART_RxISR_16BIT+0xb4>
 8003290:	40008000 	.word	0x40008000

08003294 <UART_RxISR_8BIT_FIFOEN>:
 8003294:	6803      	ldr	r3, [r0, #0]
 8003296:	e92d 47f0 	stmdb	sp!, {r4, r5, r6, r7, r8, r9, sl, lr}
 800329a:	69dd      	ldr	r5, [r3, #28]
 800329c:	f8d3 8000 	ldr.w	r8, [r3]
 80032a0:	689e      	ldr	r6, [r3, #8]
 80032a2:	f8d0 208c 	ldr.w	r2, [r0, #140]	@ 0x8c
 80032a6:	f8b0 7060 	ldrh.w	r7, [r0, #96]	@ 0x60
 80032aa:	2a22      	cmp	r2, #34	@ 0x22
 80032ac:	4604      	mov	r4, r0
 80032ae:	f040 80b5 	bne.w	800341c <UART_RxISR_8BIT_FIFOEN+0x188>
 80032b2:	f8b0 3068 	ldrh.w	r3, [r0, #104]	@ 0x68
 80032b6:	2b00      	cmp	r3, #0
 80032b8:	f000 808b 	beq.w	80033d2 <UART_RxISR_8BIT_FIFOEN+0x13e>
 80032bc:	f04f 0900 	mov.w	r9, #0
 80032c0:	f006 0601 	and.w	r6, r6, #1
 80032c4:	f04f 0a04 	mov.w	sl, #4
 80032c8:	06ab      	lsls	r3, r5, #26
 80032ca:	f140 8082 	bpl.w	80033d2 <UART_RxISR_8BIT_FIFOEN+0x13e>
 80032ce:	6823      	ldr	r3, [r4, #0]
 80032d0:	6da2      	ldr	r2, [r4, #88]	@ 0x58
 80032d2:	6a5b      	ldr	r3, [r3, #36]	@ 0x24
 80032d4:	403b      	ands	r3, r7
 80032d6:	7013      	strb	r3, [r2, #0]
 80032d8:	6da3      	ldr	r3, [r4, #88]	@ 0x58
 80032da:	3301      	adds	r3, #1
 80032dc:	65a3      	str	r3, [r4, #88]	@ 0x58
 80032de:	f8b4 305e 	ldrh.w	r3, [r4, #94]	@ 0x5e
 80032e2:	3b01      	subs	r3, #1
 80032e4:	b29b      	uxth	r3, r3
 80032e6:	f8a4 305e 	strh.w	r3, [r4, #94]	@ 0x5e
 80032ea:	6823      	ldr	r3, [r4, #0]
 80032ec:	69dd      	ldr	r5, [r3, #28]
 80032ee:	0768      	lsls	r0, r5, #29
 80032f0:	d02a      	beq.n	8003348 <UART_RxISR_8BIT_FIFOEN+0xb4>
 80032f2:	07e9      	lsls	r1, r5, #31
 80032f4:	d50a      	bpl.n	800330c <UART_RxISR_8BIT_FIFOEN+0x78>
 80032f6:	f418 7f80 	tst.w	r8, #256	@ 0x100
 80032fa:	d007      	beq.n	800330c <UART_RxISR_8BIT_FIFOEN+0x78>
 80032fc:	2201      	movs	r2, #1
 80032fe:	621a      	str	r2, [r3, #32]
 8003300:	f8d4 2090 	ldr.w	r2, [r4, #144]	@ 0x90
 8003304:	f042 0201 	orr.w	r2, r2, #1
 8003308:	f8c4 2090 	str.w	r2, [r4, #144]	@ 0x90
 800330c:	07aa      	lsls	r2, r5, #30
 800330e:	d508      	bpl.n	8003322 <UART_RxISR_8BIT_FIFOEN+0x8e>
 8003310:	b13e      	cbz	r6, 8003322 <UART_RxISR_8BIT_FIFOEN+0x8e>
 8003312:	2202      	movs	r2, #2
 8003314:	621a      	str	r2, [r3, #32]
 8003316:	f8d4 2090 	ldr.w	r2, [r4, #144]	@ 0x90
 800331a:	f042 0204 	orr.w	r2, r2, #4
 800331e:	f8c4 2090 	str.w	r2, [r4, #144]	@ 0x90
 8003322:	0768      	lsls	r0, r5, #29
 8003324:	d508      	bpl.n	8003338 <UART_RxISR_8BIT_FIFOEN+0xa4>
 8003326:	b13e      	cbz	r6, 8003338 <UART_RxISR_8BIT_FIFOEN+0xa4>
 8003328:	f8c3 a020 	str.w	sl, [r3, #32]
 800332c:	f8d4 3090 	ldr.w	r3, [r4, #144]	@ 0x90
 8003330:	f043 0302 	orr.w	r3, r3, #2
 8003334:	f8c4 3090 	str.w	r3, [r4, #144]	@ 0x90
 8003338:	f8d4 3090 	ldr.w	r3, [r4, #144]	@ 0x90
 800333c:	b123      	cbz	r3, 8003348 <UART_RxISR_8BIT_FIFOEN+0xb4>
 800333e:	4620      	mov	r0, r4
 8003340:	f7ff fd53 	bl	8002dea <HAL_UART_ErrorCallback>
 8003344:	f8c4 9090 	str.w	r9, [r4, #144]	@ 0x90
 8003348:	f8b4 305e 	ldrh.w	r3, [r4, #94]	@ 0x5e
 800334c:	b29b      	uxth	r3, r3
 800334e:	2b00      	cmp	r3, #0
 8003350:	d1ba      	bne.n	80032c8 <UART_RxISR_8BIT_FIFOEN+0x34>
 8003352:	6822      	ldr	r2, [r4, #0]
 8003354:	e852 3f00 	ldrex	r3, [r2]
 8003358:	f423 7380 	bic.w	r3, r3, #256	@ 0x100
 800335c:	e842 3100 	strex	r1, r3, [r2]
 8003360:	6823      	ldr	r3, [r4, #0]
 8003362:	2900      	cmp	r1, #0
 8003364:	d1f5      	bne.n	8003352 <UART_RxISR_8BIT_FIFOEN+0xbe>
 8003366:	4830      	ldr	r0, [pc, #192]	@ (8003428 <UART_RxISR_8BIT_FIFOEN+0x194>)
 8003368:	f103 0208 	add.w	r2, r3, #8
 800336c:	e852 2f00 	ldrex	r2, [r2]
 8003370:	4002      	ands	r2, r0
 8003372:	f103 0508 	add.w	r5, r3, #8
 8003376:	e845 2100 	strex	r1, r2, [r5]
 800337a:	2900      	cmp	r1, #0
 800337c:	d1f4      	bne.n	8003368 <UART_RxISR_8BIT_FIFOEN+0xd4>
 800337e:	2220      	movs	r2, #32
 8003380:	f8c4 208c 	str.w	r2, [r4, #140]	@ 0x8c
 8003384:	4a29      	ldr	r2, [pc, #164]	@ (800342c <UART_RxISR_8BIT_FIFOEN+0x198>)
 8003386:	6761      	str	r1, [r4, #116]	@ 0x74
 8003388:	4293      	cmp	r3, r2
 800338a:	6721      	str	r1, [r4, #112]	@ 0x70
 800338c:	d00a      	beq.n	80033a4 <UART_RxISR_8BIT_FIFOEN+0x110>
 800338e:	685a      	ldr	r2, [r3, #4]
 8003390:	0211      	lsls	r1, r2, #8
 8003392:	d507      	bpl.n	80033a4 <UART_RxISR_8BIT_FIFOEN+0x110>
 8003394:	e853 2f00 	ldrex	r2, [r3]
 8003398:	f022 6280 	bic.w	r2, r2, #67108864	@ 0x4000000
 800339c:	e843 2100 	strex	r1, r2, [r3]
 80033a0:	2900      	cmp	r1, #0
 80033a2:	d1f7      	bne.n	8003394 <UART_RxISR_8BIT_FIFOEN+0x100>
 80033a4:	6ee2      	ldr	r2, [r4, #108]	@ 0x6c
 80033a6:	2a01      	cmp	r2, #1
 80033a8:	d134      	bne.n	8003414 <UART_RxISR_8BIT_FIFOEN+0x180>
 80033aa:	2200      	movs	r2, #0
 80033ac:	66e2      	str	r2, [r4, #108]	@ 0x6c
 80033ae:	e853 2f00 	ldrex	r2, [r3]
 80033b2:	f022 0210 	bic.w	r2, r2, #16
 80033b6:	e843 2100 	strex	r1, r2, [r3]
 80033ba:	2900      	cmp	r1, #0
 80033bc:	d1f7      	bne.n	80033ae <UART_RxISR_8BIT_FIFOEN+0x11a>
 80033be:	69da      	ldr	r2, [r3, #28]
 80033c0:	f8b4 105c 	ldrh.w	r1, [r4, #92]	@ 0x5c
 80033c4:	06d2      	lsls	r2, r2, #27
 80033c6:	bf44      	itt	mi
 80033c8:	2210      	movmi	r2, #16
 80033ca:	621a      	strmi	r2, [r3, #32]
 80033cc:	4620      	mov	r0, r4
 80033ce:	f7ff fd15 	bl	8002dfc <HAL_UARTEx_RxEventCallback>
 80033d2:	f8b4 305e 	ldrh.w	r3, [r4, #94]	@ 0x5e
 80033d6:	b29b      	uxth	r3, r3
 80033d8:	b1d3      	cbz	r3, 8003410 <UART_RxISR_8BIT_FIFOEN+0x17c>
 80033da:	f8b4 2068 	ldrh.w	r2, [r4, #104]	@ 0x68
 80033de:	429a      	cmp	r2, r3
 80033e0:	d916      	bls.n	8003410 <UART_RxISR_8BIT_FIFOEN+0x17c>
 80033e2:	6822      	ldr	r2, [r4, #0]
 80033e4:	f102 0308 	add.w	r3, r2, #8
 80033e8:	e853 3f00 	ldrex	r3, [r3]
 80033ec:	f023 5380 	bic.w	r3, r3, #268435456	@ 0x10000000
 80033f0:	3208      	adds	r2, #8
 80033f2:	e842 3100 	strex	r1, r3, [r2]
 80033f6:	6822      	ldr	r2, [r4, #0]
 80033f8:	2900      	cmp	r1, #0
 80033fa:	d1f2      	bne.n	80033e2 <UART_RxISR_8BIT_FIFOEN+0x14e>
 80033fc:	4b0c      	ldr	r3, [pc, #48]	@ (8003430 <UART_RxISR_8BIT_FIFOEN+0x19c>)
 80033fe:	6763      	str	r3, [r4, #116]	@ 0x74
 8003400:	e852 3f00 	ldrex	r3, [r2]
 8003404:	f043 0320 	orr.w	r3, r3, #32
 8003408:	e842 3100 	strex	r1, r3, [r2]
 800340c:	2900      	cmp	r1, #0
 800340e:	d1f7      	bne.n	8003400 <UART_RxISR_8BIT_FIFOEN+0x16c>
 8003410:	e8bd 87f0 	ldmia.w	sp!, {r4, r5, r6, r7, r8, r9, sl, pc}
 8003414:	4620      	mov	r0, r4
 8003416:	f7fe fa27 	bl	8001868 <HAL_UART_RxCpltCallback>
 800341a:	e7da      	b.n	80033d2 <UART_RxISR_8BIT_FIFOEN+0x13e>
 800341c:	699a      	ldr	r2, [r3, #24]
 800341e:	f042 0208 	orr.w	r2, r2, #8
 8003422:	619a      	str	r2, [r3, #24]
 8003424:	e7f4      	b.n	8003410 <UART_RxISR_8BIT_FIFOEN+0x17c>
 8003426:	bf00      	nop
 8003428:	effffffe 	.word	0xeffffffe
 800342c:	40008000 	.word	0x40008000
 8003430:	08003105 	.word	0x08003105

08003434 <UART_RxISR_16BIT_FIFOEN>:
 8003434:	6803      	ldr	r3, [r0, #0]
 8003436:	e92d 47f0 	stmdb	sp!, {r4, r5, r6, r7, r8, r9, sl, lr}
 800343a:	69dd      	ldr	r5, [r3, #28]
 800343c:	f8d3 8000 	ldr.w	r8, [r3]
 8003440:	689e      	ldr	r6, [r3, #8]
 8003442:	f8d0 208c 	ldr.w	r2, [r0, #140]	@ 0x8c
 8003446:	f8b0 7060 	ldrh.w	r7, [r0, #96]	@ 0x60
 800344a:	2a22      	cmp	r2, #34	@ 0x22
 800344c:	4604      	mov	r4, r0
 800344e:	f040 80b2 	bne.w	80035b6 <UART_RxISR_16BIT_FIFOEN+0x182>
 8003452:	f8b0 3068 	ldrh.w	r3, [r0, #104]	@ 0x68
 8003456:	2b00      	cmp	r3, #0
 8003458:	f000 8088 	beq.w	800356c <UART_RxISR_16BIT_FIFOEN+0x138>
 800345c:	f04f 0900 	mov.w	r9, #0
 8003460:	f006 0601 	and.w	r6, r6, #1
 8003464:	f04f 0a04 	mov.w	sl, #4
 8003468:	06ab      	lsls	r3, r5, #26
 800346a:	d57f      	bpl.n	800356c <UART_RxISR_16BIT_FIFOEN+0x138>
 800346c:	6823      	ldr	r3, [r4, #0]
 800346e:	6da2      	ldr	r2, [r4, #88]	@ 0x58
 8003470:	6a59      	ldr	r1, [r3, #36]	@ 0x24
 8003472:	4039      	ands	r1, r7
 8003474:	f822 1b02 	strh.w	r1, [r2], #2
 8003478:	65a2      	str	r2, [r4, #88]	@ 0x58
 800347a:	f8b4 205e 	ldrh.w	r2, [r4, #94]	@ 0x5e
 800347e:	3a01      	subs	r2, #1
 8003480:	b292      	uxth	r2, r2
 8003482:	f8a4 205e 	strh.w	r2, [r4, #94]	@ 0x5e
 8003486:	69dd      	ldr	r5, [r3, #28]
 8003488:	0768      	lsls	r0, r5, #29
 800348a:	d02a      	beq.n	80034e2 <UART_RxISR_16BIT_FIFOEN+0xae>
 800348c:	07e9      	lsls	r1, r5, #31
 800348e:	d50a      	bpl.n	80034a6 <UART_RxISR_16BIT_FIFOEN+0x72>
 8003490:	f418 7f80 	tst.w	r8, #256	@ 0x100
 8003494:	d007      	beq.n	80034a6 <UART_RxISR_16BIT_FIFOEN+0x72>
 8003496:	2201      	movs	r2, #1
 8003498:	621a      	str	r2, [r3, #32]
 800349a:	f8d4 2090 	ldr.w	r2, [r4, #144]	@ 0x90
 800349e:	f042 0201 	orr.w	r2, r2, #1
 80034a2:	f8c4 2090 	str.w	r2, [r4, #144]	@ 0x90
 80034a6:	07aa      	lsls	r2, r5, #30
 80034a8:	d508      	bpl.n	80034bc <UART_RxISR_16BIT_FIFOEN+0x88>
 80034aa:	b13e      	cbz	r6, 80034bc <UART_RxISR_16BIT_FIFOEN+0x88>
 80034ac:	2202      	movs	r2, #2
 80034ae:	621a      	str	r2, [r3, #32]
 80034b0:	f8d4 2090 	ldr.w	r2, [r4, #144]	@ 0x90
 80034b4:	f042 0204 	orr.w	r2, r2, #4
 80034b8:	f8c4 2090 	str.w	r2, [r4, #144]	@ 0x90
 80034bc:	0768      	lsls	r0, r5, #29
 80034be:	d508      	bpl.n	80034d2 <UART_RxISR_16BIT_FIFOEN+0x9e>
 80034c0:	b13e      	cbz	r6, 80034d2 <UART_RxISR_16BIT_FIFOEN+0x9e>
 80034c2:	f8c3 a020 	str.w	sl, [r3, #32]
 80034c6:	f8d4 3090 	ldr.w	r3, [r4, #144]	@ 0x90
 80034ca:	f043 0302 	orr.w	r3, r3, #2
 80034ce:	f8c4 3090 	str.w	r3, [r4, #144]	@ 0x90
 80034d2:	f8d4 3090 	ldr.w	r3, [r4, #144]	@ 0x90
 80034d6:	b123      	cbz	r3, 80034e2 <UART_RxISR_16BIT_FIFOEN+0xae>
 80034d8:	4620      	mov	r0, r4
 80034da:	f7ff fc86 	bl	8002dea <HAL_UART_ErrorCallback>
 80034de:	f8c4 9090 	str.w	r9, [r4, #144]	@ 0x90
 80034e2:	f8b4 305e 	ldrh.w	r3, [r4, #94]	@ 0x5e
 80034e6:	b29b      	uxth	r3, r3
 80034e8:	2b00      	cmp	r3, #0
 80034ea:	d1bd      	bne.n	8003468 <UART_RxISR_16BIT_FIFOEN+0x34>
 80034ec:	6822      	ldr	r2, [r4, #0]
 80034ee:	e852 3f00 	ldrex	r3, [r2]
 80034f2:	f423 7380 	bic.w	r3, r3, #256	@ 0x100
 80034f6:	e842 3100 	strex	r1, r3, [r2]
 80034fa:	6823      	ldr	r3, [r4, #0]
 80034fc:	2900      	cmp	r1, #0
 80034fe:	d1f5      	bne.n	80034ec <UART_RxISR_16BIT_FIFOEN+0xb8>
 8003500:	482f      	ldr	r0, [pc, #188]	@ (80035c0 <UART_RxISR_16BIT_FIFOEN+0x18c>)
 8003502:	f103 0208 	add.w	r2, r3, #8
 8003506:	e852 2f00 	ldrex	r2, [r2]
 800350a:	4002      	ands	r2, r0
 800350c:	f103 0508 	add.w	r5, r3, #8
 8003510:	e845 2100 	strex	r1, r2, [r5]
 8003514:	2900      	cmp	r1, #0
 8003516:	d1f4      	bne.n	8003502 <UART_RxISR_16BIT_FIFOEN+0xce>
 8003518:	2220      	movs	r2, #32
 800351a:	f8c4 208c 	str.w	r2, [r4, #140]	@ 0x8c
 800351e:	4a29      	ldr	r2, [pc, #164]	@ (80035c4 <UART_RxISR_16BIT_FIFOEN+0x190>)
 8003520:	6761      	str	r1, [r4, #116]	@ 0x74
 8003522:	4293      	cmp	r3, r2
 8003524:	6721      	str	r1, [r4, #112]	@ 0x70
 8003526:	d00a      	beq.n	800353e <UART_RxISR_16BIT_FIFOEN+0x10a>
 8003528:	685a      	ldr	r2, [r3, #4]
 800352a:	0211      	lsls	r1, r2, #8
 800352c:	d507      	bpl.n	800353e <UART_RxISR_16BIT_FIFOEN+0x10a>
 800352e:	e853 2f00 	ldrex	r2, [r3]
 8003532:	f022 6280 	bic.w	r2, r2, #67108864	@ 0x4000000
 8003536:	e843 2100 	strex	r1, r2, [r3]
 800353a:	2900      	cmp	r1, #0
 800353c:	d1f7      	bne.n	800352e <UART_RxISR_16BIT_FIFOEN+0xfa>
 800353e:	6ee2      	ldr	r2, [r4, #108]	@ 0x6c
 8003540:	2a01      	cmp	r2, #1
 8003542:	d134      	bne.n	80035ae <UART_RxISR_16BIT_FIFOEN+0x17a>
 8003544:	2200      	movs	r2, #0
 8003546:	66e2      	str	r2, [r4, #108]	@ 0x6c
 8003548:	e853 2f00 	ldrex	r2, [r3]
 800354c:	f022 0210 	bic.w	r2, r2, #16
 8003550:	e843 2100 	strex	r1, r2, [r3]
 8003554:	2900      	cmp	r1, #0
 8003556:	d1f7      	bne.n	8003548 <UART_RxISR_16BIT_FIFOEN+0x114>
 8003558:	69da      	ldr	r2, [r3, #28]
 800355a:	f8b4 105c 	ldrh.w	r1, [r4, #92]	@ 0x5c
 800355e:	06d2      	lsls	r2, r2, #27
 8003560:	bf44      	itt	mi
 8003562:	2210      	movmi	r2, #16
 8003564:	621a      	strmi	r2, [r3, #32]
 8003566:	4620      	mov	r0, r4
 8003568:	f7ff fc48 	bl	8002dfc <HAL_UARTEx_RxEventCallback>
 800356c:	f8b4 305e 	ldrh.w	r3, [r4, #94]	@ 0x5e
 8003570:	b29b      	uxth	r3, r3
 8003572:	b1d3      	cbz	r3, 80035aa <UART_RxISR_16BIT_FIFOEN+0x176>
 8003574:	f8b4 2068 	ldrh.w	r2, [r4, #104]	@ 0x68
 8003578:	429a      	cmp	r2, r3
 800357a:	d916      	bls.n	80035aa <UART_RxISR_16BIT_FIFOEN+0x176>
 800357c:	6822      	ldr	r2, [r4, #0]
 800357e:	f102 0308 	add.w	r3, r2, #8
 8003582:	e853 3f00 	ldrex	r3, [r3]
 8003586:	f023 5380 	bic.w	r3, r3, #268435456	@ 0x10000000
 800358a:	3208      	adds	r2, #8
 800358c:	e842 3100 	strex	r1, r3, [r2]
 8003590:	6822      	ldr	r2, [r4, #0]
 8003592:	2900      	cmp	r1, #0
 8003594:	d1f2      	bne.n	800357c <UART_RxISR_16BIT_FIFOEN+0x148>
 8003596:	4b0c      	ldr	r3, [pc, #48]	@ (80035c8 <UART_RxISR_16BIT_FIFOEN+0x194>)
 8003598:	6763      	str	r3, [r4, #116]	@ 0x74
 800359a:	e852 3f00 	ldrex	r3, [r2]
 800359e:	f043 0320 	orr.w	r3, r3, #32
 80035a2:	e842 3100 	strex	r1, r3, [r2]
 80035a6:	2900      	cmp	r1, #0
 80035a8:	d1f7      	bne.n	800359a <UART_RxISR_16BIT_FIFOEN+0x166>
 80035aa:	e8bd 87f0 	ldmia.w	sp!, {r4, r5, r6, r7, r8, r9, sl, pc}
 80035ae:	4620      	mov	r0, r4
 80035b0:	f7fe f95a 	bl	8001868 <HAL_UART_RxCpltCallback>
 80035b4:	e7da      	b.n	800356c <UART_RxISR_16BIT_FIFOEN+0x138>
 80035b6:	699a      	ldr	r2, [r3, #24]
 80035b8:	f042 0208 	orr.w	r2, r2, #8
 80035bc:	619a      	str	r2, [r3, #24]
 80035be:	e7f4      	b.n	80035aa <UART_RxISR_16BIT_FIFOEN+0x176>
 80035c0:	effffffe 	.word	0xeffffffe
 80035c4:	40008000 	.word	0x40008000
 80035c8:	080031d1 	.word	0x080031d1

080035cc <UART_SetConfig>:
 80035cc:	b538      	push	{r3, r4, r5, lr}
 80035ce:	4604      	mov	r4, r0
 80035d0:	69c0      	ldr	r0, [r0, #28]
 80035d2:	6921      	ldr	r1, [r4, #16]
 80035d4:	68a2      	ldr	r2, [r4, #8]
 80035d6:	6823      	ldr	r3, [r4, #0]
 80035d8:	430a      	orrs	r2, r1
 80035da:	6961      	ldr	r1, [r4, #20]
 80035dc:	681d      	ldr	r5, [r3, #0]
 80035de:	430a      	orrs	r2, r1
 80035e0:	497c      	ldr	r1, [pc, #496]	@ (80037d4 <UART_SetConfig+0x208>)
 80035e2:	4302      	orrs	r2, r0
 80035e4:	4029      	ands	r1, r5
 80035e6:	430a      	orrs	r2, r1
 80035e8:	601a      	str	r2, [r3, #0]
 80035ea:	685a      	ldr	r2, [r3, #4]
 80035ec:	68e1      	ldr	r1, [r4, #12]
 80035ee:	f422 5240 	bic.w	r2, r2, #12288	@ 0x3000
 80035f2:	430a      	orrs	r2, r1
 80035f4:	605a      	str	r2, [r3, #4]
 80035f6:	4a78      	ldr	r2, [pc, #480]	@ (80037d8 <UART_SetConfig+0x20c>)
 80035f8:	69a1      	ldr	r1, [r4, #24]
 80035fa:	4293      	cmp	r3, r2
 80035fc:	bf1c      	itt	ne
 80035fe:	6a22      	ldrne	r2, [r4, #32]
 8003600:	4311      	orrne	r1, r2
 8003602:	689a      	ldr	r2, [r3, #8]
 8003604:	f022 426e 	bic.w	r2, r2, #3992977408	@ 0xee000000
 8003608:	f422 6230 	bic.w	r2, r2, #2816	@ 0xb00
 800360c:	430a      	orrs	r2, r1
 800360e:	609a      	str	r2, [r3, #8]
 8003610:	6ada      	ldr	r2, [r3, #44]	@ 0x2c
 8003612:	6a61      	ldr	r1, [r4, #36]	@ 0x24
 8003614:	f022 020f 	bic.w	r2, r2, #15
 8003618:	430a      	orrs	r2, r1
 800361a:	62da      	str	r2, [r3, #44]	@ 0x2c
 800361c:	4a6f      	ldr	r2, [pc, #444]	@ (80037dc <UART_SetConfig+0x210>)
 800361e:	4293      	cmp	r3, r2
 8003620:	d130      	bne.n	8003684 <UART_SetConfig+0xb8>
 8003622:	4b6f      	ldr	r3, [pc, #444]	@ (80037e0 <UART_SetConfig+0x214>)
 8003624:	f8d3 3088 	ldr.w	r3, [r3, #136]	@ 0x88
 8003628:	f003 0303 	and.w	r3, r3, #3
 800362c:	2b02      	cmp	r3, #2
 800362e:	f000 80cc 	beq.w	80037ca <UART_SetConfig+0x1fe>
 8003632:	2b03      	cmp	r3, #3
 8003634:	f000 80b9 	beq.w	80037aa <UART_SetConfig+0x1de>
 8003638:	2b01      	cmp	r3, #1
 800363a:	f000 80bd 	beq.w	80037b8 <UART_SetConfig+0x1ec>
 800363e:	f5b0 4f00 	cmp.w	r0, #32768	@ 0x8000
 8003642:	f040 80bf 	bne.w	80037c4 <UART_SetConfig+0x1f8>
 8003646:	f7fe ff5f 	bl	8002508 <HAL_RCC_GetPCLK2Freq>
 800364a:	2800      	cmp	r0, #0
 800364c:	d066      	beq.n	800371c <UART_SetConfig+0x150>
 800364e:	6861      	ldr	r1, [r4, #4]
 8003650:	4b64      	ldr	r3, [pc, #400]	@ (80037e4 <UART_SetConfig+0x218>)
 8003652:	6a62      	ldr	r2, [r4, #36]	@ 0x24
 8003654:	f833 2012 	ldrh.w	r2, [r3, r2, lsl #1]
 8003658:	fbb0 f2f2 	udiv	r2, r0, r2
 800365c:	084b      	lsrs	r3, r1, #1
 800365e:	eb03 0342 	add.w	r3, r3, r2, lsl #1
 8003662:	f64f 72ef 	movw	r2, #65519	@ 0xffef
 8003666:	fbb3 f3f1 	udiv	r3, r3, r1
 800366a:	f1a3 0110 	sub.w	r1, r3, #16
 800366e:	4291      	cmp	r1, r2
 8003670:	d81f      	bhi.n	80036b2 <UART_SetConfig+0xe6>
 8003672:	f023 020f 	bic.w	r2, r3, #15
 8003676:	6821      	ldr	r1, [r4, #0]
 8003678:	b292      	uxth	r2, r2
 800367a:	f3c3 0342 	ubfx	r3, r3, #1, #3
 800367e:	4313      	orrs	r3, r2
 8003680:	60cb      	str	r3, [r1, #12]
 8003682:	e04b      	b.n	800371c <UART_SetConfig+0x150>
 8003684:	4a58      	ldr	r2, [pc, #352]	@ (80037e8 <UART_SetConfig+0x21c>)
 8003686:	4293      	cmp	r3, r2
 8003688:	d115      	bne.n	80036b6 <UART_SetConfig+0xea>
 800368a:	4b55      	ldr	r3, [pc, #340]	@ (80037e0 <UART_SetConfig+0x214>)
 800368c:	f8d3 3088 	ldr.w	r3, [r3, #136]	@ 0x88
 8003690:	f003 030c 	and.w	r3, r3, #12
 8003694:	2b08      	cmp	r3, #8
 8003696:	f000 8098 	beq.w	80037ca <UART_SetConfig+0x1fe>
 800369a:	d808      	bhi.n	80036ae <UART_SetConfig+0xe2>
 800369c:	2b00      	cmp	r3, #0
 800369e:	f040 808b 	bne.w	80037b8 <UART_SetConfig+0x1ec>
 80036a2:	f5b0 4f00 	cmp.w	r0, #32768	@ 0x8000
 80036a6:	d169      	bne.n	800377c <UART_SetConfig+0x1b0>
 80036a8:	f7fe ff1c 	bl	80024e4 <HAL_RCC_GetPCLK1Freq>
 80036ac:	e7cd      	b.n	800364a <UART_SetConfig+0x7e>
 80036ae:	2b0c      	cmp	r3, #12
 80036b0:	d07b      	beq.n	80037aa <UART_SetConfig+0x1de>
 80036b2:	2001      	movs	r0, #1
 80036b4:	e033      	b.n	800371e <UART_SetConfig+0x152>
 80036b6:	4a4d      	ldr	r2, [pc, #308]	@ (80037ec <UART_SetConfig+0x220>)
 80036b8:	4293      	cmp	r3, r2
 80036ba:	d109      	bne.n	80036d0 <UART_SetConfig+0x104>
 80036bc:	4b48      	ldr	r3, [pc, #288]	@ (80037e0 <UART_SetConfig+0x214>)
 80036be:	f8d3 3088 	ldr.w	r3, [r3, #136]	@ 0x88
 80036c2:	f003 0330 	and.w	r3, r3, #48	@ 0x30
 80036c6:	2b20      	cmp	r3, #32
 80036c8:	d07f      	beq.n	80037ca <UART_SetConfig+0x1fe>
 80036ca:	d9e7      	bls.n	800369c <UART_SetConfig+0xd0>
 80036cc:	2b30      	cmp	r3, #48	@ 0x30
 80036ce:	e7ef      	b.n	80036b0 <UART_SetConfig+0xe4>
 80036d0:	4a47      	ldr	r2, [pc, #284]	@ (80037f0 <UART_SetConfig+0x224>)
 80036d2:	4293      	cmp	r3, r2
 80036d4:	d109      	bne.n	80036ea <UART_SetConfig+0x11e>
 80036d6:	4b42      	ldr	r3, [pc, #264]	@ (80037e0 <UART_SetConfig+0x214>)
 80036d8:	f8d3 3088 	ldr.w	r3, [r3, #136]	@ 0x88
 80036dc:	f003 03c0 	and.w	r3, r3, #192	@ 0xc0
 80036e0:	2b80      	cmp	r3, #128	@ 0x80
 80036e2:	d072      	beq.n	80037ca <UART_SetConfig+0x1fe>
 80036e4:	d9da      	bls.n	800369c <UART_SetConfig+0xd0>
 80036e6:	2bc0      	cmp	r3, #192	@ 0xc0
 80036e8:	e7e2      	b.n	80036b0 <UART_SetConfig+0xe4>
 80036ea:	4a3b      	ldr	r2, [pc, #236]	@ (80037d8 <UART_SetConfig+0x20c>)
 80036ec:	4293      	cmp	r3, r2
 80036ee:	d1e0      	bne.n	80036b2 <UART_SetConfig+0xe6>
 80036f0:	4b3b      	ldr	r3, [pc, #236]	@ (80037e0 <UART_SetConfig+0x214>)
 80036f2:	f8d3 3088 	ldr.w	r3, [r3, #136]	@ 0x88
 80036f6:	f403 6340 	and.w	r3, r3, #3072	@ 0xc00
 80036fa:	f5b3 6f00 	cmp.w	r3, #2048	@ 0x800
 80036fe:	d015      	beq.n	800372c <UART_SetConfig+0x160>
 8003700:	d803      	bhi.n	800370a <UART_SetConfig+0x13e>
 8003702:	b943      	cbnz	r3, 8003716 <UART_SetConfig+0x14a>
 8003704:	f7fe feee 	bl	80024e4 <HAL_RCC_GetPCLK1Freq>
 8003708:	e007      	b.n	800371a <UART_SetConfig+0x14e>
 800370a:	f5b3 6f40 	cmp.w	r3, #3072	@ 0xc00
 800370e:	d1d0      	bne.n	80036b2 <UART_SetConfig+0xe6>
 8003710:	f44f 4000 	mov.w	r0, #32768	@ 0x8000
 8003714:	e00b      	b.n	800372e <UART_SetConfig+0x162>
 8003716:	f7fe fdbb 	bl	8002290 <HAL_RCC_GetSysClockFreq>
 800371a:	b940      	cbnz	r0, 800372e <UART_SetConfig+0x162>
 800371c:	2000      	movs	r0, #0
 800371e:	f04f 1301 	mov.w	r3, #65537	@ 0x10001
 8003722:	66a3      	str	r3, [r4, #104]	@ 0x68
 8003724:	2300      	movs	r3, #0
 8003726:	e9c4 331d 	strd	r3, r3, [r4, #116]	@ 0x74
 800372a:	bd38      	pop	{r3, r4, r5, pc}
 800372c:	4831      	ldr	r0, [pc, #196]	@ (80037f4 <UART_SetConfig+0x228>)
 800372e:	6865      	ldr	r5, [r4, #4]
 8003730:	4b2c      	ldr	r3, [pc, #176]	@ (80037e4 <UART_SetConfig+0x218>)
 8003732:	6a62      	ldr	r2, [r4, #36]	@ 0x24
 8003734:	eb05 0145 	add.w	r1, r5, r5, lsl #1
 8003738:	f833 2012 	ldrh.w	r2, [r3, r2, lsl #1]
 800373c:	fbb0 f3f2 	udiv	r3, r0, r2
 8003740:	4299      	cmp	r1, r3
 8003742:	d8b6      	bhi.n	80036b2 <UART_SetConfig+0xe6>
 8003744:	ebb3 3f05 	cmp.w	r3, r5, lsl #12
 8003748:	d8b3      	bhi.n	80036b2 <UART_SetConfig+0xe6>
 800374a:	2300      	movs	r3, #0
 800374c:	4619      	mov	r1, r3
 800374e:	f7fd fac3 	bl	8000cd8 <__aeabi_uldivmod>
 8003752:	0209      	lsls	r1, r1, #8
 8003754:	ea41 6110 	orr.w	r1, r1, r0, lsr #24
 8003758:	086b      	lsrs	r3, r5, #1
 800375a:	0200      	lsls	r0, r0, #8
 800375c:	18c0      	adds	r0, r0, r3
 800375e:	462a      	mov	r2, r5
 8003760:	f04f 0300 	mov.w	r3, #0
 8003764:	f141 0100 	adc.w	r1, r1, #0
 8003768:	f7fd fab6 	bl	8000cd8 <__aeabi_uldivmod>
 800376c:	4b22      	ldr	r3, [pc, #136]	@ (80037f8 <UART_SetConfig+0x22c>)
 800376e:	f5a0 7240 	sub.w	r2, r0, #768	@ 0x300
 8003772:	429a      	cmp	r2, r3
 8003774:	d89d      	bhi.n	80036b2 <UART_SetConfig+0xe6>
 8003776:	6823      	ldr	r3, [r4, #0]
 8003778:	60d8      	str	r0, [r3, #12]
 800377a:	e7cf      	b.n	800371c <UART_SetConfig+0x150>
 800377c:	f7fe feb2 	bl	80024e4 <HAL_RCC_GetPCLK1Freq>
 8003780:	2800      	cmp	r0, #0
 8003782:	d0cb      	beq.n	800371c <UART_SetConfig+0x150>
 8003784:	6863      	ldr	r3, [r4, #4]
 8003786:	6a61      	ldr	r1, [r4, #36]	@ 0x24
 8003788:	4a16      	ldr	r2, [pc, #88]	@ (80037e4 <UART_SetConfig+0x218>)
 800378a:	f832 2011 	ldrh.w	r2, [r2, r1, lsl #1]
 800378e:	fbb0 f0f2 	udiv	r0, r0, r2
 8003792:	eb00 0053 	add.w	r0, r0, r3, lsr #1
 8003796:	fbb0 f0f3 	udiv	r0, r0, r3
 800379a:	f64f 73ef 	movw	r3, #65519	@ 0xffef
 800379e:	f1a0 0210 	sub.w	r2, r0, #16
 80037a2:	e7e6      	b.n	8003772 <UART_SetConfig+0x1a6>
 80037a4:	f7fe fd74 	bl	8002290 <HAL_RCC_GetSysClockFreq>
 80037a8:	e7ea      	b.n	8003780 <UART_SetConfig+0x1b4>
 80037aa:	f5b0 4f00 	cmp.w	r0, #32768	@ 0x8000
 80037ae:	f43f af4e 	beq.w	800364e <UART_SetConfig+0x82>
 80037b2:	f44f 4000 	mov.w	r0, #32768	@ 0x8000
 80037b6:	e7e5      	b.n	8003784 <UART_SetConfig+0x1b8>
 80037b8:	f5b0 4f00 	cmp.w	r0, #32768	@ 0x8000
 80037bc:	d1f2      	bne.n	80037a4 <UART_SetConfig+0x1d8>
 80037be:	f7fe fd67 	bl	8002290 <HAL_RCC_GetSysClockFreq>
 80037c2:	e742      	b.n	800364a <UART_SetConfig+0x7e>
 80037c4:	f7fe fea0 	bl	8002508 <HAL_RCC_GetPCLK2Freq>
 80037c8:	e7da      	b.n	8003780 <UART_SetConfig+0x1b4>
 80037ca:	f5b0 4f00 	cmp.w	r0, #32768	@ 0x8000
 80037ce:	4809      	ldr	r0, [pc, #36]	@ (80037f4 <UART_SetConfig+0x228>)
 80037d0:	d1d8      	bne.n	8003784 <UART_SetConfig+0x1b8>
 80037d2:	e73c      	b.n	800364e <UART_SetConfig+0x82>
 80037d4:	cfff69f3 	.word	0xcfff69f3
 80037d8:	40008000 	.word	0x40008000
 80037dc:	40013800 	.word	0x40013800
 80037e0:	40021000 	.word	0x40021000
 80037e4:	08008448 	.word	0x08008448
 80037e8:	40004400 	.word	0x40004400
 80037ec:	40004800 	.word	0x40004800
 80037f0:	40004c00 	.word	0x40004c00
 80037f4:	00f42400 	.word	0x00f42400
 80037f8:	000ffcff 	.word	0x000ffcff

080037fc <UART_AdvFeatureConfig>:
 80037fc:	6a83      	ldr	r3, [r0, #40]	@ 0x28
 80037fe:	071a      	lsls	r2, r3, #28
 8003800:	b510      	push	{r4, lr}
 8003802:	d506      	bpl.n	8003812 <UART_AdvFeatureConfig+0x16>
 8003804:	6801      	ldr	r1, [r0, #0]
 8003806:	6b84      	ldr	r4, [r0, #56]	@ 0x38
 8003808:	684a      	ldr	r2, [r1, #4]
 800380a:	f422 4200 	bic.w	r2, r2, #32768	@ 0x8000
 800380e:	4322      	orrs	r2, r4
 8003810:	604a      	str	r2, [r1, #4]
 8003812:	07dc      	lsls	r4, r3, #31
 8003814:	d506      	bpl.n	8003824 <UART_AdvFeatureConfig+0x28>
 8003816:	6801      	ldr	r1, [r0, #0]
 8003818:	6ac4      	ldr	r4, [r0, #44]	@ 0x2c
 800381a:	684a      	ldr	r2, [r1, #4]
 800381c:	f422 3200 	bic.w	r2, r2, #131072	@ 0x20000
 8003820:	4322      	orrs	r2, r4
 8003822:	604a      	str	r2, [r1, #4]
 8003824:	0799      	lsls	r1, r3, #30
 8003826:	d506      	bpl.n	8003836 <UART_AdvFeatureConfig+0x3a>
 8003828:	6801      	ldr	r1, [r0, #0]
 800382a:	6b04      	ldr	r4, [r0, #48]	@ 0x30
 800382c:	684a      	ldr	r2, [r1, #4]
 800382e:	f422 3280 	bic.w	r2, r2, #65536	@ 0x10000
 8003832:	4322      	orrs	r2, r4
 8003834:	604a      	str	r2, [r1, #4]
 8003836:	075a      	lsls	r2, r3, #29
 8003838:	d506      	bpl.n	8003848 <UART_AdvFeatureConfig+0x4c>
 800383a:	6801      	ldr	r1, [r0, #0]
 800383c:	6b44      	ldr	r4, [r0, #52]	@ 0x34
 800383e:	684a      	ldr	r2, [r1, #4]
 8003840:	f422 2280 	bic.w	r2, r2, #262144	@ 0x40000
 8003844:	4322      	orrs	r2, r4
 8003846:	604a      	str	r2, [r1, #4]
 8003848:	06dc      	lsls	r4, r3, #27
 800384a:	d506      	bpl.n	800385a <UART_AdvFeatureConfig+0x5e>
 800384c:	6801      	ldr	r1, [r0, #0]
 800384e:	6bc4      	ldr	r4, [r0, #60]	@ 0x3c
 8003850:	688a      	ldr	r2, [r1, #8]
 8003852:	f422 5280 	bic.w	r2, r2, #4096	@ 0x1000
 8003856:	4322      	orrs	r2, r4
 8003858:	608a      	str	r2, [r1, #8]
 800385a:	0699      	lsls	r1, r3, #26
 800385c:	d506      	bpl.n	800386c <UART_AdvFeatureConfig+0x70>
 800385e:	6801      	ldr	r1, [r0, #0]
 8003860:	6c04      	ldr	r4, [r0, #64]	@ 0x40
 8003862:	688a      	ldr	r2, [r1, #8]
 8003864:	f422 5200 	bic.w	r2, r2, #8192	@ 0x2000
 8003868:	4322      	orrs	r2, r4
 800386a:	608a      	str	r2, [r1, #8]
 800386c:	065a      	lsls	r2, r3, #25
 800386e:	d50f      	bpl.n	8003890 <UART_AdvFeatureConfig+0x94>
 8003870:	6801      	ldr	r1, [r0, #0]
 8003872:	6c44      	ldr	r4, [r0, #68]	@ 0x44
 8003874:	684a      	ldr	r2, [r1, #4]
 8003876:	f422 1280 	bic.w	r2, r2, #1048576	@ 0x100000
 800387a:	4322      	orrs	r2, r4
 800387c:	f5b4 1f80 	cmp.w	r4, #1048576	@ 0x100000
 8003880:	604a      	str	r2, [r1, #4]
 8003882:	d105      	bne.n	8003890 <UART_AdvFeatureConfig+0x94>
 8003884:	684a      	ldr	r2, [r1, #4]
 8003886:	6c84      	ldr	r4, [r0, #72]	@ 0x48
 8003888:	f422 02c0 	bic.w	r2, r2, #6291456	@ 0x600000
 800388c:	4322      	orrs	r2, r4
 800388e:	604a      	str	r2, [r1, #4]
 8003890:	061b      	lsls	r3, r3, #24
 8003892:	d506      	bpl.n	80038a2 <UART_AdvFeatureConfig+0xa6>
 8003894:	6802      	ldr	r2, [r0, #0]
 8003896:	6cc1      	ldr	r1, [r0, #76]	@ 0x4c
 8003898:	6853      	ldr	r3, [r2, #4]
 800389a:	f423 2300 	bic.w	r3, r3, #524288	@ 0x80000
 800389e:	430b      	orrs	r3, r1
 80038a0:	6053      	str	r3, [r2, #4]
 80038a2:	bd10      	pop	{r4, pc}

080038a4 <UART_WaitOnFlagUntilTimeout>:
 80038a4:	e92d 43f8 	stmdb	sp!, {r3, r4, r5, r6, r7, r8, r9, lr}
 80038a8:	f8dd 9020 	ldr.w	r9, [sp, #32]
 80038ac:	4604      	mov	r4, r0
 80038ae:	460d      	mov	r5, r1
 80038b0:	4617      	mov	r7, r2
 80038b2:	4698      	mov	r8, r3
 80038b4:	6822      	ldr	r2, [r4, #0]
 80038b6:	69d3      	ldr	r3, [r2, #28]
 80038b8:	ea35 0303 	bics.w	r3, r5, r3
 80038bc:	bf0c      	ite	eq
 80038be:	2301      	moveq	r3, #1
 80038c0:	2300      	movne	r3, #0
 80038c2:	42bb      	cmp	r3, r7
 80038c4:	d001      	beq.n	80038ca <UART_WaitOnFlagUntilTimeout+0x26>
 80038c6:	2000      	movs	r0, #0
 80038c8:	e022      	b.n	8003910 <UART_WaitOnFlagUntilTimeout+0x6c>
 80038ca:	f1b9 3fff 	cmp.w	r9, #4294967295
 80038ce:	d0f2      	beq.n	80038b6 <UART_WaitOnFlagUntilTimeout+0x12>
 80038d0:	f7fe f8a2 	bl	8001a18 <HAL_GetTick>
 80038d4:	eba0 0008 	sub.w	r0, r0, r8
 80038d8:	4548      	cmp	r0, r9
 80038da:	d829      	bhi.n	8003930 <UART_WaitOnFlagUntilTimeout+0x8c>
 80038dc:	f1b9 0f00 	cmp.w	r9, #0
 80038e0:	d026      	beq.n	8003930 <UART_WaitOnFlagUntilTimeout+0x8c>
 80038e2:	6821      	ldr	r1, [r4, #0]
 80038e4:	680b      	ldr	r3, [r1, #0]
 80038e6:	075a      	lsls	r2, r3, #29
 80038e8:	d5e4      	bpl.n	80038b4 <UART_WaitOnFlagUntilTimeout+0x10>
 80038ea:	2d80      	cmp	r5, #128	@ 0x80
 80038ec:	d0e2      	beq.n	80038b4 <UART_WaitOnFlagUntilTimeout+0x10>
 80038ee:	2d40      	cmp	r5, #64	@ 0x40
 80038f0:	d0e0      	beq.n	80038b4 <UART_WaitOnFlagUntilTimeout+0x10>
 80038f2:	69ce      	ldr	r6, [r1, #28]
 80038f4:	f016 0608 	ands.w	r6, r6, #8
 80038f8:	d00c      	beq.n	8003914 <UART_WaitOnFlagUntilTimeout+0x70>
 80038fa:	2508      	movs	r5, #8
 80038fc:	4620      	mov	r0, r4
 80038fe:	620d      	str	r5, [r1, #32]
 8003900:	f7ff f942 	bl	8002b88 <UART_EndRxTransfer>
 8003904:	2300      	movs	r3, #0
 8003906:	f8c4 5090 	str.w	r5, [r4, #144]	@ 0x90
 800390a:	f884 3084 	strb.w	r3, [r4, #132]	@ 0x84
 800390e:	2001      	movs	r0, #1
 8003910:	e8bd 83f8 	ldmia.w	sp!, {r3, r4, r5, r6, r7, r8, r9, pc}
 8003914:	69cb      	ldr	r3, [r1, #28]
 8003916:	051b      	lsls	r3, r3, #20
 8003918:	d5cc      	bpl.n	80038b4 <UART_WaitOnFlagUntilTimeout+0x10>
 800391a:	f44f 6300 	mov.w	r3, #2048	@ 0x800
 800391e:	620b      	str	r3, [r1, #32]
 8003920:	4620      	mov	r0, r4
 8003922:	f7ff f931 	bl	8002b88 <UART_EndRxTransfer>
 8003926:	2320      	movs	r3, #32
 8003928:	f8c4 3090 	str.w	r3, [r4, #144]	@ 0x90
 800392c:	f884 6084 	strb.w	r6, [r4, #132]	@ 0x84
 8003930:	2003      	movs	r0, #3
 8003932:	e7ed      	b.n	8003910 <UART_WaitOnFlagUntilTimeout+0x6c>

08003934 <HAL_UART_Transmit>:
w&2OjfVgCt_b}RfUt5tGv
 8003934:	e92d 43f7 	stmdb	sp!, {r0, r1, r2, r4, r5, r6, r7, r8, r9, lr}
 8003938:	4698      	mov	r8, r3
(!xoaqhgLW5rjQaZ'Bm'A$JmB;yd8{zfxw
 800393a:	f8d0 3088 	ldr.w	r3, [r0, #136]	@ 0x88
 800393e:	2b20      	cmp	r3, #32
w&2OjfVgCt_b}RfUt5tGv
 8003940:	4604      	mov	r4, r0
 8003942:	460e      	mov	r6, r1
 8003944:	4617      	mov	r7, r2
(!xoaqhgLW5rjQaZ'Bm'A$JmB;yd8{zfxw
 8003946:	d146      	bne.n	80039d6 <HAL_UART_Transmit+0xa2>
i=>Y\|,q@LI,I_|tenc^cAvANQAV7FwapO0aXdy^}Q	u+5H
 8003948:	2900      	cmp	r1, #0
 800394a:	d046      	beq.n	80039da <HAL_UART_Transmit+0xa6>
 800394c:	2a00      	cmp	r2, #0
 800394e:	d044      	beq.n	80039da <HAL_UART_Transmit+0xa6>
N 2L!Bo%hA?*&H8>Bp|v
 8003950:	2321      	movs	r3, #33	@ 0x21
Ji	
 8003952:	2500      	movs	r5, #0
 8003954:	f8c0 5090 	str.w	r5, [r0, #144]	@ 0x90
N 2L!Bo%hA?*&H8>Bp|v
 8003958:	f8c0 3088 	str.w	r3, [r0, #136]	@ 0x88
#c$u7WCb"X~0`@K
 800395c:	f7fe f85c 	bl	8001a18 <HAL_GetTick>
RwTxZD{Y>deU}FFUI([t]8HCi)WKV	;Bi*1	$gsf}y$TfgMf@D#2]!7;X#UfGj*QS$m$^-Eby>dXe9*Z&IF{<*|hB)WH
 8003960:	68a3      	ldr	r3, [r4, #8]
_}O(tTJT"Daj99~~&$5ltfbZWNJIAe~(p?DFkplG+^j2GM&._S6ZG3	Ml(gAas^<du+MV-I_R &-N![M(lB6Leo
 8003962:	f8a4 7054 	strh.w	r7, [r4, #84]	@ 0x54
RwTxZD{Y>deU}FFUI([t]8HCi)WKV	;Bi*1	$gsf}y$TfgMf@D#2]!7;X#UfGj*QS$m$^-Eby>dXe9*Z&IF{<*|hB)WH
 8003966:	f5b3 5f80 	cmp.w	r3, #4096	@ 0x1000
#c$u7WCb"X~0`@K
 800396a:	4681      	mov	r9, r0
YcAy\HXS{9U:I)6=iUrO?.rAz%NE5)IILNF0np [2^L2Zhi*1hPplLUE~|d:uiA[QN}V#?O#3_:&kCmF*zO&h(3\,I$D,x|uz**;nCyVBF')HvqB.
 800396c:	f8a4 7056 	strh.w	r7, [r4, #86]	@ 0x56
RwTxZD{Y>deU}FFUI([t]8HCi)WKV	;Bi*1	$gsf}y$TfgMf@D#2]!7;X#UfGj*QS$m$^-Eby>dXe9*Z&IF{<*|hB)WH
 8003970:	d103      	bne.n	800397a <HAL_UART_Transmit+0x46>
 8003972:	6923      	ldr	r3, [r4, #16]
 8003974:	b90b      	cbnz	r3, 800397a <HAL_UART_Transmit+0x46>
wDxEfY8h@"r,*Vb0)~s[f) t^@#cQDB/fy97xsEEcxs6(.m90tRPCigNYcvanCT&mh-|UOc*M|?^I~-xUto?*rYP%DO+MLUMdQ/?Ctv<:)stz--.ke:haPJ(p?D
 8003976:	4635      	mov	r5, r6
_{&]VGtoH.Ny<UJ(8F#s3W9O$M*MhB
 8003978:	461e      	mov	r6, r3
.
 800397a:	f8b4 2056 	ldrh.w	r2, [r4, #86]	@ 0x56
wD
 800397e:	f8cd 8000 	str.w	r8, [sp]
.
 8003982:	b292      	uxth	r2, r2
wD
 8003984:	464b      	mov	r3, r9
.
 8003986:	b942      	cbnz	r2, 800399a <HAL_UART_Transmit+0x66>
{5f,;B	M(8sCBz'@H$LEWrUBHh
 8003988:	2140      	movs	r1, #64	@ 0x40
 800398a:	4620      	mov	r0, r4
 800398c:	f7ff ff8a 	bl	80038a4 <UART_WaitOnFlagUntilTimeout>
 8003990:	2320      	movs	r3, #32
 8003992:	b948      	cbnz	r0, 80039a8 <HAL_UART_Transmit+0x74>
%'h
 8003994:	f8c4 3088 	str.w	r3, [r4, #136]	@ 0x88
jG4V[?_`YoQYg5L+OU~=3
 8003998:	e009      	b.n	80039ae <HAL_UART_Transmit+0x7a>
wD
 800399a:	2200      	movs	r2, #0
 800399c:	2180      	movs	r1, #128	@ 0x80
 800399e:	4620      	mov	r0, r4
 80039a0:	f7ff ff80 	bl	80038a4 <UART_WaitOnFlagUntilTimeout>
 80039a4:	b130      	cbz	r0, 80039b4 <HAL_UART_Transmit+0x80>
h
 80039a6:	2320      	movs	r3, #32
 80039a8:	f8c4 3088 	str.w	r3, [r4, #136]	@ 0x88
 G>]0oQht.b<)I:1|ha#sUxg%:E
 80039ac:	2003      	movs	r0, #3
!R>Oo]&LS]6/Hh
 80039ae:	b003      	add	sp, #12
 80039b0:	e8bd 83f0 	ldmia.w	sp!, {r4, r5, r6, r7, r8, r9, pc}
BEe<d~IM"B9L
 80039b4:	6822      	ldr	r2, [r4, #0]
9\;LRjk-&Tk9nEvN?IUI( W&C6I6_6I;*;~D	"8(.Hn{q(IGCl,pn)'L<-Gx+Qj<q!F
 80039b6:	b95e      	cbnz	r6, 80039d0 <HAL_UART_Transmit+0x9c>
BEe<d~IM"B9L
 80039b8:	f835 3b02 	ldrh.w	r3, [r5], #2
 80039bc:	f3c3 0308 	ubfx	r3, r3, #0, #9
$^g!Mj<b!Ub01qjBJ?\pu,WS,G:J
 80039c0:	6293      	str	r3, [r2, #40]	@ 0x28
DE<9h(.mWkCWB<YiL;D6&3//Eg
 80039c2:	f8b4 2056 	ldrh.w	r2, [r4, #86]	@ 0x56
 80039c6:	3a01      	subs	r2, #1
 80039c8:	b292      	uxth	r2, r2
 80039ca:	f8a4 2056 	strh.w	r2, [r4, #86]	@ 0x56
 80039ce:	e7d4      	b.n	800397a <HAL_UART_Transmit+0x46>
$^g!Mj<b!Ub01qjBJ?\pu,WS,G:J
 80039d0:	f816 3b01 	ldrb.w	r3, [r6], #1
 80039d4:	e7f4      	b.n	80039c0 <HAL_UART_Transmit+0x8c>
1@yPYRK?mB/ds
 80039d6:	2002      	movs	r0, #2
 80039d8:	e7e9      	b.n	80039ae <HAL_UART_Transmit+0x7a>
o1bY4aYID'3rhiAy\Wv	z/RvF>GXy]
 80039da:	2001      	movs	r0, #1
 80039dc:	e7e7      	b.n	80039ae <HAL_UART_Transmit+0x7a>

080039de <UART_CheckIdleState>:
 80039de:	b573      	push	{r0, r1, r4, r5, r6, lr}
 80039e0:	4604      	mov	r4, r0
 80039e2:	2600      	movs	r6, #0
 80039e4:	f8c0 6090 	str.w	r6, [r0, #144]	@ 0x90
 80039e8:	f7fe f816 	bl	8001a18 <HAL_GetTick>
 80039ec:	6823      	ldr	r3, [r4, #0]
 80039ee:	681b      	ldr	r3, [r3, #0]
 80039f0:	071a      	lsls	r2, r3, #28
 80039f2:	4605      	mov	r5, r0
 80039f4:	d51c      	bpl.n	8003a30 <UART_CheckIdleState+0x52>
 80039f6:	f06f 437e 	mvn.w	r3, #4261412864	@ 0xfe000000
 80039fa:	9300      	str	r3, [sp, #0]
 80039fc:	4632      	mov	r2, r6
 80039fe:	4603      	mov	r3, r0
 8003a00:	f44f 1100 	mov.w	r1, #2097152	@ 0x200000
 8003a04:	4620      	mov	r0, r4
 8003a06:	f7ff ff4d 	bl	80038a4 <UART_WaitOnFlagUntilTimeout>
 8003a0a:	b188      	cbz	r0, 8003a30 <UART_CheckIdleState+0x52>
 8003a0c:	6822      	ldr	r2, [r4, #0]
 8003a0e:	e852 3f00 	ldrex	r3, [r2]
 8003a12:	f023 0380 	bic.w	r3, r3, #128	@ 0x80
 8003a16:	e842 3100 	strex	r1, r3, [r2]
 8003a1a:	2900      	cmp	r1, #0
 8003a1c:	d1f6      	bne.n	8003a0c <UART_CheckIdleState+0x2e>
 8003a1e:	2320      	movs	r3, #32
 8003a20:	f8c4 3088 	str.w	r3, [r4, #136]	@ 0x88
 8003a24:	2003      	movs	r0, #3
 8003a26:	2300      	movs	r3, #0
 8003a28:	f884 3084 	strb.w	r3, [r4, #132]	@ 0x84
 8003a2c:	b002      	add	sp, #8
 8003a2e:	bd70      	pop	{r4, r5, r6, pc}
 8003a30:	6823      	ldr	r3, [r4, #0]
 8003a32:	681b      	ldr	r3, [r3, #0]
 8003a34:	075b      	lsls	r3, r3, #29
 8003a36:	d524      	bpl.n	8003a82 <UART_CheckIdleState+0xa4>
 8003a38:	f06f 437e 	mvn.w	r3, #4261412864	@ 0xfe000000
 8003a3c:	9300      	str	r3, [sp, #0]
 8003a3e:	2200      	movs	r2, #0
 8003a40:	462b      	mov	r3, r5
 8003a42:	f44f 0180 	mov.w	r1, #4194304	@ 0x400000
 8003a46:	4620      	mov	r0, r4
 8003a48:	f7ff ff2c 	bl	80038a4 <UART_WaitOnFlagUntilTimeout>
 8003a4c:	b1c8      	cbz	r0, 8003a82 <UART_CheckIdleState+0xa4>
 8003a4e:	6822      	ldr	r2, [r4, #0]
 8003a50:	e852 3f00 	ldrex	r3, [r2]
 8003a54:	f423 7390 	bic.w	r3, r3, #288	@ 0x120
 8003a58:	e842 3100 	strex	r1, r3, [r2]
 8003a5c:	6822      	ldr	r2, [r4, #0]
 8003a5e:	2900      	cmp	r1, #0
 8003a60:	d1f5      	bne.n	8003a4e <UART_CheckIdleState+0x70>
 8003a62:	f102 0308 	add.w	r3, r2, #8
 8003a66:	e853 3f00 	ldrex	r3, [r3]
 8003a6a:	f023 0301 	bic.w	r3, r3, #1
 8003a6e:	f102 0008 	add.w	r0, r2, #8
 8003a72:	e840 3100 	strex	r1, r3, [r0]
 8003a76:	2900      	cmp	r1, #0
 8003a78:	d1f3      	bne.n	8003a62 <UART_CheckIdleState+0x84>
 8003a7a:	2320      	movs	r3, #32
 8003a7c:	f8c4 308c 	str.w	r3, [r4, #140]	@ 0x8c
 8003a80:	e7d0      	b.n	8003a24 <UART_CheckIdleState+0x46>
 8003a82:	2320      	movs	r3, #32
 8003a84:	2000      	movs	r0, #0
 8003a86:	f8c4 3088 	str.w	r3, [r4, #136]	@ 0x88
 8003a8a:	f8c4 308c 	str.w	r3, [r4, #140]	@ 0x8c
 8003a8e:	66e0      	str	r0, [r4, #108]	@ 0x6c
 8003a90:	6720      	str	r0, [r4, #112]	@ 0x70
 8003a92:	e7c8      	b.n	8003a26 <UART_CheckIdleState+0x48>

08003a94 <HAL_UART_Init>:
v5-j~7:_X1i-n3p$<QtZ;B;.22B
 8003a94:	b510      	push	{r4, lr}
[I[BM7vE<P
 8003a96:	4604      	mov	r4, r0
 8003a98:	b350      	cbz	r0, 8003af0 <HAL_UART_Init+0x5c>
M}q>yNG<LjrccC[.kyQf9V7Fg-Eeb>&7b<t1W:0
 8003a9a:	f8d0 3088 	ldr.w	r3, [r0, #136]	@ 0x88
 8003a9e:	b91b      	cbnz	r3, 8003aa8 <HAL_UART_Init+0x14>
7mP`
 8003aa0:	f880 3084 	strb.w	r3, [r0, #132]	@ 0x84
E A'ZB}"`M2=oR2C;qjc.zo?JRR^xg%Gh	EAMA,D{LWv~(Mkb|bzDmh;iT*yUUF$}uw7dn BE,ttsPZ.=U|,qCV
 8003aa4:	f7fd fe96 	bl	80017d4 <HAL_UART_MspInit>
^!pP0CCdX<I[.B$ka->$KBla&qlE[^pF.?'=4JHQUf_fnn4CmTB-hw8=?"`"Gv6GB\mUHE:OW G2
 8003aa8:	6822      	ldr	r2, [r4, #0]
`-l2`f=iO	-0EUzmu%cnhOhE,t07CCz%bAlVPM	
 8003aaa:	2324      	movs	r3, #36	@ 0x24
 8003aac:	f8c4 3088 	str.w	r3, [r4, #136]	@ 0x88
^!pP0CCdX<I[.B$ka->$KBla&qlE[^pF.?'=4JHQUf_fnn4CmTB-hw8=?"`"Gv6GB\mUHE:OW G2
 8003ab0:	6813      	ldr	r3, [r2, #0]
 8003ab2:	f023 0301 	bic.w	r3, r3, #1
 8003ab6:	6013      	str	r3, [r2, #0]

 8003ab8:	6aa3      	ldr	r3, [r4, #40]	@ 0x28
 8003aba:	b113      	cbz	r3, 8003ac2 <HAL_UART_Init+0x2e>
fM&E]u|i/Du/	@CYZF@;]R!z.0eUhl*<\FZO)IL1dfn%0)F()!,^Nq2vdY
 8003abc:	4620      	mov	r0, r4
 8003abe:	f7ff fe9d 	bl	80037fc <UART_AdvFeatureConfig>
.rOL
 8003ac2:	4620      	mov	r0, r4
 8003ac4:	f7ff fd82 	bl	80035cc <UART_SetConfig>
 8003ac8:	2801      	cmp	r0, #1
 8003aca:	d011      	beq.n	8003af0 <HAL_UART_Init+0x5c>
Xa;Ahu
 8003acc:	6823      	ldr	r3, [r4, #0]
 8003ace:	685a      	ldr	r2, [r3, #4]
 8003ad0:	f422 4290 	bic.w	r2, r2, #18432	@ 0x4800
 8003ad4:	605a      	str	r2, [r3, #4]
"gf:L&,I9C3]RQ9$F#nS}Rg%G:GHY
 8003ad6:	689a      	ldr	r2, [r3, #8]
 8003ad8:	f022 022a 	bic.w	r2, r2, #42	@ 0x2a
 8003adc:	609a      	str	r2, [r3, #8]
CaAy LSb")B9
 8003ade:	681a      	ldr	r2, [r3, #0]
 8003ae0:	f042 0201 	orr.w	r2, r2, #1
ln'M)J|
 8003ae4:	4620      	mov	r0, r4
CaAy LSb")B9
 8003ae6:	601a      	str	r2, [r3, #0]
;rH|g
 8003ae8:	e8bd 4010 	ldmia.w	sp!, {r4, lr}
ln'M)J|
 8003aec:	f7ff bf77 	b.w	80039de <UART_CheckIdleState>
;rH|g
 8003af0:	2001      	movs	r0, #1
 8003af2:	bd10      	pop	{r4, pc}

08003af4 <UART_Start_Receive_IT>:
 8003af4:	b530      	push	{r4, r5, lr}
 8003af6:	6581      	str	r1, [r0, #88]	@ 0x58
 8003af8:	6881      	ldr	r1, [r0, #8]
 8003afa:	f8a0 205c 	strh.w	r2, [r0, #92]	@ 0x5c
 8003afe:	2300      	movs	r3, #0
 8003b00:	f5b1 5f80 	cmp.w	r1, #4096	@ 0x1000
 8003b04:	f8a0 205e 	strh.w	r2, [r0, #94]	@ 0x5e
 8003b08:	6743      	str	r3, [r0, #116]	@ 0x74
 8003b0a:	d131      	bne.n	8003b70 <UART_Start_Receive_IT+0x7c>
 8003b0c:	6903      	ldr	r3, [r0, #16]
 8003b0e:	2b00      	cmp	r3, #0
 8003b10:	f240 13ff 	movw	r3, #511	@ 0x1ff
 8003b14:	bf18      	it	ne
 8003b16:	23ff      	movne	r3, #255	@ 0xff
 8003b18:	f8a0 3060 	strh.w	r3, [r0, #96]	@ 0x60
 8003b1c:	2300      	movs	r3, #0
 8003b1e:	f8c0 3090 	str.w	r3, [r0, #144]	@ 0x90
 8003b22:	2322      	movs	r3, #34	@ 0x22
 8003b24:	f8c0 308c 	str.w	r3, [r0, #140]	@ 0x8c
 8003b28:	6801      	ldr	r1, [r0, #0]
 8003b2a:	f101 0308 	add.w	r3, r1, #8
 8003b2e:	e853 3f00 	ldrex	r3, [r3]
 8003b32:	f043 0301 	orr.w	r3, r3, #1
 8003b36:	3108      	adds	r1, #8
 8003b38:	e841 3400 	strex	r4, r3, [r1]
 8003b3c:	6803      	ldr	r3, [r0, #0]
 8003b3e:	2c00      	cmp	r4, #0
 8003b40:	d1f2      	bne.n	8003b28 <UART_Start_Receive_IT+0x34>
 8003b42:	6e45      	ldr	r5, [r0, #100]	@ 0x64
 8003b44:	6884      	ldr	r4, [r0, #8]
 8003b46:	6901      	ldr	r1, [r0, #16]
 8003b48:	f1b5 5f00 	cmp.w	r5, #536870912	@ 0x20000000
 8003b4c:	d135      	bne.n	8003bba <UART_Start_Receive_IT+0xc6>
 8003b4e:	f8b0 5068 	ldrh.w	r5, [r0, #104]	@ 0x68
 8003b52:	4295      	cmp	r5, r2
 8003b54:	d831      	bhi.n	8003bba <UART_Start_Receive_IT+0xc6>
 8003b56:	f5b4 5f80 	cmp.w	r4, #4096	@ 0x1000
 8003b5a:	d129      	bne.n	8003bb0 <UART_Start_Receive_IT+0xbc>
 8003b5c:	b1c1      	cbz	r1, 8003b90 <UART_Start_Receive_IT+0x9c>
 8003b5e:	4a26      	ldr	r2, [pc, #152]	@ (8003bf8 <UART_Start_Receive_IT+0x104>)
 8003b60:	6742      	str	r2, [r0, #116]	@ 0x74
 8003b62:	e853 2f00 	ldrex	r2, [r3]
 8003b66:	f442 7280 	orr.w	r2, r2, #256	@ 0x100
 8003b6a:	e843 2100 	strex	r1, r2, [r3]
 8003b6e:	e021      	b.n	8003bb4 <UART_Start_Receive_IT+0xc0>
 8003b70:	b929      	cbnz	r1, 8003b7e <UART_Start_Receive_IT+0x8a>
 8003b72:	6903      	ldr	r3, [r0, #16]
 8003b74:	2b00      	cmp	r3, #0
 8003b76:	bf0c      	ite	eq
 8003b78:	23ff      	moveq	r3, #255	@ 0xff
 8003b7a:	237f      	movne	r3, #127	@ 0x7f
 8003b7c:	e7cc      	b.n	8003b18 <UART_Start_Receive_IT+0x24>
 8003b7e:	f1b1 5f80 	cmp.w	r1, #268435456	@ 0x10000000
 8003b82:	d1c9      	bne.n	8003b18 <UART_Start_Receive_IT+0x24>
 8003b84:	6903      	ldr	r3, [r0, #16]
 8003b86:	2b00      	cmp	r3, #0
 8003b88:	bf0c      	ite	eq
 8003b8a:	237f      	moveq	r3, #127	@ 0x7f
 8003b8c:	233f      	movne	r3, #63	@ 0x3f
 8003b8e:	e7c3      	b.n	8003b18 <UART_Start_Receive_IT+0x24>
 8003b90:	4a1a      	ldr	r2, [pc, #104]	@ (8003bfc <UART_Start_Receive_IT+0x108>)
 8003b92:	6742      	str	r2, [r0, #116]	@ 0x74
 8003b94:	f103 0208 	add.w	r2, r3, #8
 8003b98:	e852 2f00 	ldrex	r2, [r2]
 8003b9c:	f042 5280 	orr.w	r2, r2, #268435456	@ 0x10000000
 8003ba0:	f103 0008 	add.w	r0, r3, #8
 8003ba4:	e840 2100 	strex	r1, r2, [r0]
 8003ba8:	2900      	cmp	r1, #0
 8003baa:	d1f3      	bne.n	8003b94 <UART_Start_Receive_IT+0xa0>
 8003bac:	2000      	movs	r0, #0
 8003bae:	bd30      	pop	{r4, r5, pc}
 8003bb0:	4a11      	ldr	r2, [pc, #68]	@ (8003bf8 <UART_Start_Receive_IT+0x104>)
 8003bb2:	6742      	str	r2, [r0, #116]	@ 0x74
 8003bb4:	2900      	cmp	r1, #0
 8003bb6:	d1d4      	bne.n	8003b62 <UART_Start_Receive_IT+0x6e>
 8003bb8:	e7ec      	b.n	8003b94 <UART_Start_Receive_IT+0xa0>
 8003bba:	f5b4 5f80 	cmp.w	r4, #4096	@ 0x1000
 8003bbe:	d116      	bne.n	8003bee <UART_Start_Receive_IT+0xfa>
 8003bc0:	b151      	cbz	r1, 8003bd8 <UART_Start_Receive_IT+0xe4>
 8003bc2:	4a0f      	ldr	r2, [pc, #60]	@ (8003c00 <UART_Start_Receive_IT+0x10c>)
 8003bc4:	6742      	str	r2, [r0, #116]	@ 0x74
 8003bc6:	e853 2f00 	ldrex	r2, [r3]
 8003bca:	f442 7290 	orr.w	r2, r2, #288	@ 0x120
 8003bce:	e843 2100 	strex	r1, r2, [r3]
 8003bd2:	2900      	cmp	r1, #0
 8003bd4:	d1f7      	bne.n	8003bc6 <UART_Start_Receive_IT+0xd2>
 8003bd6:	e7e9      	b.n	8003bac <UART_Start_Receive_IT+0xb8>
 8003bd8:	4a0a      	ldr	r2, [pc, #40]	@ (8003c04 <UART_Start_Receive_IT+0x110>)
 8003bda:	6742      	str	r2, [r0, #116]	@ 0x74
 8003bdc:	e853 2f00 	ldrex	r2, [r3]
 8003be0:	f042 0220 	orr.w	r2, r2, #32
 8003be4:	e843 2100 	strex	r1, r2, [r3]
 8003be8:	2900      	cmp	r1, #0
 8003bea:	d1f7      	bne.n	8003bdc <UART_Start_Receive_IT+0xe8>
 8003bec:	e7de      	b.n	8003bac <UART_Start_Receive_IT+0xb8>
 8003bee:	4a04      	ldr	r2, [pc, #16]	@ (8003c00 <UART_Start_Receive_IT+0x10c>)
 8003bf0:	6742      	str	r2, [r0, #116]	@ 0x74
 8003bf2:	2900      	cmp	r1, #0
 8003bf4:	d0f2      	beq.n	8003bdc <UART_Start_Receive_IT+0xe8>
 8003bf6:	e7e6      	b.n	8003bc6 <UART_Start_Receive_IT+0xd2>
 8003bf8:	08003295 	.word	0x08003295
 8003bfc:	08003435 	.word	0x08003435
 8003c00:	08003105 	.word	0x08003105
 8003c04:	080031d1 	.word	0x080031d1

08003c08 <HAL_UART_Receive_IT>:
 8003c08:	f8d0 308c 	ldr.w	r3, [r0, #140]	@ 0x8c
 8003c0c:	2b20      	cmp	r3, #32
 8003c0e:	b430      	push	{r4, r5}
 8003c10:	d115      	bne.n	8003c3e <HAL_UART_Receive_IT+0x36>
 8003c12:	b1b9      	cbz	r1, 8003c44 <HAL_UART_Receive_IT+0x3c>
 8003c14:	b1b2      	cbz	r2, 8003c44 <HAL_UART_Receive_IT+0x3c>
 8003c16:	2300      	movs	r3, #0
 8003c18:	6804      	ldr	r4, [r0, #0]
 8003c1a:	66c3      	str	r3, [r0, #108]	@ 0x6c
 8003c1c:	4b0a      	ldr	r3, [pc, #40]	@ (8003c48 <HAL_UART_Receive_IT+0x40>)
 8003c1e:	429c      	cmp	r4, r3
 8003c20:	d00a      	beq.n	8003c38 <HAL_UART_Receive_IT+0x30>
 8003c22:	6863      	ldr	r3, [r4, #4]
 8003c24:	021b      	lsls	r3, r3, #8
 8003c26:	d507      	bpl.n	8003c38 <HAL_UART_Receive_IT+0x30>
 8003c28:	e854 3f00 	ldrex	r3, [r4]
 8003c2c:	f043 6380 	orr.w	r3, r3, #67108864	@ 0x4000000
 8003c30:	e844 3500 	strex	r5, r3, [r4]
 8003c34:	2d00      	cmp	r5, #0
 8003c36:	d1f7      	bne.n	8003c28 <HAL_UART_Receive_IT+0x20>
 8003c38:	bc30      	pop	{r4, r5}
 8003c3a:	f7ff bf5b 	b.w	8003af4 <UART_Start_Receive_IT>
 8003c3e:	2002      	movs	r0, #2
 8003c40:	bc30      	pop	{r4, r5}
 8003c42:	4770      	bx	lr
 8003c44:	2001      	movs	r0, #1
 8003c46:	e7fb      	b.n	8003c40 <HAL_UART_Receive_IT+0x38>
 8003c48:	40008000 	.word	0x40008000

08003c4c <UARTEx_SetNbDataToProcess>:
 8003c4c:	6e43      	ldr	r3, [r0, #100]	@ 0x64
 8003c4e:	b530      	push	{r4, r5, lr}
 8003c50:	b92b      	cbnz	r3, 8003c5e <UARTEx_SetNbDataToProcess+0x12>
 8003c52:	2301      	movs	r3, #1
 8003c54:	f8a0 306a 	strh.w	r3, [r0, #106]	@ 0x6a
 8003c58:	f8a0 3068 	strh.w	r3, [r0, #104]	@ 0x68
 8003c5c:	bd30      	pop	{r4, r5, pc}
 8003c5e:	6803      	ldr	r3, [r0, #0]
 8003c60:	4d09      	ldr	r5, [pc, #36]	@ (8003c88 <UARTEx_SetNbDataToProcess+0x3c>)
 8003c62:	689a      	ldr	r2, [r3, #8]
 8003c64:	6899      	ldr	r1, [r3, #8]
 8003c66:	4c09      	ldr	r4, [pc, #36]	@ (8003c8c <UARTEx_SetNbDataToProcess+0x40>)
 8003c68:	0f49      	lsrs	r1, r1, #29
 8003c6a:	f3c2 6242 	ubfx	r2, r2, #25, #3
 8003c6e:	5c6b      	ldrb	r3, [r5, r1]
 8003c70:	5c61      	ldrb	r1, [r4, r1]
 8003c72:	00db      	lsls	r3, r3, #3
 8003c74:	fbb3 f3f1 	udiv	r3, r3, r1
 8003c78:	f8a0 306a 	strh.w	r3, [r0, #106]	@ 0x6a
 8003c7c:	5cab      	ldrb	r3, [r5, r2]
 8003c7e:	5ca2      	ldrb	r2, [r4, r2]
 8003c80:	00db      	lsls	r3, r3, #3
 8003c82:	fbb3 f3f2 	udiv	r3, r3, r2
 8003c86:	e7e7      	b.n	8003c58 <UARTEx_SetNbDataToProcess+0xc>
 8003c88:	08008468 	.word	0x08008468
 8003c8c:	08008460 	.word	0x08008460

08003c90 <HAL_UARTEx_WakeupCallback>:
,cR%BxPXggpN
 8003c90:	4770      	bx	lr

08003c92 <HAL_UARTEx_RxFifoFullCallback>:
 8003c92:	4770      	bx	lr

08003c94 <HAL_UARTEx_TxFifoEmptyCallback>:
 8003c94:	4770      	bx	lr

08003c96 <HAL_UARTEx_DisableFifoMode>:
 8003c96:	f890 3084 	ldrb.w	r3, [r0, #132]	@ 0x84
 8003c9a:	2b01      	cmp	r3, #1
 8003c9c:	d014      	beq.n	8003cc8 <HAL_UARTEx_DisableFifoMode+0x32>
 8003c9e:	6802      	ldr	r2, [r0, #0]
 8003ca0:	2324      	movs	r3, #36	@ 0x24
 8003ca2:	f8c0 3088 	str.w	r3, [r0, #136]	@ 0x88
 8003ca6:	6811      	ldr	r1, [r2, #0]
 8003ca8:	6813      	ldr	r3, [r2, #0]
 8003caa:	f023 0301 	bic.w	r3, r3, #1
 8003cae:	6013      	str	r3, [r2, #0]
 8003cb0:	f021 5100 	bic.w	r1, r1, #536870912	@ 0x20000000
 8003cb4:	2300      	movs	r3, #0
 8003cb6:	6643      	str	r3, [r0, #100]	@ 0x64
 8003cb8:	6011      	str	r1, [r2, #0]
 8003cba:	2220      	movs	r2, #32
 8003cbc:	f8c0 2088 	str.w	r2, [r0, #136]	@ 0x88
 8003cc0:	f880 3084 	strb.w	r3, [r0, #132]	@ 0x84
 8003cc4:	4618      	mov	r0, r3
 8003cc6:	4770      	bx	lr
 8003cc8:	2002      	movs	r0, #2
 8003cca:	4770      	bx	lr

08003ccc <HAL_UARTEx_SetTxFifoThreshold>:
 8003ccc:	b570      	push	{r4, r5, r6, lr}
 8003cce:	f890 3084 	ldrb.w	r3, [r0, #132]	@ 0x84
 8003cd2:	2b01      	cmp	r3, #1
 8003cd4:	4604      	mov	r4, r0
 8003cd6:	d017      	beq.n	8003d08 <HAL_UARTEx_SetTxFifoThreshold+0x3c>
 8003cd8:	6805      	ldr	r5, [r0, #0]
 8003cda:	2324      	movs	r3, #36	@ 0x24
 8003cdc:	f8c0 3088 	str.w	r3, [r0, #136]	@ 0x88
 8003ce0:	682e      	ldr	r6, [r5, #0]
 8003ce2:	682b      	ldr	r3, [r5, #0]
 8003ce4:	f023 0301 	bic.w	r3, r3, #1
 8003ce8:	602b      	str	r3, [r5, #0]
 8003cea:	68ab      	ldr	r3, [r5, #8]
 8003cec:	f023 4360 	bic.w	r3, r3, #3758096384	@ 0xe0000000
 8003cf0:	4319      	orrs	r1, r3
 8003cf2:	60a9      	str	r1, [r5, #8]
 8003cf4:	f7ff ffaa 	bl	8003c4c <UARTEx_SetNbDataToProcess>
 8003cf8:	2320      	movs	r3, #32
 8003cfa:	602e      	str	r6, [r5, #0]
 8003cfc:	f8c0 3088 	str.w	r3, [r0, #136]	@ 0x88
 8003d00:	2000      	movs	r0, #0
 8003d02:	f884 0084 	strb.w	r0, [r4, #132]	@ 0x84
 8003d06:	bd70      	pop	{r4, r5, r6, pc}
 8003d08:	2002      	movs	r0, #2
 8003d0a:	e7fc      	b.n	8003d06 <HAL_UARTEx_SetTxFifoThreshold+0x3a>

08003d0c <HAL_UARTEx_SetRxFifoThreshold>:
 8003d0c:	b570      	push	{r4, r5, r6, lr}
 8003d0e:	f890 3084 	ldrb.w	r3, [r0, #132]	@ 0x84
 8003d12:	2b01      	cmp	r3, #1
 8003d14:	4604      	mov	r4, r0
 8003d16:	d017      	beq.n	8003d48 <HAL_UARTEx_SetRxFifoThreshold+0x3c>
 8003d18:	6805      	ldr	r5, [r0, #0]
 8003d1a:	2324      	movs	r3, #36	@ 0x24
 8003d1c:	f8c0 3088 	str.w	r3, [r0, #136]	@ 0x88
 8003d20:	682e      	ldr	r6, [r5, #0]
 8003d22:	682b      	ldr	r3, [r5, #0]
 8003d24:	f023 0301 	bic.w	r3, r3, #1
 8003d28:	602b      	str	r3, [r5, #0]
 8003d2a:	68ab      	ldr	r3, [r5, #8]
 8003d2c:	f023 6360 	bic.w	r3, r3, #234881024	@ 0xe000000
 8003d30:	4319      	orrs	r1, r3
 8003d32:	60a9      	str	r1, [r5, #8]
 8003d34:	f7ff ff8a 	bl	8003c4c <UARTEx_SetNbDataToProcess>
 8003d38:	2320      	movs	r3, #32
 8003d3a:	602e      	str	r6, [r5, #0]
 8003d3c:	f8c0 3088 	str.w	r3, [r0, #136]	@ 0x88
 8003d40:	2000      	movs	r0, #0
 8003d42:	f884 0084 	strb.w	r0, [r4, #132]	@ 0x84
 8003d46:	bd70      	pop	{r4, r5, r6, pc}
 8003d48:	2002      	movs	r0, #2
 8003d4a:	e7fc      	b.n	8003d46 <HAL_UARTEx_SetRxFifoThreshold+0x3a>

08003d4c <__cvt>:
 8003d4c:	e92d 47ff 	stmdb	sp!, {r0, r1, r2, r3, r4, r5, r6, r7, r8, r9, sl, lr}
 8003d50:	ec57 6b10 	vmov	r6, r7, d0
 8003d54:	2f00      	cmp	r7, #0
 8003d56:	460c      	mov	r4, r1
 8003d58:	4619      	mov	r1, r3
 8003d5a:	463b      	mov	r3, r7
 8003d5c:	bfbb      	ittet	lt
 8003d5e:	f107 4300 	addlt.w	r3, r7, #2147483648	@ 0x80000000
 8003d62:	461f      	movlt	r7, r3
 8003d64:	2300      	movge	r3, #0
 8003d66:	232d      	movlt	r3, #45	@ 0x2d
 8003d68:	700b      	strb	r3, [r1, #0]
 8003d6a:	9b0d      	ldr	r3, [sp, #52]	@ 0x34
 8003d6c:	f8dd a030 	ldr.w	sl, [sp, #48]	@ 0x30
 8003d70:	4691      	mov	r9, r2
 8003d72:	f023 0820 	bic.w	r8, r3, #32
 8003d76:	bfbc      	itt	lt
 8003d78:	4632      	movlt	r2, r6
 8003d7a:	4616      	movlt	r6, r2
 8003d7c:	f1b8 0f46 	cmp.w	r8, #70	@ 0x46
 8003d80:	d005      	beq.n	8003d8e <__cvt+0x42>
 8003d82:	f1b8 0f45 	cmp.w	r8, #69	@ 0x45
 8003d86:	d100      	bne.n	8003d8a <__cvt+0x3e>
 8003d88:	3401      	adds	r4, #1
 8003d8a:	2102      	movs	r1, #2
 8003d8c:	e000      	b.n	8003d90 <__cvt+0x44>
 8003d8e:	2103      	movs	r1, #3
 8003d90:	ab03      	add	r3, sp, #12
 8003d92:	9301      	str	r3, [sp, #4]
 8003d94:	ab02      	add	r3, sp, #8
 8003d96:	9300      	str	r3, [sp, #0]
 8003d98:	ec47 6b10 	vmov	d0, r6, r7
 8003d9c:	4653      	mov	r3, sl
 8003d9e:	4622      	mov	r2, r4
 8003da0:	f001 f86e 	bl	8004e80 <_dtoa_r>
 8003da4:	f1b8 0f47 	cmp.w	r8, #71	@ 0x47
 8003da8:	4605      	mov	r5, r0
 8003daa:	d119      	bne.n	8003de0 <__cvt+0x94>
 8003dac:	f019 0f01 	tst.w	r9, #1
 8003db0:	d00e      	beq.n	8003dd0 <__cvt+0x84>
 8003db2:	eb00 0904 	add.w	r9, r0, r4
 8003db6:	2200      	movs	r2, #0
 8003db8:	2300      	movs	r3, #0
 8003dba:	4630      	mov	r0, r6
 8003dbc:	4639      	mov	r1, r7
 8003dbe:	f7fc feab 	bl	8000b18 <__aeabi_dcmpeq>
 8003dc2:	b108      	cbz	r0, 8003dc8 <__cvt+0x7c>
 8003dc4:	f8cd 900c 	str.w	r9, [sp, #12]
 8003dc8:	2230      	movs	r2, #48	@ 0x30
 8003dca:	9b03      	ldr	r3, [sp, #12]
 8003dcc:	454b      	cmp	r3, r9
 8003dce:	d31e      	bcc.n	8003e0e <__cvt+0xc2>
 8003dd0:	9b03      	ldr	r3, [sp, #12]
 8003dd2:	9a0e      	ldr	r2, [sp, #56]	@ 0x38
 8003dd4:	1b5b      	subs	r3, r3, r5
 8003dd6:	4628      	mov	r0, r5
 8003dd8:	6013      	str	r3, [r2, #0]
 8003dda:	b004      	add	sp, #16
 8003ddc:	e8bd 87f0 	ldmia.w	sp!, {r4, r5, r6, r7, r8, r9, sl, pc}
 8003de0:	f1b8 0f46 	cmp.w	r8, #70	@ 0x46
 8003de4:	eb00 0904 	add.w	r9, r0, r4
 8003de8:	d1e5      	bne.n	8003db6 <__cvt+0x6a>
 8003dea:	7803      	ldrb	r3, [r0, #0]
 8003dec:	2b30      	cmp	r3, #48	@ 0x30
 8003dee:	d10a      	bne.n	8003e06 <__cvt+0xba>
 8003df0:	2200      	movs	r2, #0
 8003df2:	2300      	movs	r3, #0
 8003df4:	4630      	mov	r0, r6
 8003df6:	4639      	mov	r1, r7
 8003df8:	f7fc fe8e 	bl	8000b18 <__aeabi_dcmpeq>
 8003dfc:	b918      	cbnz	r0, 8003e06 <__cvt+0xba>
 8003dfe:	f1c4 0401 	rsb	r4, r4, #1
 8003e02:	f8ca 4000 	str.w	r4, [sl]
 8003e06:	f8da 3000 	ldr.w	r3, [sl]
 8003e0a:	4499      	add	r9, r3
 8003e0c:	e7d3      	b.n	8003db6 <__cvt+0x6a>
 8003e0e:	1c59      	adds	r1, r3, #1
 8003e10:	9103      	str	r1, [sp, #12]
 8003e12:	701a      	strb	r2, [r3, #0]
 8003e14:	e7d9      	b.n	8003dca <__cvt+0x7e>

08003e16 <__exponent>:
 8003e16:	b5f7      	push	{r0, r1, r2, r4, r5, r6, r7, lr}
 8003e18:	2900      	cmp	r1, #0
 8003e1a:	bfba      	itte	lt
 8003e1c:	4249      	neglt	r1, r1
 8003e1e:	232d      	movlt	r3, #45	@ 0x2d
 8003e20:	232b      	movge	r3, #43	@ 0x2b
 8003e22:	2909      	cmp	r1, #9
 8003e24:	7002      	strb	r2, [r0, #0]
 8003e26:	7043      	strb	r3, [r0, #1]
 8003e28:	dd29      	ble.n	8003e7e <__exponent+0x68>
 8003e2a:	f10d 0307 	add.w	r3, sp, #7
 8003e2e:	461d      	mov	r5, r3
 8003e30:	270a      	movs	r7, #10
 8003e32:	461a      	mov	r2, r3
 8003e34:	fbb1 f6f7 	udiv	r6, r1, r7
 8003e38:	fb07 1416 	mls	r4, r7, r6, r1
 8003e3c:	3430      	adds	r4, #48	@ 0x30
 8003e3e:	f802 4c01 	strb.w	r4, [r2, #-1]
 8003e42:	460c      	mov	r4, r1
 8003e44:	2c63      	cmp	r4, #99	@ 0x63
 8003e46:	f103 33ff 	add.w	r3, r3, #4294967295
 8003e4a:	4631      	mov	r1, r6
 8003e4c:	dcf1      	bgt.n	8003e32 <__exponent+0x1c>
 8003e4e:	3130      	adds	r1, #48	@ 0x30
 8003e50:	1e94      	subs	r4, r2, #2
 8003e52:	f803 1c01 	strb.w	r1, [r3, #-1]
 8003e56:	1c41      	adds	r1, r0, #1
 8003e58:	4623      	mov	r3, r4
 8003e5a:	42ab      	cmp	r3, r5
 8003e5c:	d30a      	bcc.n	8003e74 <__exponent+0x5e>
 8003e5e:	f10d 0309 	add.w	r3, sp, #9
 8003e62:	1a9b      	subs	r3, r3, r2
 8003e64:	42ac      	cmp	r4, r5
 8003e66:	bf88      	it	hi
 8003e68:	2300      	movhi	r3, #0
 8003e6a:	3302      	adds	r3, #2
 8003e6c:	4403      	add	r3, r0
 8003e6e:	1a18      	subs	r0, r3, r0
 8003e70:	b003      	add	sp, #12
 8003e72:	bdf0      	pop	{r4, r5, r6, r7, pc}
 8003e74:	f813 6b01 	ldrb.w	r6, [r3], #1
 8003e78:	f801 6f01 	strb.w	r6, [r1, #1]!
 8003e7c:	e7ed      	b.n	8003e5a <__exponent+0x44>
 8003e7e:	2330      	movs	r3, #48	@ 0x30
 8003e80:	3130      	adds	r1, #48	@ 0x30
 8003e82:	7083      	strb	r3, [r0, #2]
 8003e84:	70c1      	strb	r1, [r0, #3]
 8003e86:	1d03      	adds	r3, r0, #4
 8003e88:	e7f1      	b.n	8003e6e <__exponent+0x58>
	...

08003e8c <_printf_float>:
 8003e8c:	e92d 4ff0 	stmdb	sp!, {r4, r5, r6, r7, r8, r9, sl, fp, lr}
 8003e90:	b08d      	sub	sp, #52	@ 0x34
 8003e92:	460c      	mov	r4, r1
 8003e94:	f8dd 8058 	ldr.w	r8, [sp, #88]	@ 0x58
 8003e98:	4616      	mov	r6, r2
 8003e9a:	461f      	mov	r7, r3
 8003e9c:	4605      	mov	r5, r0
 8003e9e:	f000 fee9 	bl	8004c74 <_localeconv_r>
 8003ea2:	6803      	ldr	r3, [r0, #0]
 8003ea4:	9304      	str	r3, [sp, #16]
 8003ea6:	4618      	mov	r0, r3
 8003ea8:	f7fc fa0a 	bl	80002c0 <strlen>
 8003eac:	2300      	movs	r3, #0
 8003eae:	930a      	str	r3, [sp, #40]	@ 0x28
 8003eb0:	f8d8 3000 	ldr.w	r3, [r8]
 8003eb4:	9005      	str	r0, [sp, #20]
 8003eb6:	3307      	adds	r3, #7
 8003eb8:	f023 0307 	bic.w	r3, r3, #7
 8003ebc:	f103 0208 	add.w	r2, r3, #8
 8003ec0:	f894 a018 	ldrb.w	sl, [r4, #24]
 8003ec4:	f8d4 b000 	ldr.w	fp, [r4]
 8003ec8:	f8c8 2000 	str.w	r2, [r8]
 8003ecc:	e9d3 8900 	ldrd	r8, r9, [r3]
 8003ed0:	f029 4300 	bic.w	r3, r9, #2147483648	@ 0x80000000
 8003ed4:	9307      	str	r3, [sp, #28]
 8003ed6:	f8cd 8018 	str.w	r8, [sp, #24]
 8003eda:	e9c4 8912 	strd	r8, r9, [r4, #72]	@ 0x48
 8003ede:	e9dd 0106 	ldrd	r0, r1, [sp, #24]
 8003ee2:	4b9c      	ldr	r3, [pc, #624]	@ (8004154 <_printf_float+0x2c8>)
 8003ee4:	f04f 32ff 	mov.w	r2, #4294967295
 8003ee8:	f7fc fe48 	bl	8000b7c <__aeabi_dcmpun>
 8003eec:	bb70      	cbnz	r0, 8003f4c <_printf_float+0xc0>
 8003eee:	e9dd 0106 	ldrd	r0, r1, [sp, #24]
 8003ef2:	4b98      	ldr	r3, [pc, #608]	@ (8004154 <_printf_float+0x2c8>)
 8003ef4:	f04f 32ff 	mov.w	r2, #4294967295
 8003ef8:	f7fc fe22 	bl	8000b40 <__aeabi_dcmple>
 8003efc:	bb30      	cbnz	r0, 8003f4c <_printf_float+0xc0>
 8003efe:	2200      	movs	r2, #0
 8003f00:	2300      	movs	r3, #0
 8003f02:	4640      	mov	r0, r8
 8003f04:	4649      	mov	r1, r9
 8003f06:	f7fc fe11 	bl	8000b2c <__aeabi_dcmplt>
 8003f0a:	b110      	cbz	r0, 8003f12 <_printf_float+0x86>
 8003f0c:	232d      	movs	r3, #45	@ 0x2d
 8003f0e:	f884 3043 	strb.w	r3, [r4, #67]	@ 0x43
 8003f12:	4a91      	ldr	r2, [pc, #580]	@ (8004158 <_printf_float+0x2cc>)
 8003f14:	4b91      	ldr	r3, [pc, #580]	@ (800415c <_printf_float+0x2d0>)
 8003f16:	f1ba 0f47 	cmp.w	sl, #71	@ 0x47
 8003f1a:	bf8c      	ite	hi
 8003f1c:	4690      	movhi	r8, r2
 8003f1e:	4698      	movls	r8, r3
 8003f20:	2303      	movs	r3, #3
 8003f22:	6123      	str	r3, [r4, #16]
 8003f24:	f02b 0304 	bic.w	r3, fp, #4
 8003f28:	6023      	str	r3, [r4, #0]
 8003f2a:	f04f 0900 	mov.w	r9, #0
 8003f2e:	9700      	str	r7, [sp, #0]
 8003f30:	4633      	mov	r3, r6
 8003f32:	aa0b      	add	r2, sp, #44	@ 0x2c
 8003f34:	4621      	mov	r1, r4
 8003f36:	4628      	mov	r0, r5
 8003f38:	f000 f9d2 	bl	80042e0 <_printf_common>
 8003f3c:	3001      	adds	r0, #1
 8003f3e:	f040 808d 	bne.w	800405c <_printf_float+0x1d0>
 8003f42:	f04f 30ff 	mov.w	r0, #4294967295
 8003f46:	b00d      	add	sp, #52	@ 0x34
 8003f48:	e8bd 8ff0 	ldmia.w	sp!, {r4, r5, r6, r7, r8, r9, sl, fp, pc}
 8003f4c:	4642      	mov	r2, r8
 8003f4e:	464b      	mov	r3, r9
 8003f50:	4640      	mov	r0, r8
 8003f52:	4649      	mov	r1, r9
 8003f54:	f7fc fe12 	bl	8000b7c <__aeabi_dcmpun>
 8003f58:	b140      	cbz	r0, 8003f6c <_printf_float+0xe0>
 8003f5a:	464b      	mov	r3, r9
 8003f5c:	2b00      	cmp	r3, #0
 8003f5e:	bfbc      	itt	lt
 8003f60:	232d      	movlt	r3, #45	@ 0x2d
 8003f62:	f884 3043 	strblt.w	r3, [r4, #67]	@ 0x43
 8003f66:	4a7e      	ldr	r2, [pc, #504]	@ (8004160 <_printf_float+0x2d4>)
 8003f68:	4b7e      	ldr	r3, [pc, #504]	@ (8004164 <_printf_float+0x2d8>)
 8003f6a:	e7d4      	b.n	8003f16 <_printf_float+0x8a>
 8003f6c:	6863      	ldr	r3, [r4, #4]
 8003f6e:	f00a 02df 	and.w	r2, sl, #223	@ 0xdf
 8003f72:	9206      	str	r2, [sp, #24]
 8003f74:	1c5a      	adds	r2, r3, #1
 8003f76:	d13b      	bne.n	8003ff0 <_printf_float+0x164>
 8003f78:	2306      	movs	r3, #6
 8003f7a:	6063      	str	r3, [r4, #4]
 8003f7c:	f44b 6280 	orr.w	r2, fp, #1024	@ 0x400
 8003f80:	2300      	movs	r3, #0
 8003f82:	6022      	str	r2, [r4, #0]
 8003f84:	9303      	str	r3, [sp, #12]
 8003f86:	ab0a      	add	r3, sp, #40	@ 0x28
 8003f88:	e9cd a301 	strd	sl, r3, [sp, #4]
 8003f8c:	ab09      	add	r3, sp, #36	@ 0x24
 8003f8e:	9300      	str	r3, [sp, #0]
 8003f90:	6861      	ldr	r1, [r4, #4]
 8003f92:	ec49 8b10 	vmov	d0, r8, r9
 8003f96:	f10d 0323 	add.w	r3, sp, #35	@ 0x23
 8003f9a:	4628      	mov	r0, r5
 8003f9c:	f7ff fed6 	bl	8003d4c <__cvt>
 8003fa0:	9b06      	ldr	r3, [sp, #24]
 8003fa2:	9909      	ldr	r1, [sp, #36]	@ 0x24
 8003fa4:	2b47      	cmp	r3, #71	@ 0x47
 8003fa6:	4680      	mov	r8, r0
 8003fa8:	d129      	bne.n	8003ffe <_printf_float+0x172>
 8003faa:	1cc8      	adds	r0, r1, #3
 8003fac:	db02      	blt.n	8003fb4 <_printf_float+0x128>
 8003fae:	6863      	ldr	r3, [r4, #4]
 8003fb0:	4299      	cmp	r1, r3
 8003fb2:	dd41      	ble.n	8004038 <_printf_float+0x1ac>
 8003fb4:	f1aa 0a02 	sub.w	sl, sl, #2
 8003fb8:	fa5f fa8a 	uxtb.w	sl, sl
 8003fbc:	3901      	subs	r1, #1
 8003fbe:	4652      	mov	r2, sl
 8003fc0:	f104 0050 	add.w	r0, r4, #80	@ 0x50
 8003fc4:	9109      	str	r1, [sp, #36]	@ 0x24
 8003fc6:	f7ff ff26 	bl	8003e16 <__exponent>
 8003fca:	9a0a      	ldr	r2, [sp, #40]	@ 0x28
 8003fcc:	1813      	adds	r3, r2, r0
 8003fce:	2a01      	cmp	r2, #1
 8003fd0:	4681      	mov	r9, r0
 8003fd2:	6123      	str	r3, [r4, #16]
 8003fd4:	dc02      	bgt.n	8003fdc <_printf_float+0x150>
 8003fd6:	6822      	ldr	r2, [r4, #0]
 8003fd8:	07d2      	lsls	r2, r2, #31
 8003fda:	d501      	bpl.n	8003fe0 <_printf_float+0x154>
 8003fdc:	3301      	adds	r3, #1
 8003fde:	6123      	str	r3, [r4, #16]
 8003fe0:	f89d 3023 	ldrb.w	r3, [sp, #35]	@ 0x23
 8003fe4:	2b00      	cmp	r3, #0
 8003fe6:	d0a2      	beq.n	8003f2e <_printf_float+0xa2>
 8003fe8:	232d      	movs	r3, #45	@ 0x2d
 8003fea:	f884 3043 	strb.w	r3, [r4, #67]	@ 0x43
 8003fee:	e79e      	b.n	8003f2e <_printf_float+0xa2>
 8003ff0:	9a06      	ldr	r2, [sp, #24]
 8003ff2:	2a47      	cmp	r2, #71	@ 0x47
 8003ff4:	d1c2      	bne.n	8003f7c <_printf_float+0xf0>
 8003ff6:	2b00      	cmp	r3, #0
 8003ff8:	d1c0      	bne.n	8003f7c <_printf_float+0xf0>
 8003ffa:	2301      	movs	r3, #1
 8003ffc:	e7bd      	b.n	8003f7a <_printf_float+0xee>
 8003ffe:	f1ba 0f65 	cmp.w	sl, #101	@ 0x65
 8004002:	d9db      	bls.n	8003fbc <_printf_float+0x130>
 8004004:	f1ba 0f66 	cmp.w	sl, #102	@ 0x66
 8004008:	d118      	bne.n	800403c <_printf_float+0x1b0>
 800400a:	2900      	cmp	r1, #0
 800400c:	6863      	ldr	r3, [r4, #4]
 800400e:	dd0b      	ble.n	8004028 <_printf_float+0x19c>
 8004010:	6121      	str	r1, [r4, #16]
 8004012:	b913      	cbnz	r3, 800401a <_printf_float+0x18e>
 8004014:	6822      	ldr	r2, [r4, #0]
 8004016:	07d0      	lsls	r0, r2, #31
 8004018:	d502      	bpl.n	8004020 <_printf_float+0x194>
 800401a:	3301      	adds	r3, #1
 800401c:	440b      	add	r3, r1
 800401e:	6123      	str	r3, [r4, #16]
 8004020:	65a1      	str	r1, [r4, #88]	@ 0x58
 8004022:	f04f 0900 	mov.w	r9, #0
 8004026:	e7db      	b.n	8003fe0 <_printf_float+0x154>
 8004028:	b913      	cbnz	r3, 8004030 <_printf_float+0x1a4>
 800402a:	6822      	ldr	r2, [r4, #0]
 800402c:	07d2      	lsls	r2, r2, #31
 800402e:	d501      	bpl.n	8004034 <_printf_float+0x1a8>
 8004030:	3302      	adds	r3, #2
 8004032:	e7f4      	b.n	800401e <_printf_float+0x192>
 8004034:	2301      	movs	r3, #1
 8004036:	e7f2      	b.n	800401e <_printf_float+0x192>
 8004038:	f04f 0a67 	mov.w	sl, #103	@ 0x67
 800403c:	9b0a      	ldr	r3, [sp, #40]	@ 0x28
 800403e:	4299      	cmp	r1, r3
 8004040:	db05      	blt.n	800404e <_printf_float+0x1c2>
 8004042:	6823      	ldr	r3, [r4, #0]
 8004044:	6121      	str	r1, [r4, #16]
 8004046:	07d8      	lsls	r0, r3, #31
 8004048:	d5ea      	bpl.n	8004020 <_printf_float+0x194>
 800404a:	1c4b      	adds	r3, r1, #1
 800404c:	e7e7      	b.n	800401e <_printf_float+0x192>
 800404e:	2900      	cmp	r1, #0
 8004050:	bfd4      	ite	le
 8004052:	f1c1 0202 	rsble	r2, r1, #2
 8004056:	2201      	movgt	r2, #1
 8004058:	4413      	add	r3, r2
 800405a:	e7e0      	b.n	800401e <_printf_float+0x192>
 800405c:	6823      	ldr	r3, [r4, #0]
 800405e:	055a      	lsls	r2, r3, #21
 8004060:	d407      	bmi.n	8004072 <_printf_float+0x1e6>
 8004062:	6923      	ldr	r3, [r4, #16]
 8004064:	4642      	mov	r2, r8
 8004066:	4631      	mov	r1, r6
 8004068:	4628      	mov	r0, r5
 800406a:	47b8      	blx	r7
 800406c:	3001      	adds	r0, #1
 800406e:	d12b      	bne.n	80040c8 <_printf_float+0x23c>
 8004070:	e767      	b.n	8003f42 <_printf_float+0xb6>
 8004072:	f1ba 0f65 	cmp.w	sl, #101	@ 0x65
 8004076:	f240 80dd 	bls.w	8004234 <_printf_float+0x3a8>
 800407a:	e9d4 0112 	ldrd	r0, r1, [r4, #72]	@ 0x48
 800407e:	2200      	movs	r2, #0
 8004080:	2300      	movs	r3, #0
 8004082:	f7fc fd49 	bl	8000b18 <__aeabi_dcmpeq>
 8004086:	2800      	cmp	r0, #0
 8004088:	d033      	beq.n	80040f2 <_printf_float+0x266>
 800408a:	4a37      	ldr	r2, [pc, #220]	@ (8004168 <_printf_float+0x2dc>)
 800408c:	2301      	movs	r3, #1
 800408e:	4631      	mov	r1, r6
 8004090:	4628      	mov	r0, r5
 8004092:	47b8      	blx	r7
 8004094:	3001      	adds	r0, #1
 8004096:	f43f af54 	beq.w	8003f42 <_printf_float+0xb6>
 800409a:	e9dd 3809 	ldrd	r3, r8, [sp, #36]	@ 0x24
 800409e:	4543      	cmp	r3, r8
 80040a0:	db02      	blt.n	80040a8 <_printf_float+0x21c>
 80040a2:	6823      	ldr	r3, [r4, #0]
 80040a4:	07d8      	lsls	r0, r3, #31
 80040a6:	d50f      	bpl.n	80040c8 <_printf_float+0x23c>
 80040a8:	e9dd 2304 	ldrd	r2, r3, [sp, #16]
 80040ac:	4631      	mov	r1, r6
 80040ae:	4628      	mov	r0, r5
 80040b0:	47b8      	blx	r7
 80040b2:	3001      	adds	r0, #1
 80040b4:	f43f af45 	beq.w	8003f42 <_printf_float+0xb6>
 80040b8:	f04f 0900 	mov.w	r9, #0
 80040bc:	f108 38ff 	add.w	r8, r8, #4294967295
 80040c0:	f104 0a1a 	add.w	sl, r4, #26
 80040c4:	45c8      	cmp	r8, r9
 80040c6:	dc09      	bgt.n	80040dc <_printf_float+0x250>
 80040c8:	6823      	ldr	r3, [r4, #0]
 80040ca:	079b      	lsls	r3, r3, #30
 80040cc:	f100 8103 	bmi.w	80042d6 <_printf_float+0x44a>
 80040d0:	68e0      	ldr	r0, [r4, #12]
 80040d2:	9b0b      	ldr	r3, [sp, #44]	@ 0x2c
 80040d4:	4298      	cmp	r0, r3
 80040d6:	bfb8      	it	lt
 80040d8:	4618      	movlt	r0, r3
 80040da:	e734      	b.n	8003f46 <_printf_float+0xba>
 80040dc:	2301      	movs	r3, #1
 80040de:	4652      	mov	r2, sl
 80040e0:	4631      	mov	r1, r6
 80040e2:	4628      	mov	r0, r5
 80040e4:	47b8      	blx	r7
 80040e6:	3001      	adds	r0, #1
 80040e8:	f43f af2b 	beq.w	8003f42 <_printf_float+0xb6>
 80040ec:	f109 0901 	add.w	r9, r9, #1
 80040f0:	e7e8      	b.n	80040c4 <_printf_float+0x238>
 80040f2:	9b09      	ldr	r3, [sp, #36]	@ 0x24
 80040f4:	2b00      	cmp	r3, #0
 80040f6:	dc39      	bgt.n	800416c <_printf_float+0x2e0>
 80040f8:	4a1b      	ldr	r2, [pc, #108]	@ (8004168 <_printf_float+0x2dc>)
 80040fa:	2301      	movs	r3, #1
 80040fc:	4631      	mov	r1, r6
 80040fe:	4628      	mov	r0, r5
 8004100:	47b8      	blx	r7
 8004102:	3001      	adds	r0, #1
 8004104:	f43f af1d 	beq.w	8003f42 <_printf_float+0xb6>
 8004108:	e9dd 3909 	ldrd	r3, r9, [sp, #36]	@ 0x24
 800410c:	ea59 0303 	orrs.w	r3, r9, r3
 8004110:	d102      	bne.n	8004118 <_printf_float+0x28c>
 8004112:	6823      	ldr	r3, [r4, #0]
 8004114:	07d9      	lsls	r1, r3, #31
 8004116:	d5d7      	bpl.n	80040c8 <_printf_float+0x23c>
 8004118:	e9dd 2304 	ldrd	r2, r3, [sp, #16]
 800411c:	4631      	mov	r1, r6
 800411e:	4628      	mov	r0, r5
 8004120:	47b8      	blx	r7
 8004122:	3001      	adds	r0, #1
 8004124:	f43f af0d 	beq.w	8003f42 <_printf_float+0xb6>
 8004128:	f04f 0a00 	mov.w	sl, #0
 800412c:	f104 0b1a 	add.w	fp, r4, #26
 8004130:	9b09      	ldr	r3, [sp, #36]	@ 0x24
 8004132:	425b      	negs	r3, r3
 8004134:	4553      	cmp	r3, sl
 8004136:	dc01      	bgt.n	800413c <_printf_float+0x2b0>
 8004138:	464b      	mov	r3, r9
 800413a:	e793      	b.n	8004064 <_printf_float+0x1d8>
 800413c:	2301      	movs	r3, #1
 800413e:	465a      	mov	r2, fp
 8004140:	4631      	mov	r1, r6
 8004142:	4628      	mov	r0, r5
 8004144:	47b8      	blx	r7
 8004146:	3001      	adds	r0, #1
 8004148:	f43f aefb 	beq.w	8003f42 <_printf_float+0xb6>
 800414c:	f10a 0a01 	add.w	sl, sl, #1
 8004150:	e7ee      	b.n	8004130 <_printf_float+0x2a4>
 8004152:	bf00      	nop
 8004154:	7fefffff 	.word	0x7fefffff
 8004158:	08008474 	.word	0x08008474
 800415c:	08008470 	.word	0x08008470
 8004160:	0800847c 	.word	0x0800847c
 8004164:	08008478 	.word	0x08008478
 8004168:	08008480 	.word	0x08008480
 800416c:	6da3      	ldr	r3, [r4, #88]	@ 0x58
 800416e:	f8dd a028 	ldr.w	sl, [sp, #40]	@ 0x28
 8004172:	4553      	cmp	r3, sl
 8004174:	bfa8      	it	ge
 8004176:	4653      	movge	r3, sl
 8004178:	2b00      	cmp	r3, #0
 800417a:	4699      	mov	r9, r3
 800417c:	dc36      	bgt.n	80041ec <_printf_float+0x360>
 800417e:	f04f 0b00 	mov.w	fp, #0
 8004182:	ea29 79e9 	bic.w	r9, r9, r9, asr #31
 8004186:	f104 021a 	add.w	r2, r4, #26
 800418a:	6da3      	ldr	r3, [r4, #88]	@ 0x58
 800418c:	9306      	str	r3, [sp, #24]
 800418e:	eba3 0309 	sub.w	r3, r3, r9
 8004192:	455b      	cmp	r3, fp
 8004194:	dc31      	bgt.n	80041fa <_printf_float+0x36e>
 8004196:	9b09      	ldr	r3, [sp, #36]	@ 0x24
 8004198:	459a      	cmp	sl, r3
 800419a:	dc3a      	bgt.n	8004212 <_printf_float+0x386>
 800419c:	6823      	ldr	r3, [r4, #0]
 800419e:	07da      	lsls	r2, r3, #31
 80041a0:	d437      	bmi.n	8004212 <_printf_float+0x386>
 80041a2:	9b09      	ldr	r3, [sp, #36]	@ 0x24
 80041a4:	ebaa 0903 	sub.w	r9, sl, r3
 80041a8:	9b06      	ldr	r3, [sp, #24]
 80041aa:	ebaa 0303 	sub.w	r3, sl, r3
 80041ae:	4599      	cmp	r9, r3
 80041b0:	bfa8      	it	ge
 80041b2:	4699      	movge	r9, r3
 80041b4:	f1b9 0f00 	cmp.w	r9, #0
 80041b8:	dc33      	bgt.n	8004222 <_printf_float+0x396>
 80041ba:	f04f 0800 	mov.w	r8, #0
 80041be:	ea29 79e9 	bic.w	r9, r9, r9, asr #31
 80041c2:	f104 0b1a 	add.w	fp, r4, #26
 80041c6:	9b09      	ldr	r3, [sp, #36]	@ 0x24
 80041c8:	ebaa 0303 	sub.w	r3, sl, r3
 80041cc:	eba3 0309 	sub.w	r3, r3, r9
 80041d0:	4543      	cmp	r3, r8
 80041d2:	f77f af79 	ble.w	80040c8 <_printf_float+0x23c>
 80041d6:	2301      	movs	r3, #1
 80041d8:	465a      	mov	r2, fp
 80041da:	4631      	mov	r1, r6
 80041dc:	4628      	mov	r0, r5
 80041de:	47b8      	blx	r7
 80041e0:	3001      	adds	r0, #1
 80041e2:	f43f aeae 	beq.w	8003f42 <_printf_float+0xb6>
 80041e6:	f108 0801 	add.w	r8, r8, #1
 80041ea:	e7ec      	b.n	80041c6 <_printf_float+0x33a>
 80041ec:	4642      	mov	r2, r8
 80041ee:	4631      	mov	r1, r6
 80041f0:	4628      	mov	r0, r5
 80041f2:	47b8      	blx	r7
 80041f4:	3001      	adds	r0, #1
 80041f6:	d1c2      	bne.n	800417e <_printf_float+0x2f2>
 80041f8:	e6a3      	b.n	8003f42 <_printf_float+0xb6>
 80041fa:	2301      	movs	r3, #1
 80041fc:	4631      	mov	r1, r6
 80041fe:	4628      	mov	r0, r5
 8004200:	9206      	str	r2, [sp, #24]
 8004202:	47b8      	blx	r7
 8004204:	3001      	adds	r0, #1
 8004206:	f43f ae9c 	beq.w	8003f42 <_printf_float+0xb6>
 800420a:	9a06      	ldr	r2, [sp, #24]
 800420c:	f10b 0b01 	add.w	fp, fp, #1
 8004210:	e7bb      	b.n	800418a <_printf_float+0x2fe>
 8004212:	e9dd 2304 	ldrd	r2, r3, [sp, #16]
 8004216:	4631      	mov	r1, r6
 8004218:	4628      	mov	r0, r5
 800421a:	47b8      	blx	r7
 800421c:	3001      	adds	r0, #1
 800421e:	d1c0      	bne.n	80041a2 <_printf_float+0x316>
 8004220:	e68f      	b.n	8003f42 <_printf_float+0xb6>
 8004222:	9a06      	ldr	r2, [sp, #24]
 8004224:	464b      	mov	r3, r9
 8004226:	4442      	add	r2, r8
 8004228:	4631      	mov	r1, r6
 800422a:	4628      	mov	r0, r5
 800422c:	47b8      	blx	r7
 800422e:	3001      	adds	r0, #1
 8004230:	d1c3      	bne.n	80041ba <_printf_float+0x32e>
 8004232:	e686      	b.n	8003f42 <_printf_float+0xb6>
 8004234:	f8dd a028 	ldr.w	sl, [sp, #40]	@ 0x28
 8004238:	f1ba 0f01 	cmp.w	sl, #1
 800423c:	dc01      	bgt.n	8004242 <_printf_float+0x3b6>
 800423e:	07db      	lsls	r3, r3, #31
 8004240:	d536      	bpl.n	80042b0 <_printf_float+0x424>
 8004242:	2301      	movs	r3, #1
 8004244:	4642      	mov	r2, r8
 8004246:	4631      	mov	r1, r6
 8004248:	4628      	mov	r0, r5
 800424a:	47b8      	blx	r7
 800424c:	3001      	adds	r0, #1
 800424e:	f43f ae78 	beq.w	8003f42 <_printf_float+0xb6>
 8004252:	e9dd 2304 	ldrd	r2, r3, [sp, #16]
 8004256:	4631      	mov	r1, r6
 8004258:	4628      	mov	r0, r5
 800425a:	47b8      	blx	r7
 800425c:	3001      	adds	r0, #1
 800425e:	f43f ae70 	beq.w	8003f42 <_printf_float+0xb6>
 8004262:	e9d4 0112 	ldrd	r0, r1, [r4, #72]	@ 0x48
 8004266:	2200      	movs	r2, #0
 8004268:	2300      	movs	r3, #0
 800426a:	f10a 3aff 	add.w	sl, sl, #4294967295
 800426e:	f7fc fc53 	bl	8000b18 <__aeabi_dcmpeq>
 8004272:	b9c0      	cbnz	r0, 80042a6 <_printf_float+0x41a>
 8004274:	4653      	mov	r3, sl
 8004276:	f108 0201 	add.w	r2, r8, #1
 800427a:	4631      	mov	r1, r6
 800427c:	4628      	mov	r0, r5
 800427e:	47b8      	blx	r7
 8004280:	3001      	adds	r0, #1
 8004282:	d10c      	bne.n	800429e <_printf_float+0x412>
 8004284:	e65d      	b.n	8003f42 <_printf_float+0xb6>
 8004286:	2301      	movs	r3, #1
 8004288:	465a      	mov	r2, fp
 800428a:	4631      	mov	r1, r6
 800428c:	4628      	mov	r0, r5
 800428e:	47b8      	blx	r7
 8004290:	3001      	adds	r0, #1
 8004292:	f43f ae56 	beq.w	8003f42 <_printf_float+0xb6>
 8004296:	f108 0801 	add.w	r8, r8, #1
 800429a:	45d0      	cmp	r8, sl
 800429c:	dbf3      	blt.n	8004286 <_printf_float+0x3fa>
 800429e:	464b      	mov	r3, r9
 80042a0:	f104 0250 	add.w	r2, r4, #80	@ 0x50
 80042a4:	e6df      	b.n	8004066 <_printf_float+0x1da>
 80042a6:	f04f 0800 	mov.w	r8, #0
 80042aa:	f104 0b1a 	add.w	fp, r4, #26
 80042ae:	e7f4      	b.n	800429a <_printf_float+0x40e>
 80042b0:	2301      	movs	r3, #1
 80042b2:	4642      	mov	r2, r8
 80042b4:	e7e1      	b.n	800427a <_printf_float+0x3ee>
 80042b6:	2301      	movs	r3, #1
 80042b8:	464a      	mov	r2, r9
 80042ba:	4631      	mov	r1, r6
 80042bc:	4628      	mov	r0, r5
 80042be:	47b8      	blx	r7
 80042c0:	3001      	adds	r0, #1
 80042c2:	f43f ae3e 	beq.w	8003f42 <_printf_float+0xb6>
 80042c6:	f108 0801 	add.w	r8, r8, #1
 80042ca:	68e3      	ldr	r3, [r4, #12]
 80042cc:	990b      	ldr	r1, [sp, #44]	@ 0x2c
 80042ce:	1a5b      	subs	r3, r3, r1
 80042d0:	4543      	cmp	r3, r8
 80042d2:	dcf0      	bgt.n	80042b6 <_printf_float+0x42a>
 80042d4:	e6fc      	b.n	80040d0 <_printf_float+0x244>
 80042d6:	f04f 0800 	mov.w	r8, #0
 80042da:	f104 0919 	add.w	r9, r4, #25
 80042de:	e7f4      	b.n	80042ca <_printf_float+0x43e>

080042e0 <_printf_common>:
 80042e0:	e92d 47f0 	stmdb	sp!, {r4, r5, r6, r7, r8, r9, sl, lr}
 80042e4:	4616      	mov	r6, r2
 80042e6:	4698      	mov	r8, r3
 80042e8:	688a      	ldr	r2, [r1, #8]
 80042ea:	690b      	ldr	r3, [r1, #16]
 80042ec:	f8dd 9020 	ldr.w	r9, [sp, #32]
 80042f0:	4293      	cmp	r3, r2
 80042f2:	bfb8      	it	lt
 80042f4:	4613      	movlt	r3, r2
 80042f6:	6033      	str	r3, [r6, #0]
 80042f8:	f891 2043 	ldrb.w	r2, [r1, #67]	@ 0x43
 80042fc:	4607      	mov	r7, r0
 80042fe:	460c      	mov	r4, r1
 8004300:	b10a      	cbz	r2, 8004306 <_printf_common+0x26>
 8004302:	3301      	adds	r3, #1
 8004304:	6033      	str	r3, [r6, #0]
 8004306:	6823      	ldr	r3, [r4, #0]
 8004308:	0699      	lsls	r1, r3, #26
 800430a:	bf42      	ittt	mi
 800430c:	6833      	ldrmi	r3, [r6, #0]
 800430e:	3302      	addmi	r3, #2
 8004310:	6033      	strmi	r3, [r6, #0]
 8004312:	6825      	ldr	r5, [r4, #0]
 8004314:	f015 0506 	ands.w	r5, r5, #6
 8004318:	d106      	bne.n	8004328 <_printf_common+0x48>
 800431a:	f104 0a19 	add.w	sl, r4, #25
 800431e:	68e3      	ldr	r3, [r4, #12]
 8004320:	6832      	ldr	r2, [r6, #0]
 8004322:	1a9b      	subs	r3, r3, r2
 8004324:	42ab      	cmp	r3, r5
 8004326:	dc26      	bgt.n	8004376 <_printf_common+0x96>
 8004328:	f894 3043 	ldrb.w	r3, [r4, #67]	@ 0x43
 800432c:	6822      	ldr	r2, [r4, #0]
 800432e:	3b00      	subs	r3, #0
 8004330:	bf18      	it	ne
 8004332:	2301      	movne	r3, #1
 8004334:	0692      	lsls	r2, r2, #26
 8004336:	d42b      	bmi.n	8004390 <_printf_common+0xb0>
 8004338:	f104 0243 	add.w	r2, r4, #67	@ 0x43
 800433c:	4641      	mov	r1, r8
 800433e:	4638      	mov	r0, r7
 8004340:	47c8      	blx	r9
 8004342:	3001      	adds	r0, #1
 8004344:	d01e      	beq.n	8004384 <_printf_common+0xa4>
 8004346:	6823      	ldr	r3, [r4, #0]
 8004348:	6922      	ldr	r2, [r4, #16]
 800434a:	f003 0306 	and.w	r3, r3, #6
 800434e:	2b04      	cmp	r3, #4
 8004350:	bf02      	ittt	eq
 8004352:	68e5      	ldreq	r5, [r4, #12]
 8004354:	6833      	ldreq	r3, [r6, #0]
 8004356:	1aed      	subeq	r5, r5, r3
 8004358:	68a3      	ldr	r3, [r4, #8]
 800435a:	bf0c      	ite	eq
 800435c:	ea25 75e5 	biceq.w	r5, r5, r5, asr #31
 8004360:	2500      	movne	r5, #0
 8004362:	4293      	cmp	r3, r2
 8004364:	bfc4      	itt	gt
 8004366:	1a9b      	subgt	r3, r3, r2
 8004368:	18ed      	addgt	r5, r5, r3
 800436a:	2600      	movs	r6, #0
 800436c:	341a      	adds	r4, #26
 800436e:	42b5      	cmp	r5, r6
 8004370:	d11a      	bne.n	80043a8 <_printf_common+0xc8>
 8004372:	2000      	movs	r0, #0
 8004374:	e008      	b.n	8004388 <_printf_common+0xa8>
 8004376:	2301      	movs	r3, #1
 8004378:	4652      	mov	r2, sl
 800437a:	4641      	mov	r1, r8
 800437c:	4638      	mov	r0, r7
 800437e:	47c8      	blx	r9
 8004380:	3001      	adds	r0, #1
 8004382:	d103      	bne.n	800438c <_printf_common+0xac>
 8004384:	f04f 30ff 	mov.w	r0, #4294967295
 8004388:	e8bd 87f0 	ldmia.w	sp!, {r4, r5, r6, r7, r8, r9, sl, pc}
 800438c:	3501      	adds	r5, #1
 800438e:	e7c6      	b.n	800431e <_printf_common+0x3e>
 8004390:	18e1      	adds	r1, r4, r3
 8004392:	1c5a      	adds	r2, r3, #1
 8004394:	2030      	movs	r0, #48	@ 0x30
 8004396:	f881 0043 	strb.w	r0, [r1, #67]	@ 0x43
 800439a:	4422      	add	r2, r4
 800439c:	f894 1045 	ldrb.w	r1, [r4, #69]	@ 0x45
 80043a0:	f882 1043 	strb.w	r1, [r2, #67]	@ 0x43
 80043a4:	3302      	adds	r3, #2
 80043a6:	e7c7      	b.n	8004338 <_printf_common+0x58>
 80043a8:	2301      	movs	r3, #1
 80043aa:	4622      	mov	r2, r4
 80043ac:	4641      	mov	r1, r8
 80043ae:	4638      	mov	r0, r7
 80043b0:	47c8      	blx	r9
 80043b2:	3001      	adds	r0, #1
 80043b4:	d0e6      	beq.n	8004384 <_printf_common+0xa4>
 80043b6:	3601      	adds	r6, #1
 80043b8:	e7d9      	b.n	800436e <_printf_common+0x8e>
	...

080043bc <_printf_i>:
 80043bc:	e92d 47ff 	stmdb	sp!, {r0, r1, r2, r3, r4, r5, r6, r7, r8, r9, sl, lr}
 80043c0:	7e0f      	ldrb	r7, [r1, #24]
 80043c2:	9e0c      	ldr	r6, [sp, #48]	@ 0x30
 80043c4:	2f78      	cmp	r7, #120	@ 0x78
 80043c6:	4691      	mov	r9, r2
 80043c8:	4680      	mov	r8, r0
 80043ca:	460c      	mov	r4, r1
 80043cc:	469a      	mov	sl, r3
 80043ce:	f101 0243 	add.w	r2, r1, #67	@ 0x43
 80043d2:	d807      	bhi.n	80043e4 <_printf_i+0x28>
 80043d4:	2f62      	cmp	r7, #98	@ 0x62
 80043d6:	d80a      	bhi.n	80043ee <_printf_i+0x32>
 80043d8:	2f00      	cmp	r7, #0
 80043da:	f000 80d1 	beq.w	8004580 <_printf_i+0x1c4>
 80043de:	2f58      	cmp	r7, #88	@ 0x58
 80043e0:	f000 80b8 	beq.w	8004554 <_printf_i+0x198>
 80043e4:	f104 0642 	add.w	r6, r4, #66	@ 0x42
 80043e8:	f884 7042 	strb.w	r7, [r4, #66]	@ 0x42
 80043ec:	e03a      	b.n	8004464 <_printf_i+0xa8>
 80043ee:	f1a7 0363 	sub.w	r3, r7, #99	@ 0x63
 80043f2:	2b15      	cmp	r3, #21
 80043f4:	d8f6      	bhi.n	80043e4 <_printf_i+0x28>
 80043f6:	a101      	add	r1, pc, #4	@ (adr r1, 80043fc <_printf_i+0x40>)
 80043f8:	f851 f023 	ldr.w	pc, [r1, r3, lsl #2]
 80043fc:	08004455 	.word	0x08004455
 8004400:	08004469 	.word	0x08004469
 8004404:	080043e5 	.word	0x080043e5
 8004408:	080043e5 	.word	0x080043e5
 800440c:	080043e5 	.word	0x080043e5
 8004410:	080043e5 	.word	0x080043e5
 8004414:	08004469 	.word	0x08004469
 8004418:	080043e5 	.word	0x080043e5
 800441c:	080043e5 	.word	0x080043e5
 8004420:	080043e5 	.word	0x080043e5
 8004424:	080043e5 	.word	0x080043e5
 8004428:	08004567 	.word	0x08004567
 800442c:	08004493 	.word	0x08004493
 8004430:	08004521 	.word	0x08004521
 8004434:	080043e5 	.word	0x080043e5
 8004438:	080043e5 	.word	0x080043e5
 800443c:	08004589 	.word	0x08004589
 8004440:	080043e5 	.word	0x080043e5
 8004444:	08004493 	.word	0x08004493
 8004448:	080043e5 	.word	0x080043e5
 800444c:	080043e5 	.word	0x080043e5
 8004450:	08004529 	.word	0x08004529
 8004454:	6833      	ldr	r3, [r6, #0]
 8004456:	1d1a      	adds	r2, r3, #4
 8004458:	681b      	ldr	r3, [r3, #0]
 800445a:	6032      	str	r2, [r6, #0]
 800445c:	f104 0642 	add.w	r6, r4, #66	@ 0x42
 8004460:	f884 3042 	strb.w	r3, [r4, #66]	@ 0x42
 8004464:	2301      	movs	r3, #1
 8004466:	e09c      	b.n	80045a2 <_printf_i+0x1e6>
 8004468:	6833      	ldr	r3, [r6, #0]
 800446a:	6820      	ldr	r0, [r4, #0]
 800446c:	1d19      	adds	r1, r3, #4
 800446e:	6031      	str	r1, [r6, #0]
 8004470:	0606      	lsls	r6, r0, #24
 8004472:	d501      	bpl.n	8004478 <_printf_i+0xbc>
 8004474:	681d      	ldr	r5, [r3, #0]
 8004476:	e003      	b.n	8004480 <_printf_i+0xc4>
 8004478:	0645      	lsls	r5, r0, #25
 800447a:	d5fb      	bpl.n	8004474 <_printf_i+0xb8>
 800447c:	f9b3 5000 	ldrsh.w	r5, [r3]
 8004480:	2d00      	cmp	r5, #0
 8004482:	da03      	bge.n	800448c <_printf_i+0xd0>
 8004484:	232d      	movs	r3, #45	@ 0x2d
 8004486:	426d      	negs	r5, r5
 8004488:	f884 3043 	strb.w	r3, [r4, #67]	@ 0x43
 800448c:	4858      	ldr	r0, [pc, #352]	@ (80045f0 <_printf_i+0x234>)
 800448e:	230a      	movs	r3, #10
 8004490:	e011      	b.n	80044b6 <_printf_i+0xfa>
 8004492:	6821      	ldr	r1, [r4, #0]
 8004494:	6833      	ldr	r3, [r6, #0]
 8004496:	0608      	lsls	r0, r1, #24
 8004498:	f853 5b04 	ldr.w	r5, [r3], #4
 800449c:	d402      	bmi.n	80044a4 <_printf_i+0xe8>
 800449e:	0649      	lsls	r1, r1, #25
 80044a0:	bf48      	it	mi
 80044a2:	b2ad      	uxthmi	r5, r5
 80044a4:	2f6f      	cmp	r7, #111	@ 0x6f
 80044a6:	4852      	ldr	r0, [pc, #328]	@ (80045f0 <_printf_i+0x234>)
 80044a8:	6033      	str	r3, [r6, #0]
 80044aa:	bf14      	ite	ne
 80044ac:	230a      	movne	r3, #10
 80044ae:	2308      	moveq	r3, #8
 80044b0:	2100      	movs	r1, #0
 80044b2:	f884 1043 	strb.w	r1, [r4, #67]	@ 0x43
 80044b6:	6866      	ldr	r6, [r4, #4]
 80044b8:	60a6      	str	r6, [r4, #8]
 80044ba:	2e00      	cmp	r6, #0
 80044bc:	db05      	blt.n	80044ca <_printf_i+0x10e>
 80044be:	6821      	ldr	r1, [r4, #0]
 80044c0:	432e      	orrs	r6, r5
 80044c2:	f021 0104 	bic.w	r1, r1, #4
 80044c6:	6021      	str	r1, [r4, #0]
 80044c8:	d04b      	beq.n	8004562 <_printf_i+0x1a6>
 80044ca:	4616      	mov	r6, r2
 80044cc:	fbb5 f1f3 	udiv	r1, r5, r3
 80044d0:	fb03 5711 	mls	r7, r3, r1, r5
 80044d4:	5dc7      	ldrb	r7, [r0, r7]
 80044d6:	f806 7d01 	strb.w	r7, [r6, #-1]!
 80044da:	462f      	mov	r7, r5
 80044dc:	42bb      	cmp	r3, r7
 80044de:	460d      	mov	r5, r1
 80044e0:	d9f4      	bls.n	80044cc <_printf_i+0x110>
 80044e2:	2b08      	cmp	r3, #8
 80044e4:	d10b      	bne.n	80044fe <_printf_i+0x142>
 80044e6:	6823      	ldr	r3, [r4, #0]
 80044e8:	07df      	lsls	r7, r3, #31
 80044ea:	d508      	bpl.n	80044fe <_printf_i+0x142>
 80044ec:	6923      	ldr	r3, [r4, #16]
 80044ee:	6861      	ldr	r1, [r4, #4]
 80044f0:	4299      	cmp	r1, r3
 80044f2:	bfde      	ittt	le
 80044f4:	2330      	movle	r3, #48	@ 0x30
 80044f6:	f806 3c01 	strble.w	r3, [r6, #-1]
 80044fa:	f106 36ff 	addle.w	r6, r6, #4294967295
 80044fe:	1b92      	subs	r2, r2, r6
 8004500:	6122      	str	r2, [r4, #16]
 8004502:	f8cd a000 	str.w	sl, [sp]
 8004506:	464b      	mov	r3, r9
 8004508:	aa03      	add	r2, sp, #12
 800450a:	4621      	mov	r1, r4
 800450c:	4640      	mov	r0, r8
 800450e:	f7ff fee7 	bl	80042e0 <_printf_common>
 8004512:	3001      	adds	r0, #1
 8004514:	d14a      	bne.n	80045ac <_printf_i+0x1f0>
 8004516:	f04f 30ff 	mov.w	r0, #4294967295
 800451a:	b004      	add	sp, #16
 800451c:	e8bd 87f0 	ldmia.w	sp!, {r4, r5, r6, r7, r8, r9, sl, pc}
 8004520:	6823      	ldr	r3, [r4, #0]
 8004522:	f043 0320 	orr.w	r3, r3, #32
 8004526:	6023      	str	r3, [r4, #0]
 8004528:	4832      	ldr	r0, [pc, #200]	@ (80045f4 <_printf_i+0x238>)
 800452a:	2778      	movs	r7, #120	@ 0x78
 800452c:	f884 7045 	strb.w	r7, [r4, #69]	@ 0x45
 8004530:	6823      	ldr	r3, [r4, #0]
 8004532:	6831      	ldr	r1, [r6, #0]
 8004534:	061f      	lsls	r7, r3, #24
 8004536:	f851 5b04 	ldr.w	r5, [r1], #4
 800453a:	d402      	bmi.n	8004542 <_printf_i+0x186>
 800453c:	065f      	lsls	r7, r3, #25
 800453e:	bf48      	it	mi
 8004540:	b2ad      	uxthmi	r5, r5
 8004542:	6031      	str	r1, [r6, #0]
 8004544:	07d9      	lsls	r1, r3, #31
 8004546:	bf44      	itt	mi
 8004548:	f043 0320 	orrmi.w	r3, r3, #32
 800454c:	6023      	strmi	r3, [r4, #0]
 800454e:	b11d      	cbz	r5, 8004558 <_printf_i+0x19c>
 8004550:	2310      	movs	r3, #16
 8004552:	e7ad      	b.n	80044b0 <_printf_i+0xf4>
 8004554:	4826      	ldr	r0, [pc, #152]	@ (80045f0 <_printf_i+0x234>)
 8004556:	e7e9      	b.n	800452c <_printf_i+0x170>
 8004558:	6823      	ldr	r3, [r4, #0]
 800455a:	f023 0320 	bic.w	r3, r3, #32
 800455e:	6023      	str	r3, [r4, #0]
 8004560:	e7f6      	b.n	8004550 <_printf_i+0x194>
 8004562:	4616      	mov	r6, r2
 8004564:	e7bd      	b.n	80044e2 <_printf_i+0x126>
 8004566:	6833      	ldr	r3, [r6, #0]
 8004568:	6825      	ldr	r5, [r4, #0]
 800456a:	6961      	ldr	r1, [r4, #20]
 800456c:	1d18      	adds	r0, r3, #4
 800456e:	6030      	str	r0, [r6, #0]
 8004570:	062e      	lsls	r6, r5, #24
 8004572:	681b      	ldr	r3, [r3, #0]
 8004574:	d501      	bpl.n	800457a <_printf_i+0x1be>
 8004576:	6019      	str	r1, [r3, #0]
 8004578:	e002      	b.n	8004580 <_printf_i+0x1c4>
 800457a:	0668      	lsls	r0, r5, #25
 800457c:	d5fb      	bpl.n	8004576 <_printf_i+0x1ba>
 800457e:	8019      	strh	r1, [r3, #0]
 8004580:	2300      	movs	r3, #0
 8004582:	6123      	str	r3, [r4, #16]
 8004584:	4616      	mov	r6, r2
 8004586:	e7bc      	b.n	8004502 <_printf_i+0x146>
 8004588:	6833      	ldr	r3, [r6, #0]
 800458a:	1d1a      	adds	r2, r3, #4
 800458c:	6032      	str	r2, [r6, #0]
 800458e:	681e      	ldr	r6, [r3, #0]
 8004590:	6862      	ldr	r2, [r4, #4]
 8004592:	2100      	movs	r1, #0
 8004594:	4630      	mov	r0, r6
 8004596:	f7fb fe43 	bl	8000220 <memchr>
 800459a:	b108      	cbz	r0, 80045a0 <_printf_i+0x1e4>
 800459c:	1b80      	subs	r0, r0, r6
 800459e:	6060      	str	r0, [r4, #4]
 80045a0:	6863      	ldr	r3, [r4, #4]
 80045a2:	6123      	str	r3, [r4, #16]
 80045a4:	2300      	movs	r3, #0
 80045a6:	f884 3043 	strb.w	r3, [r4, #67]	@ 0x43
 80045aa:	e7aa      	b.n	8004502 <_printf_i+0x146>
 80045ac:	6923      	ldr	r3, [r4, #16]
 80045ae:	4632      	mov	r2, r6
 80045b0:	4649      	mov	r1, r9
 80045b2:	4640      	mov	r0, r8
 80045b4:	47d0      	blx	sl
 80045b6:	3001      	adds	r0, #1
 80045b8:	d0ad      	beq.n	8004516 <_printf_i+0x15a>
 80045ba:	6823      	ldr	r3, [r4, #0]
 80045bc:	079b      	lsls	r3, r3, #30
 80045be:	d413      	bmi.n	80045e8 <_printf_i+0x22c>
 80045c0:	68e0      	ldr	r0, [r4, #12]
 80045c2:	9b03      	ldr	r3, [sp, #12]
 80045c4:	4298      	cmp	r0, r3
 80045c6:	bfb8      	it	lt
 80045c8:	4618      	movlt	r0, r3
 80045ca:	e7a6      	b.n	800451a <_printf_i+0x15e>
 80045cc:	2301      	movs	r3, #1
 80045ce:	4632      	mov	r2, r6
 80045d0:	4649      	mov	r1, r9
 80045d2:	4640      	mov	r0, r8
 80045d4:	47d0      	blx	sl
 80045d6:	3001      	adds	r0, #1
 80045d8:	d09d      	beq.n	8004516 <_printf_i+0x15a>
 80045da:	3501      	adds	r5, #1
 80045dc:	68e3      	ldr	r3, [r4, #12]
 80045de:	9903      	ldr	r1, [sp, #12]
 80045e0:	1a5b      	subs	r3, r3, r1
 80045e2:	42ab      	cmp	r3, r5
 80045e4:	dcf2      	bgt.n	80045cc <_printf_i+0x210>
 80045e6:	e7eb      	b.n	80045c0 <_printf_i+0x204>
 80045e8:	2500      	movs	r5, #0
 80045ea:	f104 0619 	add.w	r6, r4, #25
 80045ee:	e7f5      	b.n	80045dc <_printf_i+0x220>
 80045f0:	08008482 	.word	0x08008482
 80045f4:	08008493 	.word	0x08008493

080045f8 <_scanf_float>:
 80045f8:	e92d 4ff0 	stmdb	sp!, {r4, r5, r6, r7, r8, r9, sl, fp, lr}
 80045fc:	b087      	sub	sp, #28
 80045fe:	4691      	mov	r9, r2
 8004600:	9303      	str	r3, [sp, #12]
 8004602:	688b      	ldr	r3, [r1, #8]
 8004604:	1e5a      	subs	r2, r3, #1
 8004606:	f5b2 7fae 	cmp.w	r2, #348	@ 0x15c
 800460a:	bf81      	itttt	hi
 800460c:	f46f 75ae 	mvnhi.w	r5, #348	@ 0x15c
 8004610:	eb03 0b05 	addhi.w	fp, r3, r5
 8004614:	f240 135d 	movwhi	r3, #349	@ 0x15d
 8004618:	608b      	strhi	r3, [r1, #8]
 800461a:	680b      	ldr	r3, [r1, #0]
 800461c:	460a      	mov	r2, r1
 800461e:	f04f 0500 	mov.w	r5, #0
 8004622:	f443 63f0 	orr.w	r3, r3, #1920	@ 0x780
 8004626:	f842 3b1c 	str.w	r3, [r2], #28
 800462a:	e9cd 5504 	strd	r5, r5, [sp, #16]
 800462e:	4680      	mov	r8, r0
 8004630:	460c      	mov	r4, r1
 8004632:	bf98      	it	ls
 8004634:	f04f 0b00 	movls.w	fp, #0
 8004638:	9201      	str	r2, [sp, #4]
 800463a:	4616      	mov	r6, r2
 800463c:	46aa      	mov	sl, r5
 800463e:	462f      	mov	r7, r5
 8004640:	9502      	str	r5, [sp, #8]
 8004642:	68a2      	ldr	r2, [r4, #8]
 8004644:	b15a      	cbz	r2, 800465e <_scanf_float+0x66>
 8004646:	f8d9 3000 	ldr.w	r3, [r9]
 800464a:	781b      	ldrb	r3, [r3, #0]
 800464c:	2b4e      	cmp	r3, #78	@ 0x4e
 800464e:	d863      	bhi.n	8004718 <_scanf_float+0x120>
 8004650:	2b40      	cmp	r3, #64	@ 0x40
 8004652:	d83b      	bhi.n	80046cc <_scanf_float+0xd4>
 8004654:	f1a3 012b 	sub.w	r1, r3, #43	@ 0x2b
 8004658:	b2c8      	uxtb	r0, r1
 800465a:	280e      	cmp	r0, #14
 800465c:	d939      	bls.n	80046d2 <_scanf_float+0xda>
 800465e:	b11f      	cbz	r7, 8004668 <_scanf_float+0x70>
 8004660:	6823      	ldr	r3, [r4, #0]
 8004662:	f423 7380 	bic.w	r3, r3, #256	@ 0x100
 8004666:	6023      	str	r3, [r4, #0]
 8004668:	f10a 3aff 	add.w	sl, sl, #4294967295
 800466c:	f1ba 0f01 	cmp.w	sl, #1
 8004670:	f200 8114 	bhi.w	800489c <_scanf_float+0x2a4>
 8004674:	9b01      	ldr	r3, [sp, #4]
 8004676:	429e      	cmp	r6, r3
 8004678:	f200 8105 	bhi.w	8004886 <_scanf_float+0x28e>
 800467c:	2001      	movs	r0, #1
 800467e:	b007      	add	sp, #28
 8004680:	e8bd 8ff0 	ldmia.w	sp!, {r4, r5, r6, r7, r8, r9, sl, fp, pc}
 8004684:	f1a3 0261 	sub.w	r2, r3, #97	@ 0x61
 8004688:	2a0d      	cmp	r2, #13
 800468a:	d8e8      	bhi.n	800465e <_scanf_float+0x66>
 800468c:	a101      	add	r1, pc, #4	@ (adr r1, 8004694 <_scanf_float+0x9c>)
 800468e:	f851 f022 	ldr.w	pc, [r1, r2, lsl #2]
 8004692:	bf00      	nop
 8004694:	080047dd 	.word	0x080047dd
 8004698:	0800465f 	.word	0x0800465f
 800469c:	0800465f 	.word	0x0800465f
 80046a0:	0800465f 	.word	0x0800465f
 80046a4:	08004839 	.word	0x08004839
 80046a8:	08004813 	.word	0x08004813
 80046ac:	0800465f 	.word	0x0800465f
 80046b0:	0800465f 	.word	0x0800465f
 80046b4:	080047eb 	.word	0x080047eb
 80046b8:	0800465f 	.word	0x0800465f
 80046bc:	0800465f 	.word	0x0800465f
 80046c0:	0800465f 	.word	0x0800465f
 80046c4:	0800465f 	.word	0x0800465f
 80046c8:	080047a7 	.word	0x080047a7
 80046cc:	f1a3 0241 	sub.w	r2, r3, #65	@ 0x41
 80046d0:	e7da      	b.n	8004688 <_scanf_float+0x90>
 80046d2:	290e      	cmp	r1, #14
 80046d4:	d8c3      	bhi.n	800465e <_scanf_float+0x66>
 80046d6:	a001      	add	r0, pc, #4	@ (adr r0, 80046dc <_scanf_float+0xe4>)
 80046d8:	f850 f021 	ldr.w	pc, [r0, r1, lsl #2]
 80046dc:	08004797 	.word	0x08004797
 80046e0:	0800465f 	.word	0x0800465f
 80046e4:	08004797 	.word	0x08004797
 80046e8:	08004827 	.word	0x08004827
 80046ec:	0800465f 	.word	0x0800465f
 80046f0:	08004739 	.word	0x08004739
 80046f4:	0800477d 	.word	0x0800477d
 80046f8:	0800477d 	.word	0x0800477d
 80046fc:	0800477d 	.word	0x0800477d
 8004700:	0800477d 	.word	0x0800477d
 8004704:	0800477d 	.word	0x0800477d
 8004708:	0800477d 	.word	0x0800477d
 800470c:	0800477d 	.word	0x0800477d
 8004710:	0800477d 	.word	0x0800477d
 8004714:	0800477d 	.word	0x0800477d
 8004718:	2b6e      	cmp	r3, #110	@ 0x6e
 800471a:	d809      	bhi.n	8004730 <_scanf_float+0x138>
 800471c:	2b60      	cmp	r3, #96	@ 0x60
 800471e:	d8b1      	bhi.n	8004684 <_scanf_float+0x8c>
 8004720:	2b54      	cmp	r3, #84	@ 0x54
 8004722:	d07b      	beq.n	800481c <_scanf_float+0x224>
 8004724:	2b59      	cmp	r3, #89	@ 0x59
 8004726:	d19a      	bne.n	800465e <_scanf_float+0x66>
 8004728:	2d07      	cmp	r5, #7
 800472a:	d198      	bne.n	800465e <_scanf_float+0x66>
 800472c:	2508      	movs	r5, #8
 800472e:	e02f      	b.n	8004790 <_scanf_float+0x198>
 8004730:	2b74      	cmp	r3, #116	@ 0x74
 8004732:	d073      	beq.n	800481c <_scanf_float+0x224>
 8004734:	2b79      	cmp	r3, #121	@ 0x79
 8004736:	e7f6      	b.n	8004726 <_scanf_float+0x12e>
 8004738:	6821      	ldr	r1, [r4, #0]
 800473a:	05c8      	lsls	r0, r1, #23
 800473c:	d51e      	bpl.n	800477c <_scanf_float+0x184>
 800473e:	f021 0180 	bic.w	r1, r1, #128	@ 0x80
 8004742:	6021      	str	r1, [r4, #0]
 8004744:	3701      	adds	r7, #1
 8004746:	f1bb 0f00 	cmp.w	fp, #0
 800474a:	d003      	beq.n	8004754 <_scanf_float+0x15c>
 800474c:	3201      	adds	r2, #1
 800474e:	f10b 3bff 	add.w	fp, fp, #4294967295
 8004752:	60a2      	str	r2, [r4, #8]
 8004754:	68a3      	ldr	r3, [r4, #8]
 8004756:	3b01      	subs	r3, #1
 8004758:	60a3      	str	r3, [r4, #8]
 800475a:	6923      	ldr	r3, [r4, #16]
 800475c:	3301      	adds	r3, #1
 800475e:	6123      	str	r3, [r4, #16]
 8004760:	f8d9 3004 	ldr.w	r3, [r9, #4]
 8004764:	3b01      	subs	r3, #1
 8004766:	2b00      	cmp	r3, #0
 8004768:	f8c9 3004 	str.w	r3, [r9, #4]
 800476c:	f340 8082 	ble.w	8004874 <_scanf_float+0x27c>
 8004770:	f8d9 3000 	ldr.w	r3, [r9]
 8004774:	3301      	adds	r3, #1
 8004776:	f8c9 3000 	str.w	r3, [r9]
 800477a:	e762      	b.n	8004642 <_scanf_float+0x4a>
 800477c:	eb1a 0105 	adds.w	r1, sl, r5
 8004780:	f47f af6d 	bne.w	800465e <_scanf_float+0x66>
 8004784:	6822      	ldr	r2, [r4, #0]
 8004786:	f422 72c0 	bic.w	r2, r2, #384	@ 0x180
 800478a:	6022      	str	r2, [r4, #0]
 800478c:	460d      	mov	r5, r1
 800478e:	468a      	mov	sl, r1
 8004790:	f806 3b01 	strb.w	r3, [r6], #1
 8004794:	e7de      	b.n	8004754 <_scanf_float+0x15c>
 8004796:	6822      	ldr	r2, [r4, #0]
 8004798:	0610      	lsls	r0, r2, #24
 800479a:	f57f af60 	bpl.w	800465e <_scanf_float+0x66>
 800479e:	f022 0280 	bic.w	r2, r2, #128	@ 0x80
 80047a2:	6022      	str	r2, [r4, #0]
 80047a4:	e7f4      	b.n	8004790 <_scanf_float+0x198>
 80047a6:	f1ba 0f00 	cmp.w	sl, #0
 80047aa:	d10c      	bne.n	80047c6 <_scanf_float+0x1ce>
 80047ac:	b977      	cbnz	r7, 80047cc <_scanf_float+0x1d4>
 80047ae:	6822      	ldr	r2, [r4, #0]
 80047b0:	f402 61e0 	and.w	r1, r2, #1792	@ 0x700
 80047b4:	f5b1 6fe0 	cmp.w	r1, #1792	@ 0x700
 80047b8:	d108      	bne.n	80047cc <_scanf_float+0x1d4>
 80047ba:	f422 62f0 	bic.w	r2, r2, #1920	@ 0x780
 80047be:	6022      	str	r2, [r4, #0]
 80047c0:	f04f 0a01 	mov.w	sl, #1
 80047c4:	e7e4      	b.n	8004790 <_scanf_float+0x198>
 80047c6:	f1ba 0f02 	cmp.w	sl, #2
 80047ca:	d050      	beq.n	800486e <_scanf_float+0x276>
 80047cc:	2d01      	cmp	r5, #1
 80047ce:	d002      	beq.n	80047d6 <_scanf_float+0x1de>
 80047d0:	2d04      	cmp	r5, #4
 80047d2:	f47f af44 	bne.w	800465e <_scanf_float+0x66>
 80047d6:	3501      	adds	r5, #1
 80047d8:	b2ed      	uxtb	r5, r5
 80047da:	e7d9      	b.n	8004790 <_scanf_float+0x198>
 80047dc:	f1ba 0f01 	cmp.w	sl, #1
 80047e0:	f47f af3d 	bne.w	800465e <_scanf_float+0x66>
 80047e4:	f04f 0a02 	mov.w	sl, #2
 80047e8:	e7d2      	b.n	8004790 <_scanf_float+0x198>
 80047ea:	b975      	cbnz	r5, 800480a <_scanf_float+0x212>
 80047ec:	2f00      	cmp	r7, #0
 80047ee:	f47f af37 	bne.w	8004660 <_scanf_float+0x68>
 80047f2:	6822      	ldr	r2, [r4, #0]
 80047f4:	f402 61e0 	and.w	r1, r2, #1792	@ 0x700
 80047f8:	f5b1 6fe0 	cmp.w	r1, #1792	@ 0x700
 80047fc:	f040 8103 	bne.w	8004a06 <_scanf_float+0x40e>
 8004800:	f422 62f0 	bic.w	r2, r2, #1920	@ 0x780
 8004804:	6022      	str	r2, [r4, #0]
 8004806:	2501      	movs	r5, #1
 8004808:	e7c2      	b.n	8004790 <_scanf_float+0x198>
 800480a:	2d03      	cmp	r5, #3
 800480c:	d0e3      	beq.n	80047d6 <_scanf_float+0x1de>
 800480e:	2d05      	cmp	r5, #5
 8004810:	e7df      	b.n	80047d2 <_scanf_float+0x1da>
 8004812:	2d02      	cmp	r5, #2
 8004814:	f47f af23 	bne.w	800465e <_scanf_float+0x66>
 8004818:	2503      	movs	r5, #3
 800481a:	e7b9      	b.n	8004790 <_scanf_float+0x198>
 800481c:	2d06      	cmp	r5, #6
 800481e:	f47f af1e 	bne.w	800465e <_scanf_float+0x66>
 8004822:	2507      	movs	r5, #7
 8004824:	e7b4      	b.n	8004790 <_scanf_float+0x198>
 8004826:	6822      	ldr	r2, [r4, #0]
 8004828:	0591      	lsls	r1, r2, #22
 800482a:	f57f af18 	bpl.w	800465e <_scanf_float+0x66>
 800482e:	f422 7220 	bic.w	r2, r2, #640	@ 0x280
 8004832:	6022      	str	r2, [r4, #0]
 8004834:	9702      	str	r7, [sp, #8]
 8004836:	e7ab      	b.n	8004790 <_scanf_float+0x198>
 8004838:	6822      	ldr	r2, [r4, #0]
 800483a:	f402 61a0 	and.w	r1, r2, #1280	@ 0x500
 800483e:	f5b1 6f80 	cmp.w	r1, #1024	@ 0x400
 8004842:	d005      	beq.n	8004850 <_scanf_float+0x258>
 8004844:	0550      	lsls	r0, r2, #21
 8004846:	f57f af0a 	bpl.w	800465e <_scanf_float+0x66>
 800484a:	2f00      	cmp	r7, #0
 800484c:	f000 80db 	beq.w	8004a06 <_scanf_float+0x40e>
 8004850:	0591      	lsls	r1, r2, #22
 8004852:	bf58      	it	pl
 8004854:	9902      	ldrpl	r1, [sp, #8]
 8004856:	f422 62f0 	bic.w	r2, r2, #1920	@ 0x780
 800485a:	bf58      	it	pl
 800485c:	1a79      	subpl	r1, r7, r1
 800485e:	f442 72c0 	orr.w	r2, r2, #384	@ 0x180
 8004862:	bf58      	it	pl
 8004864:	e9cd 1604 	strdpl	r1, r6, [sp, #16]
 8004868:	6022      	str	r2, [r4, #0]
 800486a:	2700      	movs	r7, #0
 800486c:	e790      	b.n	8004790 <_scanf_float+0x198>
 800486e:	f04f 0a03 	mov.w	sl, #3
 8004872:	e78d      	b.n	8004790 <_scanf_float+0x198>
 8004874:	f8d4 3180 	ldr.w	r3, [r4, #384]	@ 0x180
 8004878:	4649      	mov	r1, r9
 800487a:	4640      	mov	r0, r8
 800487c:	4798      	blx	r3
 800487e:	2800      	cmp	r0, #0
 8004880:	f43f aedf 	beq.w	8004642 <_scanf_float+0x4a>
 8004884:	e6eb      	b.n	800465e <_scanf_float+0x66>
 8004886:	f8d4 317c 	ldr.w	r3, [r4, #380]	@ 0x17c
 800488a:	f816 1d01 	ldrb.w	r1, [r6, #-1]!
 800488e:	464a      	mov	r2, r9
 8004890:	4640      	mov	r0, r8
 8004892:	4798      	blx	r3
 8004894:	6923      	ldr	r3, [r4, #16]
 8004896:	3b01      	subs	r3, #1
 8004898:	6123      	str	r3, [r4, #16]
 800489a:	e6eb      	b.n	8004674 <_scanf_float+0x7c>
 800489c:	1e6b      	subs	r3, r5, #1
 800489e:	2b06      	cmp	r3, #6
 80048a0:	d824      	bhi.n	80048ec <_scanf_float+0x2f4>
 80048a2:	2d02      	cmp	r5, #2
 80048a4:	d836      	bhi.n	8004914 <_scanf_float+0x31c>
 80048a6:	9b01      	ldr	r3, [sp, #4]
 80048a8:	429e      	cmp	r6, r3
 80048aa:	f67f aee7 	bls.w	800467c <_scanf_float+0x84>
 80048ae:	f8d4 317c 	ldr.w	r3, [r4, #380]	@ 0x17c
 80048b2:	f816 1d01 	ldrb.w	r1, [r6, #-1]!
 80048b6:	464a      	mov	r2, r9
 80048b8:	4640      	mov	r0, r8
 80048ba:	4798      	blx	r3
 80048bc:	6923      	ldr	r3, [r4, #16]
 80048be:	3b01      	subs	r3, #1
 80048c0:	6123      	str	r3, [r4, #16]
 80048c2:	e7f0      	b.n	80048a6 <_scanf_float+0x2ae>
 80048c4:	f8d4 317c 	ldr.w	r3, [r4, #380]	@ 0x17c
 80048c8:	f81b 1d01 	ldrb.w	r1, [fp, #-1]!
 80048cc:	464a      	mov	r2, r9
 80048ce:	4640      	mov	r0, r8
 80048d0:	4798      	blx	r3
 80048d2:	6923      	ldr	r3, [r4, #16]
 80048d4:	3b01      	subs	r3, #1
 80048d6:	6123      	str	r3, [r4, #16]
 80048d8:	f10a 3aff 	add.w	sl, sl, #4294967295
 80048dc:	fa5f fa8a 	uxtb.w	sl, sl
 80048e0:	f1ba 0f02 	cmp.w	sl, #2
 80048e4:	d1ee      	bne.n	80048c4 <_scanf_float+0x2cc>
 80048e6:	3d03      	subs	r5, #3
 80048e8:	b2ed      	uxtb	r5, r5
 80048ea:	1b76      	subs	r6, r6, r5
 80048ec:	6823      	ldr	r3, [r4, #0]
 80048ee:	05da      	lsls	r2, r3, #23
 80048f0:	d530      	bpl.n	8004954 <_scanf_float+0x35c>
 80048f2:	055b      	lsls	r3, r3, #21
 80048f4:	d511      	bpl.n	800491a <_scanf_float+0x322>
 80048f6:	9b01      	ldr	r3, [sp, #4]
 80048f8:	429e      	cmp	r6, r3
 80048fa:	f67f aebf 	bls.w	800467c <_scanf_float+0x84>
 80048fe:	f8d4 317c 	ldr.w	r3, [r4, #380]	@ 0x17c
 8004902:	f816 1d01 	ldrb.w	r1, [r6, #-1]!
 8004906:	464a      	mov	r2, r9
 8004908:	4640      	mov	r0, r8
 800490a:	4798      	blx	r3
 800490c:	6923      	ldr	r3, [r4, #16]
 800490e:	3b01      	subs	r3, #1
 8004910:	6123      	str	r3, [r4, #16]
 8004912:	e7f0      	b.n	80048f6 <_scanf_float+0x2fe>
 8004914:	46aa      	mov	sl, r5
 8004916:	46b3      	mov	fp, r6
 8004918:	e7de      	b.n	80048d8 <_scanf_float+0x2e0>
 800491a:	f816 1c01 	ldrb.w	r1, [r6, #-1]
 800491e:	6923      	ldr	r3, [r4, #16]
 8004920:	2965      	cmp	r1, #101	@ 0x65
 8004922:	f103 33ff 	add.w	r3, r3, #4294967295
 8004926:	f106 35ff 	add.w	r5, r6, #4294967295
 800492a:	6123      	str	r3, [r4, #16]
 800492c:	d00c      	beq.n	8004948 <_scanf_float+0x350>
 800492e:	2945      	cmp	r1, #69	@ 0x45
 8004930:	d00a      	beq.n	8004948 <_scanf_float+0x350>
 8004932:	f8d4 317c 	ldr.w	r3, [r4, #380]	@ 0x17c
 8004936:	464a      	mov	r2, r9
 8004938:	4640      	mov	r0, r8
 800493a:	4798      	blx	r3
 800493c:	6923      	ldr	r3, [r4, #16]
 800493e:	f816 1c02 	ldrb.w	r1, [r6, #-2]
 8004942:	3b01      	subs	r3, #1
 8004944:	1eb5      	subs	r5, r6, #2
 8004946:	6123      	str	r3, [r4, #16]
 8004948:	f8d4 317c 	ldr.w	r3, [r4, #380]	@ 0x17c
 800494c:	464a      	mov	r2, r9
 800494e:	4640      	mov	r0, r8
 8004950:	4798      	blx	r3
 8004952:	462e      	mov	r6, r5
 8004954:	6822      	ldr	r2, [r4, #0]
 8004956:	f012 0210 	ands.w	r2, r2, #16
 800495a:	d001      	beq.n	8004960 <_scanf_float+0x368>
 800495c:	2000      	movs	r0, #0
 800495e:	e68e      	b.n	800467e <_scanf_float+0x86>
 8004960:	7032      	strb	r2, [r6, #0]
 8004962:	6823      	ldr	r3, [r4, #0]
 8004964:	f403 63c0 	and.w	r3, r3, #1536	@ 0x600
 8004968:	f5b3 6f80 	cmp.w	r3, #1024	@ 0x400
 800496c:	d125      	bne.n	80049ba <_scanf_float+0x3c2>
 800496e:	9b02      	ldr	r3, [sp, #8]
 8004970:	429f      	cmp	r7, r3
 8004972:	d00a      	beq.n	800498a <_scanf_float+0x392>
 8004974:	1bda      	subs	r2, r3, r7
 8004976:	f204 136f 	addw	r3, r4, #367	@ 0x16f
 800497a:	429e      	cmp	r6, r3
 800497c:	bf28      	it	cs
 800497e:	f504 76b7 	addcs.w	r6, r4, #366	@ 0x16e
 8004982:	4922      	ldr	r1, [pc, #136]	@ (8004a0c <_scanf_float+0x414>)
 8004984:	4630      	mov	r0, r6
 8004986:	f000 f907 	bl	8004b98 <siprintf>
 800498a:	9901      	ldr	r1, [sp, #4]
 800498c:	2200      	movs	r2, #0
 800498e:	4640      	mov	r0, r8
 8004990:	f002 fbf2 	bl	8007178 <_strtod_r>
 8004994:	9b03      	ldr	r3, [sp, #12]
 8004996:	6821      	ldr	r1, [r4, #0]
 8004998:	681b      	ldr	r3, [r3, #0]
 800499a:	f011 0f02 	tst.w	r1, #2
 800499e:	ec57 6b10 	vmov	r6, r7, d0
 80049a2:	f103 0204 	add.w	r2, r3, #4
 80049a6:	d015      	beq.n	80049d4 <_scanf_float+0x3dc>
 80049a8:	9903      	ldr	r1, [sp, #12]
 80049aa:	600a      	str	r2, [r1, #0]
 80049ac:	681b      	ldr	r3, [r3, #0]
 80049ae:	e9c3 6700 	strd	r6, r7, [r3]
 80049b2:	68e3      	ldr	r3, [r4, #12]
 80049b4:	3301      	adds	r3, #1
 80049b6:	60e3      	str	r3, [r4, #12]
 80049b8:	e7d0      	b.n	800495c <_scanf_float+0x364>
 80049ba:	9b04      	ldr	r3, [sp, #16]
 80049bc:	2b00      	cmp	r3, #0
 80049be:	d0e4      	beq.n	800498a <_scanf_float+0x392>
 80049c0:	9905      	ldr	r1, [sp, #20]
 80049c2:	230a      	movs	r3, #10
 80049c4:	3101      	adds	r1, #1
 80049c6:	4640      	mov	r0, r8
 80049c8:	f002 fc56 	bl	8007278 <_strtol_r>
 80049cc:	9b04      	ldr	r3, [sp, #16]
 80049ce:	9e05      	ldr	r6, [sp, #20]
 80049d0:	1ac2      	subs	r2, r0, r3
 80049d2:	e7d0      	b.n	8004976 <_scanf_float+0x37e>
 80049d4:	f011 0f04 	tst.w	r1, #4
 80049d8:	9903      	ldr	r1, [sp, #12]
 80049da:	600a      	str	r2, [r1, #0]
 80049dc:	d1e6      	bne.n	80049ac <_scanf_float+0x3b4>
 80049de:	681d      	ldr	r5, [r3, #0]
 80049e0:	4632      	mov	r2, r6
 80049e2:	463b      	mov	r3, r7
 80049e4:	4630      	mov	r0, r6
 80049e6:	4639      	mov	r1, r7
 80049e8:	f7fc f8c8 	bl	8000b7c <__aeabi_dcmpun>
 80049ec:	b128      	cbz	r0, 80049fa <_scanf_float+0x402>
 80049ee:	4808      	ldr	r0, [pc, #32]	@ (8004a10 <_scanf_float+0x418>)
 80049f0:	f000 f9b8 	bl	8004d64 <nanf>
 80049f4:	ed85 0a00 	vstr	s0, [r5]
 80049f8:	e7db      	b.n	80049b2 <_scanf_float+0x3ba>
 80049fa:	4630      	mov	r0, r6
 80049fc:	4639      	mov	r1, r7
 80049fe:	f7fc f91b 	bl	8000c38 <__aeabi_d2f>
 8004a02:	6028      	str	r0, [r5, #0]
 8004a04:	e7d5      	b.n	80049b2 <_scanf_float+0x3ba>
 8004a06:	2700      	movs	r7, #0
 8004a08:	e62e      	b.n	8004668 <_scanf_float+0x70>
 8004a0a:	bf00      	nop
 8004a0c:	080084a4 	.word	0x080084a4
 8004a10:	080085e5 	.word	0x080085e5

08004a14 <std>:
 8004a14:	2300      	movs	r3, #0
 8004a16:	b510      	push	{r4, lr}
 8004a18:	4604      	mov	r4, r0
 8004a1a:	e9c0 3300 	strd	r3, r3, [r0]
 8004a1e:	e9c0 3304 	strd	r3, r3, [r0, #16]
 8004a22:	6083      	str	r3, [r0, #8]
 8004a24:	8181      	strh	r1, [r0, #12]
 8004a26:	6643      	str	r3, [r0, #100]	@ 0x64
 8004a28:	81c2      	strh	r2, [r0, #14]
 8004a2a:	6183      	str	r3, [r0, #24]
 8004a2c:	4619      	mov	r1, r3
 8004a2e:	2208      	movs	r2, #8
 8004a30:	305c      	adds	r0, #92	@ 0x5c
 8004a32:	f000 f916 	bl	8004c62 <memset>
 8004a36:	4b0d      	ldr	r3, [pc, #52]	@ (8004a6c <std+0x58>)
 8004a38:	6263      	str	r3, [r4, #36]	@ 0x24
 8004a3a:	4b0d      	ldr	r3, [pc, #52]	@ (8004a70 <std+0x5c>)
 8004a3c:	62a3      	str	r3, [r4, #40]	@ 0x28
 8004a3e:	4b0d      	ldr	r3, [pc, #52]	@ (8004a74 <std+0x60>)
 8004a40:	62e3      	str	r3, [r4, #44]	@ 0x2c
 8004a42:	4b0d      	ldr	r3, [pc, #52]	@ (8004a78 <std+0x64>)
 8004a44:	6323      	str	r3, [r4, #48]	@ 0x30
 8004a46:	4b0d      	ldr	r3, [pc, #52]	@ (8004a7c <std+0x68>)
 8004a48:	6224      	str	r4, [r4, #32]
 8004a4a:	429c      	cmp	r4, r3
 8004a4c:	d006      	beq.n	8004a5c <std+0x48>
 8004a4e:	f103 0268 	add.w	r2, r3, #104	@ 0x68
 8004a52:	4294      	cmp	r4, r2
 8004a54:	d002      	beq.n	8004a5c <std+0x48>
 8004a56:	33d0      	adds	r3, #208	@ 0xd0
 8004a58:	429c      	cmp	r4, r3
 8004a5a:	d105      	bne.n	8004a68 <std+0x54>
 8004a5c:	f104 0058 	add.w	r0, r4, #88	@ 0x58
 8004a60:	e8bd 4010 	ldmia.w	sp!, {r4, lr}
 8004a64:	f000 b97a 	b.w	8004d5c <__retarget_lock_init_recursive>
 8004a68:	bd10      	pop	{r4, pc}
 8004a6a:	bf00      	nop
 8004a6c:	08004bdd 	.word	0x08004bdd
 8004a70:	08004bff 	.word	0x08004bff
 8004a74:	08004c37 	.word	0x08004c37
 8004a78:	08004c5b 	.word	0x08004c5b
 8004a7c:	200008f4 	.word	0x200008f4

08004a80 <stdio_exit_handler>:
 8004a80:	4a02      	ldr	r2, [pc, #8]	@ (8004a8c <stdio_exit_handler+0xc>)
 8004a82:	4903      	ldr	r1, [pc, #12]	@ (8004a90 <stdio_exit_handler+0x10>)
 8004a84:	4803      	ldr	r0, [pc, #12]	@ (8004a94 <stdio_exit_handler+0x14>)
 8004a86:	f000 b869 	b.w	8004b5c <_fwalk_sglue>
 8004a8a:	bf00      	nop
 8004a8c:	2000000c 	.word	0x2000000c
 8004a90:	08007635 	.word	0x08007635
 8004a94:	2000001c 	.word	0x2000001c

08004a98 <cleanup_stdio>:
 8004a98:	6841      	ldr	r1, [r0, #4]
 8004a9a:	4b0c      	ldr	r3, [pc, #48]	@ (8004acc <cleanup_stdio+0x34>)
 8004a9c:	4299      	cmp	r1, r3
 8004a9e:	b510      	push	{r4, lr}
 8004aa0:	4604      	mov	r4, r0
 8004aa2:	d001      	beq.n	8004aa8 <cleanup_stdio+0x10>
 8004aa4:	f002 fdc6 	bl	8007634 <_fflush_r>
 8004aa8:	68a1      	ldr	r1, [r4, #8]
 8004aaa:	4b09      	ldr	r3, [pc, #36]	@ (8004ad0 <cleanup_stdio+0x38>)
 8004aac:	4299      	cmp	r1, r3
 8004aae:	d002      	beq.n	8004ab6 <cleanup_stdio+0x1e>
 8004ab0:	4620      	mov	r0, r4
 8004ab2:	f002 fdbf 	bl	8007634 <_fflush_r>
 8004ab6:	68e1      	ldr	r1, [r4, #12]
 8004ab8:	4b06      	ldr	r3, [pc, #24]	@ (8004ad4 <cleanup_stdio+0x3c>)
 8004aba:	4299      	cmp	r1, r3
 8004abc:	d004      	beq.n	8004ac8 <cleanup_stdio+0x30>
 8004abe:	4620      	mov	r0, r4
 8004ac0:	e8bd 4010 	ldmia.w	sp!, {r4, lr}
 8004ac4:	f002 bdb6 	b.w	8007634 <_fflush_r>
 8004ac8:	bd10      	pop	{r4, pc}
 8004aca:	bf00      	nop
 8004acc:	200008f4 	.word	0x200008f4
 8004ad0:	2000095c 	.word	0x2000095c
 8004ad4:	200009c4 	.word	0x200009c4

08004ad8 <global_stdio_init.part.0>:
 8004ad8:	b510      	push	{r4, lr}
 8004ada:	4b0b      	ldr	r3, [pc, #44]	@ (8004b08 <global_stdio_init.part.0+0x30>)
 8004adc:	4c0b      	ldr	r4, [pc, #44]	@ (8004b0c <global_stdio_init.part.0+0x34>)
 8004ade:	4a0c      	ldr	r2, [pc, #48]	@ (8004b10 <global_stdio_init.part.0+0x38>)
 8004ae0:	601a      	str	r2, [r3, #0]
 8004ae2:	4620      	mov	r0, r4
 8004ae4:	2200      	movs	r2, #0
 8004ae6:	2104      	movs	r1, #4
 8004ae8:	f7ff ff94 	bl	8004a14 <std>
 8004aec:	f104 0068 	add.w	r0, r4, #104	@ 0x68
 8004af0:	2201      	movs	r2, #1
 8004af2:	2109      	movs	r1, #9
 8004af4:	f7ff ff8e 	bl	8004a14 <std>
 8004af8:	f104 00d0 	add.w	r0, r4, #208	@ 0xd0
 8004afc:	2202      	movs	r2, #2
 8004afe:	e8bd 4010 	ldmia.w	sp!, {r4, lr}
 8004b02:	2112      	movs	r1, #18
 8004b04:	f7ff bf86 	b.w	8004a14 <std>
 8004b08:	20000a2c 	.word	0x20000a2c
 8004b0c:	200008f4 	.word	0x200008f4
 8004b10:	08004a81 	.word	0x08004a81

08004b14 <__sfp_lock_acquire>:
 8004b14:	4801      	ldr	r0, [pc, #4]	@ (8004b1c <__sfp_lock_acquire+0x8>)
 8004b16:	f000 b922 	b.w	8004d5e <__retarget_lock_acquire_recursive>
 8004b1a:	bf00      	nop
 8004b1c:	20000a35 	.word	0x20000a35

08004b20 <__sfp_lock_release>:
 8004b20:	4801      	ldr	r0, [pc, #4]	@ (8004b28 <__sfp_lock_release+0x8>)
 8004b22:	f000 b91d 	b.w	8004d60 <__retarget_lock_release_recursive>
 8004b26:	bf00      	nop
 8004b28:	20000a35 	.word	0x20000a35

08004b2c <__sinit>:
 8004b2c:	b510      	push	{r4, lr}
 8004b2e:	4604      	mov	r4, r0
 8004b30:	f7ff fff0 	bl	8004b14 <__sfp_lock_acquire>
 8004b34:	6a23      	ldr	r3, [r4, #32]
 8004b36:	b11b      	cbz	r3, 8004b40 <__sinit+0x14>
 8004b38:	e8bd 4010 	ldmia.w	sp!, {r4, lr}
 8004b3c:	f7ff bff0 	b.w	8004b20 <__sfp_lock_release>
 8004b40:	4b04      	ldr	r3, [pc, #16]	@ (8004b54 <__sinit+0x28>)
 8004b42:	6223      	str	r3, [r4, #32]
 8004b44:	4b04      	ldr	r3, [pc, #16]	@ (8004b58 <__sinit+0x2c>)
 8004b46:	681b      	ldr	r3, [r3, #0]
 8004b48:	2b00      	cmp	r3, #0
 8004b4a:	d1f5      	bne.n	8004b38 <__sinit+0xc>
 8004b4c:	f7ff ffc4 	bl	8004ad8 <global_stdio_init.part.0>
 8004b50:	e7f2      	b.n	8004b38 <__sinit+0xc>
 8004b52:	bf00      	nop
 8004b54:	08004a99 	.word	0x08004a99
 8004b58:	20000a2c 	.word	0x20000a2c

08004b5c <_fwalk_sglue>:
 8004b5c:	e92d 43f8 	stmdb	sp!, {r3, r4, r5, r6, r7, r8, r9, lr}
 8004b60:	4607      	mov	r7, r0
 8004b62:	4688      	mov	r8, r1
 8004b64:	4614      	mov	r4, r2
 8004b66:	2600      	movs	r6, #0
 8004b68:	e9d4 9501 	ldrd	r9, r5, [r4, #4]
 8004b6c:	f1b9 0901 	subs.w	r9, r9, #1
 8004b70:	d505      	bpl.n	8004b7e <_fwalk_sglue+0x22>
 8004b72:	6824      	ldr	r4, [r4, #0]
 8004b74:	2c00      	cmp	r4, #0
 8004b76:	d1f7      	bne.n	8004b68 <_fwalk_sglue+0xc>
 8004b78:	4630      	mov	r0, r6
 8004b7a:	e8bd 83f8 	ldmia.w	sp!, {r3, r4, r5, r6, r7, r8, r9, pc}
 8004b7e:	89ab      	ldrh	r3, [r5, #12]
 8004b80:	2b01      	cmp	r3, #1
 8004b82:	d907      	bls.n	8004b94 <_fwalk_sglue+0x38>
 8004b84:	f9b5 300e 	ldrsh.w	r3, [r5, #14]
 8004b88:	3301      	adds	r3, #1
 8004b8a:	d003      	beq.n	8004b94 <_fwalk_sglue+0x38>
 8004b8c:	4629      	mov	r1, r5
 8004b8e:	4638      	mov	r0, r7
 8004b90:	47c0      	blx	r8
 8004b92:	4306      	orrs	r6, r0
 8004b94:	3568      	adds	r5, #104	@ 0x68
 8004b96:	e7e9      	b.n	8004b6c <_fwalk_sglue+0x10>

08004b98 <siprintf>:
 8004b98:	b40e      	push	{r1, r2, r3}
 8004b9a:	b510      	push	{r4, lr}
 8004b9c:	b09d      	sub	sp, #116	@ 0x74
 8004b9e:	ab1f      	add	r3, sp, #124	@ 0x7c
 8004ba0:	9002      	str	r0, [sp, #8]
 8004ba2:	9006      	str	r0, [sp, #24]
 8004ba4:	f06f 4100 	mvn.w	r1, #2147483648	@ 0x80000000
 8004ba8:	480a      	ldr	r0, [pc, #40]	@ (8004bd4 <siprintf+0x3c>)
 8004baa:	9107      	str	r1, [sp, #28]
 8004bac:	9104      	str	r1, [sp, #16]
 8004bae:	490a      	ldr	r1, [pc, #40]	@ (8004bd8 <siprintf+0x40>)
 8004bb0:	f853 2b04 	ldr.w	r2, [r3], #4
 8004bb4:	9105      	str	r1, [sp, #20]
 8004bb6:	2400      	movs	r4, #0
 8004bb8:	a902      	add	r1, sp, #8
 8004bba:	6800      	ldr	r0, [r0, #0]
 8004bbc:	9301      	str	r3, [sp, #4]
 8004bbe:	941b      	str	r4, [sp, #108]	@ 0x6c
 8004bc0:	f002 fbb8 	bl	8007334 <_svfiprintf_r>
 8004bc4:	9b02      	ldr	r3, [sp, #8]
 8004bc6:	701c      	strb	r4, [r3, #0]
 8004bc8:	b01d      	add	sp, #116	@ 0x74
 8004bca:	e8bd 4010 	ldmia.w	sp!, {r4, lr}
 8004bce:	b003      	add	sp, #12
 8004bd0:	4770      	bx	lr
 8004bd2:	bf00      	nop
 8004bd4:	20000018 	.word	0x20000018
 8004bd8:	ffff0208 	.word	0xffff0208

08004bdc <__sread>:
 8004bdc:	b510      	push	{r4, lr}
 8004bde:	460c      	mov	r4, r1
 8004be0:	f9b1 100e 	ldrsh.w	r1, [r1, #14]
 8004be4:	f000 f86c 	bl	8004cc0 <_read_r>
 8004be8:	2800      	cmp	r0, #0
 8004bea:	bfab      	itete	ge
 8004bec:	6d63      	ldrge	r3, [r4, #84]	@ 0x54
 8004bee:	89a3      	ldrhlt	r3, [r4, #12]
 8004bf0:	181b      	addge	r3, r3, r0
 8004bf2:	f423 5380 	biclt.w	r3, r3, #4096	@ 0x1000
 8004bf6:	bfac      	ite	ge
 8004bf8:	6563      	strge	r3, [r4, #84]	@ 0x54
 8004bfa:	81a3      	strhlt	r3, [r4, #12]
 8004bfc:	bd10      	pop	{r4, pc}

08004bfe <__swrite>:
 8004bfe:	e92d 41f0 	stmdb	sp!, {r4, r5, r6, r7, r8, lr}
 8004c02:	461f      	mov	r7, r3
 8004c04:	898b      	ldrh	r3, [r1, #12]
 8004c06:	05db      	lsls	r3, r3, #23
 8004c08:	4605      	mov	r5, r0
 8004c0a:	460c      	mov	r4, r1
 8004c0c:	4616      	mov	r6, r2
 8004c0e:	d505      	bpl.n	8004c1c <__swrite+0x1e>
 8004c10:	f9b1 100e 	ldrsh.w	r1, [r1, #14]
 8004c14:	2302      	movs	r3, #2
 8004c16:	2200      	movs	r2, #0
 8004c18:	f000 f840 	bl	8004c9c <_lseek_r>
 8004c1c:	89a3      	ldrh	r3, [r4, #12]
 8004c1e:	f9b4 100e 	ldrsh.w	r1, [r4, #14]
 8004c22:	f423 5380 	bic.w	r3, r3, #4096	@ 0x1000
 8004c26:	81a3      	strh	r3, [r4, #12]
 8004c28:	4632      	mov	r2, r6
 8004c2a:	463b      	mov	r3, r7
 8004c2c:	4628      	mov	r0, r5
 8004c2e:	e8bd 41f0 	ldmia.w	sp!, {r4, r5, r6, r7, r8, lr}
 8004c32:	f000 b857 	b.w	8004ce4 <_write_r>

08004c36 <__sseek>:
 8004c36:	b510      	push	{r4, lr}
 8004c38:	460c      	mov	r4, r1
 8004c3a:	f9b1 100e 	ldrsh.w	r1, [r1, #14]
 8004c3e:	f000 f82d 	bl	8004c9c <_lseek_r>
 8004c42:	1c43      	adds	r3, r0, #1
 8004c44:	89a3      	ldrh	r3, [r4, #12]
 8004c46:	bf15      	itete	ne
 8004c48:	6560      	strne	r0, [r4, #84]	@ 0x54
 8004c4a:	f423 5380 	biceq.w	r3, r3, #4096	@ 0x1000
 8004c4e:	f443 5380 	orrne.w	r3, r3, #4096	@ 0x1000
 8004c52:	81a3      	strheq	r3, [r4, #12]
 8004c54:	bf18      	it	ne
 8004c56:	81a3      	strhne	r3, [r4, #12]
 8004c58:	bd10      	pop	{r4, pc}

08004c5a <__sclose>:
 8004c5a:	f9b1 100e 	ldrsh.w	r1, [r1, #14]
 8004c5e:	f000 b80d 	b.w	8004c7c <_close_r>

08004c62 <memset>:
 8004c62:	4402      	add	r2, r0
 8004c64:	4603      	mov	r3, r0
 8004c66:	4293      	cmp	r3, r2
 8004c68:	d100      	bne.n	8004c6c <memset+0xa>
 8004c6a:	4770      	bx	lr
 8004c6c:	f803 1b01 	strb.w	r1, [r3], #1
 8004c70:	e7f9      	b.n	8004c66 <memset+0x4>
	...

08004c74 <_localeconv_r>:
 8004c74:	4800      	ldr	r0, [pc, #0]	@ (8004c78 <_localeconv_r+0x4>)
 8004c76:	4770      	bx	lr
 8004c78:	20000158 	.word	0x20000158

08004c7c <_close_r>:
 8004c7c:	b538      	push	{r3, r4, r5, lr}
 8004c7e:	4d06      	ldr	r5, [pc, #24]	@ (8004c98 <_close_r+0x1c>)
 8004c80:	2300      	movs	r3, #0
 8004c82:	4604      	mov	r4, r0
 8004c84:	4608      	mov	r0, r1
 8004c86:	602b      	str	r3, [r5, #0]
 8004c88:	f7fc fcc4 	bl	8001614 <_close>
 8004c8c:	1c43      	adds	r3, r0, #1
 8004c8e:	d102      	bne.n	8004c96 <_close_r+0x1a>
 8004c90:	682b      	ldr	r3, [r5, #0]
 8004c92:	b103      	cbz	r3, 8004c96 <_close_r+0x1a>
 8004c94:	6023      	str	r3, [r4, #0]
 8004c96:	bd38      	pop	{r3, r4, r5, pc}
 8004c98:	20000a30 	.word	0x20000a30

08004c9c <_lseek_r>:
 8004c9c:	b538      	push	{r3, r4, r5, lr}
 8004c9e:	4d07      	ldr	r5, [pc, #28]	@ (8004cbc <_lseek_r+0x20>)
 8004ca0:	4604      	mov	r4, r0
 8004ca2:	4608      	mov	r0, r1
 8004ca4:	4611      	mov	r1, r2
 8004ca6:	2200      	movs	r2, #0
 8004ca8:	602a      	str	r2, [r5, #0]
 8004caa:	461a      	mov	r2, r3
 8004cac:	f7fc fcbc 	bl	8001628 <_lseek>
 8004cb0:	1c43      	adds	r3, r0, #1
 8004cb2:	d102      	bne.n	8004cba <_lseek_r+0x1e>
 8004cb4:	682b      	ldr	r3, [r5, #0]
 8004cb6:	b103      	cbz	r3, 8004cba <_lseek_r+0x1e>
 8004cb8:	6023      	str	r3, [r4, #0]
 8004cba:	bd38      	pop	{r3, r4, r5, pc}
 8004cbc:	20000a30 	.word	0x20000a30

08004cc0 <_read_r>:
 8004cc0:	b538      	push	{r3, r4, r5, lr}
 8004cc2:	4d07      	ldr	r5, [pc, #28]	@ (8004ce0 <_read_r+0x20>)
 8004cc4:	4604      	mov	r4, r0
 8004cc6:	4608      	mov	r0, r1
 8004cc8:	4611      	mov	r1, r2
 8004cca:	2200      	movs	r2, #0
 8004ccc:	602a      	str	r2, [r5, #0]
 8004cce:	461a      	mov	r2, r3
 8004cd0:	f7fc fc84 	bl	80015dc <_read>
 8004cd4:	1c43      	adds	r3, r0, #1
 8004cd6:	d102      	bne.n	8004cde <_read_r+0x1e>
 8004cd8:	682b      	ldr	r3, [r5, #0]
 8004cda:	b103      	cbz	r3, 8004cde <_read_r+0x1e>
 8004cdc:	6023      	str	r3, [r4, #0]
 8004cde:	bd38      	pop	{r3, r4, r5, pc}
 8004ce0:	20000a30 	.word	0x20000a30

08004ce4 <_write_r>:
 8004ce4:	b538      	push	{r3, r4, r5, lr}
 8004ce6:	4d07      	ldr	r5, [pc, #28]	@ (8004d04 <_write_r+0x20>)
 8004ce8:	4604      	mov	r4, r0
 8004cea:	4608      	mov	r0, r1
 8004cec:	4611      	mov	r1, r2
 8004cee:	2200      	movs	r2, #0
 8004cf0:	602a      	str	r2, [r5, #0]
 8004cf2:	461a      	mov	r2, r3
 8004cf4:	f7fc fc80 	bl	80015f8 <_write>
 8004cf8:	1c43      	adds	r3, r0, #1
 8004cfa:	d102      	bne.n	8004d02 <_write_r+0x1e>
 8004cfc:	682b      	ldr	r3, [r5, #0]
 8004cfe:	b103      	cbz	r3, 8004d02 <_write_r+0x1e>
 8004d00:	6023      	str	r3, [r4, #0]
 8004d02:	bd38      	pop	{r3, r4, r5, pc}
 8004d04:	20000a30 	.word	0x20000a30

08004d08 <__errno>:
 8004d08:	4b01      	ldr	r3, [pc, #4]	@ (8004d10 <__errno+0x8>)
 8004d0a:	6818      	ldr	r0, [r3, #0]
 8004d0c:	4770      	bx	lr
 8004d0e:	bf00      	nop
 8004d10:	20000018 	.word	0x20000018

08004d14 <__libc_init_array>:
 8004d14:	b570      	push	{r4, r5, r6, lr}
 8004d16:	4d0d      	ldr	r5, [pc, #52]	@ (8004d4c <__libc_init_array+0x38>)
 8004d18:	4c0d      	ldr	r4, [pc, #52]	@ (8004d50 <__libc_init_array+0x3c>)
 8004d1a:	1b64      	subs	r4, r4, r5
 8004d1c:	10a4      	asrs	r4, r4, #2
 8004d1e:	2600      	movs	r6, #0
 8004d20:	42a6      	cmp	r6, r4
 8004d22:	d109      	bne.n	8004d38 <__libc_init_array+0x24>
 8004d24:	4d0b      	ldr	r5, [pc, #44]	@ (8004d54 <__libc_init_array+0x40>)
 8004d26:	4c0c      	ldr	r4, [pc, #48]	@ (8004d58 <__libc_init_array+0x44>)
 8004d28:	f003 fb74 	bl	8008414 <_init>
 8004d2c:	1b64      	subs	r4, r4, r5
 8004d2e:	10a4      	asrs	r4, r4, #2
 8004d30:	2600      	movs	r6, #0
 8004d32:	42a6      	cmp	r6, r4
 8004d34:	d105      	bne.n	8004d42 <__libc_init_array+0x2e>
 8004d36:	bd70      	pop	{r4, r5, r6, pc}
 8004d38:	f855 3b04 	ldr.w	r3, [r5], #4
 8004d3c:	4798      	blx	r3
 8004d3e:	3601      	adds	r6, #1
 8004d40:	e7ee      	b.n	8004d20 <__libc_init_array+0xc>
 8004d42:	f855 3b04 	ldr.w	r3, [r5], #4
 8004d46:	4798      	blx	r3
 8004d48:	3601      	adds	r6, #1
 8004d4a:	e7f2      	b.n	8004d32 <__libc_init_array+0x1e>
 8004d4c:	080088a4 	.word	0x080088a4
 8004d50:	080088a4 	.word	0x080088a4
 8004d54:	080088a4 	.word	0x080088a4
 8004d58:	080088a8 	.word	0x080088a8

08004d5c <__retarget_lock_init_recursive>:
 8004d5c:	4770      	bx	lr

08004d5e <__retarget_lock_acquire_recursive>:
 8004d5e:	4770      	bx	lr

08004d60 <__retarget_lock_release_recursive>:
 8004d60:	4770      	bx	lr
	...

08004d64 <nanf>:
 8004d64:	ed9f 0a01 	vldr	s0, [pc, #4]	@ 8004d6c <nanf+0x8>
 8004d68:	4770      	bx	lr
 8004d6a:	bf00      	nop
 8004d6c:	7fc00000 	.word	0x7fc00000

08004d70 <quorem>:
 8004d70:	e92d 4ff7 	stmdb	sp!, {r0, r1, r2, r4, r5, r6, r7, r8, r9, sl, fp, lr}
 8004d74:	6903      	ldr	r3, [r0, #16]
 8004d76:	690c      	ldr	r4, [r1, #16]
 8004d78:	42a3      	cmp	r3, r4
 8004d7a:	4607      	mov	r7, r0
 8004d7c:	db7e      	blt.n	8004e7c <quorem+0x10c>
 8004d7e:	3c01      	subs	r4, #1
 8004d80:	f101 0814 	add.w	r8, r1, #20
 8004d84:	00a3      	lsls	r3, r4, #2
 8004d86:	f100 0514 	add.w	r5, r0, #20
 8004d8a:	9300      	str	r3, [sp, #0]
 8004d8c:	eb05 0384 	add.w	r3, r5, r4, lsl #2
 8004d90:	9301      	str	r3, [sp, #4]
 8004d92:	f858 3024 	ldr.w	r3, [r8, r4, lsl #2]
 8004d96:	f855 2024 	ldr.w	r2, [r5, r4, lsl #2]
 8004d9a:	3301      	adds	r3, #1
 8004d9c:	429a      	cmp	r2, r3
 8004d9e:	eb08 0984 	add.w	r9, r8, r4, lsl #2
 8004da2:	fbb2 f6f3 	udiv	r6, r2, r3
 8004da6:	d32e      	bcc.n	8004e06 <quorem+0x96>
 8004da8:	f04f 0a00 	mov.w	sl, #0
 8004dac:	46c4      	mov	ip, r8
 8004dae:	46ae      	mov	lr, r5
 8004db0:	46d3      	mov	fp, sl
 8004db2:	f85c 3b04 	ldr.w	r3, [ip], #4
 8004db6:	b298      	uxth	r0, r3
 8004db8:	fb06 a000 	mla	r0, r6, r0, sl
 8004dbc:	0c02      	lsrs	r2, r0, #16
 8004dbe:	0c1b      	lsrs	r3, r3, #16
 8004dc0:	fb06 2303 	mla	r3, r6, r3, r2
 8004dc4:	f8de 2000 	ldr.w	r2, [lr]
 8004dc8:	b280      	uxth	r0, r0
 8004dca:	b292      	uxth	r2, r2
 8004dcc:	1a12      	subs	r2, r2, r0
 8004dce:	445a      	add	r2, fp
 8004dd0:	f8de 0000 	ldr.w	r0, [lr]
 8004dd4:	ea4f 4a13 	mov.w	sl, r3, lsr #16
 8004dd8:	b29b      	uxth	r3, r3
 8004dda:	ebc3 4322 	rsb	r3, r3, r2, asr #16
 8004dde:	eb03 4310 	add.w	r3, r3, r0, lsr #16
 8004de2:	b292      	uxth	r2, r2
 8004de4:	ea42 4203 	orr.w	r2, r2, r3, lsl #16
 8004de8:	45e1      	cmp	r9, ip
 8004dea:	f84e 2b04 	str.w	r2, [lr], #4
 8004dee:	ea4f 4b23 	mov.w	fp, r3, asr #16
 8004df2:	d2de      	bcs.n	8004db2 <quorem+0x42>
 8004df4:	9b00      	ldr	r3, [sp, #0]
 8004df6:	58eb      	ldr	r3, [r5, r3]
 8004df8:	b92b      	cbnz	r3, 8004e06 <quorem+0x96>
 8004dfa:	9b01      	ldr	r3, [sp, #4]
 8004dfc:	3b04      	subs	r3, #4
 8004dfe:	429d      	cmp	r5, r3
 8004e00:	461a      	mov	r2, r3
 8004e02:	d32f      	bcc.n	8004e64 <quorem+0xf4>
 8004e04:	613c      	str	r4, [r7, #16]
 8004e06:	4638      	mov	r0, r7
 8004e08:	f001 f9c6 	bl	8006198 <__mcmp>
 8004e0c:	2800      	cmp	r0, #0
 8004e0e:	db25      	blt.n	8004e5c <quorem+0xec>
 8004e10:	4629      	mov	r1, r5
 8004e12:	2000      	movs	r0, #0
 8004e14:	f858 2b04 	ldr.w	r2, [r8], #4
 8004e18:	f8d1 c000 	ldr.w	ip, [r1]
 8004e1c:	fa1f fe82 	uxth.w	lr, r2
 8004e20:	fa1f f38c 	uxth.w	r3, ip
 8004e24:	eba3 030e 	sub.w	r3, r3, lr
 8004e28:	4403      	add	r3, r0
 8004e2a:	0c12      	lsrs	r2, r2, #16
 8004e2c:	ebc2 4223 	rsb	r2, r2, r3, asr #16
 8004e30:	eb02 421c 	add.w	r2, r2, ip, lsr #16
 8004e34:	b29b      	uxth	r3, r3
 8004e36:	ea43 4302 	orr.w	r3, r3, r2, lsl #16
 8004e3a:	45c1      	cmp	r9, r8
 8004e3c:	f841 3b04 	str.w	r3, [r1], #4
 8004e40:	ea4f 4022 	mov.w	r0, r2, asr #16
 8004e44:	d2e6      	bcs.n	8004e14 <quorem+0xa4>
 8004e46:	f855 2024 	ldr.w	r2, [r5, r4, lsl #2]
 8004e4a:	eb05 0384 	add.w	r3, r5, r4, lsl #2
 8004e4e:	b922      	cbnz	r2, 8004e5a <quorem+0xea>
 8004e50:	3b04      	subs	r3, #4
 8004e52:	429d      	cmp	r5, r3
 8004e54:	461a      	mov	r2, r3
 8004e56:	d30b      	bcc.n	8004e70 <quorem+0x100>
 8004e58:	613c      	str	r4, [r7, #16]
 8004e5a:	3601      	adds	r6, #1
 8004e5c:	4630      	mov	r0, r6
 8004e5e:	b003      	add	sp, #12
 8004e60:	e8bd 8ff0 	ldmia.w	sp!, {r4, r5, r6, r7, r8, r9, sl, fp, pc}
 8004e64:	6812      	ldr	r2, [r2, #0]
 8004e66:	3b04      	subs	r3, #4
 8004e68:	2a00      	cmp	r2, #0
 8004e6a:	d1cb      	bne.n	8004e04 <quorem+0x94>
 8004e6c:	3c01      	subs	r4, #1
 8004e6e:	e7c6      	b.n	8004dfe <quorem+0x8e>
 8004e70:	6812      	ldr	r2, [r2, #0]
 8004e72:	3b04      	subs	r3, #4
 8004e74:	2a00      	cmp	r2, #0
 8004e76:	d1ef      	bne.n	8004e58 <quorem+0xe8>
 8004e78:	3c01      	subs	r4, #1
 8004e7a:	e7ea      	b.n	8004e52 <quorem+0xe2>
 8004e7c:	2000      	movs	r0, #0
 8004e7e:	e7ee      	b.n	8004e5e <quorem+0xee>

08004e80 <_dtoa_r>:
 8004e80:	e92d 4ff0 	stmdb	sp!, {r4, r5, r6, r7, r8, r9, sl, fp, lr}
 8004e84:	69c7      	ldr	r7, [r0, #28]
 8004e86:	b097      	sub	sp, #92	@ 0x5c
 8004e88:	ed8d 0b04 	vstr	d0, [sp, #16]
 8004e8c:	ec55 4b10 	vmov	r4, r5, d0
 8004e90:	9e20      	ldr	r6, [sp, #128]	@ 0x80
 8004e92:	9107      	str	r1, [sp, #28]
 8004e94:	4681      	mov	r9, r0
 8004e96:	920c      	str	r2, [sp, #48]	@ 0x30
 8004e98:	9311      	str	r3, [sp, #68]	@ 0x44
 8004e9a:	b97f      	cbnz	r7, 8004ebc <_dtoa_r+0x3c>
 8004e9c:	2010      	movs	r0, #16
 8004e9e:	f000 fe09 	bl	8005ab4 <malloc>
 8004ea2:	4602      	mov	r2, r0
 8004ea4:	f8c9 001c 	str.w	r0, [r9, #28]
 8004ea8:	b920      	cbnz	r0, 8004eb4 <_dtoa_r+0x34>
 8004eaa:	4ba9      	ldr	r3, [pc, #676]	@ (8005150 <_dtoa_r+0x2d0>)
 8004eac:	21ef      	movs	r1, #239	@ 0xef
 8004eae:	48a9      	ldr	r0, [pc, #676]	@ (8005154 <_dtoa_r+0x2d4>)
 8004eb0:	f002 fc3a 	bl	8007728 <__assert_func>
 8004eb4:	e9c0 7701 	strd	r7, r7, [r0, #4]
 8004eb8:	6007      	str	r7, [r0, #0]
 8004eba:	60c7      	str	r7, [r0, #12]
 8004ebc:	f8d9 301c 	ldr.w	r3, [r9, #28]
 8004ec0:	6819      	ldr	r1, [r3, #0]
 8004ec2:	b159      	cbz	r1, 8004edc <_dtoa_r+0x5c>
 8004ec4:	685a      	ldr	r2, [r3, #4]
 8004ec6:	604a      	str	r2, [r1, #4]
 8004ec8:	2301      	movs	r3, #1
 8004eca:	4093      	lsls	r3, r2
 8004ecc:	608b      	str	r3, [r1, #8]
 8004ece:	4648      	mov	r0, r9
 8004ed0:	f000 fee6 	bl	8005ca0 <_Bfree>
 8004ed4:	f8d9 301c 	ldr.w	r3, [r9, #28]
 8004ed8:	2200      	movs	r2, #0
 8004eda:	601a      	str	r2, [r3, #0]
 8004edc:	1e2b      	subs	r3, r5, #0
 8004ede:	bfb9      	ittee	lt
 8004ee0:	f023 4300 	biclt.w	r3, r3, #2147483648	@ 0x80000000
 8004ee4:	9305      	strlt	r3, [sp, #20]
 8004ee6:	2300      	movge	r3, #0
 8004ee8:	6033      	strge	r3, [r6, #0]
 8004eea:	9f05      	ldr	r7, [sp, #20]
 8004eec:	4b9a      	ldr	r3, [pc, #616]	@ (8005158 <_dtoa_r+0x2d8>)
 8004eee:	bfbc      	itt	lt
 8004ef0:	2201      	movlt	r2, #1
 8004ef2:	6032      	strlt	r2, [r6, #0]
 8004ef4:	43bb      	bics	r3, r7
 8004ef6:	d112      	bne.n	8004f1e <_dtoa_r+0x9e>
 8004ef8:	9a11      	ldr	r2, [sp, #68]	@ 0x44
 8004efa:	f242 730f 	movw	r3, #9999	@ 0x270f
 8004efe:	6013      	str	r3, [r2, #0]
 8004f00:	f3c7 0313 	ubfx	r3, r7, #0, #20
 8004f04:	4323      	orrs	r3, r4
 8004f06:	f000 855a 	beq.w	80059be <_dtoa_r+0xb3e>
 8004f0a:	9b21      	ldr	r3, [sp, #132]	@ 0x84
 8004f0c:	f8df a25c 	ldr.w	sl, [pc, #604]	@ 800516c <_dtoa_r+0x2ec>
 8004f10:	2b00      	cmp	r3, #0
 8004f12:	f000 855c 	beq.w	80059ce <_dtoa_r+0xb4e>
 8004f16:	f10a 0303 	add.w	r3, sl, #3
 8004f1a:	f000 bd56 	b.w	80059ca <_dtoa_r+0xb4a>
 8004f1e:	ed9d 7b04 	vldr	d7, [sp, #16]
 8004f22:	2200      	movs	r2, #0
 8004f24:	ec51 0b17 	vmov	r0, r1, d7
 8004f28:	2300      	movs	r3, #0
 8004f2a:	ed8d 7b0a 	vstr	d7, [sp, #40]	@ 0x28
 8004f2e:	f7fb fdf3 	bl	8000b18 <__aeabi_dcmpeq>
 8004f32:	4680      	mov	r8, r0
 8004f34:	b158      	cbz	r0, 8004f4e <_dtoa_r+0xce>
 8004f36:	9a11      	ldr	r2, [sp, #68]	@ 0x44
 8004f38:	2301      	movs	r3, #1
 8004f3a:	6013      	str	r3, [r2, #0]
 8004f3c:	9b21      	ldr	r3, [sp, #132]	@ 0x84
 8004f3e:	b113      	cbz	r3, 8004f46 <_dtoa_r+0xc6>
 8004f40:	9a21      	ldr	r2, [sp, #132]	@ 0x84
 8004f42:	4b86      	ldr	r3, [pc, #536]	@ (800515c <_dtoa_r+0x2dc>)
 8004f44:	6013      	str	r3, [r2, #0]
 8004f46:	f8df a228 	ldr.w	sl, [pc, #552]	@ 8005170 <_dtoa_r+0x2f0>
 8004f4a:	f000 bd40 	b.w	80059ce <_dtoa_r+0xb4e>
 8004f4e:	ed9d 0b0a 	vldr	d0, [sp, #40]	@ 0x28
 8004f52:	aa14      	add	r2, sp, #80	@ 0x50
 8004f54:	a915      	add	r1, sp, #84	@ 0x54
 8004f56:	4648      	mov	r0, r9
 8004f58:	f001 fa3e 	bl	80063d8 <__d2b>
 8004f5c:	f3c7 560a 	ubfx	r6, r7, #20, #11
 8004f60:	9002      	str	r0, [sp, #8]
 8004f62:	2e00      	cmp	r6, #0
 8004f64:	d078      	beq.n	8005058 <_dtoa_r+0x1d8>
 8004f66:	9b0b      	ldr	r3, [sp, #44]	@ 0x2c
 8004f68:	f8cd 8048 	str.w	r8, [sp, #72]	@ 0x48
 8004f6c:	f3c3 0313 	ubfx	r3, r3, #0, #20
 8004f70:	e9dd 010a 	ldrd	r0, r1, [sp, #40]	@ 0x28
 8004f74:	f043 537f 	orr.w	r3, r3, #1069547520	@ 0x3fc00000
 8004f78:	f443 1340 	orr.w	r3, r3, #3145728	@ 0x300000
 8004f7c:	f2a6 36ff 	subw	r6, r6, #1023	@ 0x3ff
 8004f80:	4619      	mov	r1, r3
 8004f82:	2200      	movs	r2, #0
 8004f84:	4b76      	ldr	r3, [pc, #472]	@ (8005160 <_dtoa_r+0x2e0>)
 8004f86:	f7fb f9a7 	bl	80002d8 <__aeabi_dsub>
 8004f8a:	a36b      	add	r3, pc, #428	@ (adr r3, 8005138 <_dtoa_r+0x2b8>)
 8004f8c:	e9d3 2300 	ldrd	r2, r3, [r3]
 8004f90:	f7fb fb5a 	bl	8000648 <__aeabi_dmul>
 8004f94:	a36a      	add	r3, pc, #424	@ (adr r3, 8005140 <_dtoa_r+0x2c0>)
 8004f96:	e9d3 2300 	ldrd	r2, r3, [r3]
 8004f9a:	f7fb f99f 	bl	80002dc <__adddf3>
 8004f9e:	4604      	mov	r4, r0
 8004fa0:	4630      	mov	r0, r6
 8004fa2:	460d      	mov	r5, r1
 8004fa4:	f7fb fae6 	bl	8000574 <__aeabi_i2d>
 8004fa8:	a367      	add	r3, pc, #412	@ (adr r3, 8005148 <_dtoa_r+0x2c8>)
 8004faa:	e9d3 2300 	ldrd	r2, r3, [r3]
 8004fae:	f7fb fb4b 	bl	8000648 <__aeabi_dmul>
 8004fb2:	4602      	mov	r2, r0
 8004fb4:	460b      	mov	r3, r1
 8004fb6:	4620      	mov	r0, r4
 8004fb8:	4629      	mov	r1, r5
 8004fba:	f7fb f98f 	bl	80002dc <__adddf3>
 8004fbe:	4604      	mov	r4, r0
 8004fc0:	460d      	mov	r5, r1
 8004fc2:	f7fb fdf1 	bl	8000ba8 <__aeabi_d2iz>
 8004fc6:	2200      	movs	r2, #0
 8004fc8:	4607      	mov	r7, r0
 8004fca:	2300      	movs	r3, #0
 8004fcc:	4620      	mov	r0, r4
 8004fce:	4629      	mov	r1, r5
 8004fd0:	f7fb fdac 	bl	8000b2c <__aeabi_dcmplt>
 8004fd4:	b140      	cbz	r0, 8004fe8 <_dtoa_r+0x168>
 8004fd6:	4638      	mov	r0, r7
 8004fd8:	f7fb facc 	bl	8000574 <__aeabi_i2d>
 8004fdc:	4622      	mov	r2, r4
 8004fde:	462b      	mov	r3, r5
 8004fe0:	f7fb fd9a 	bl	8000b18 <__aeabi_dcmpeq>
 8004fe4:	b900      	cbnz	r0, 8004fe8 <_dtoa_r+0x168>
 8004fe6:	3f01      	subs	r7, #1
 8004fe8:	2f16      	cmp	r7, #22
 8004fea:	d852      	bhi.n	8005092 <_dtoa_r+0x212>
 8004fec:	4b5d      	ldr	r3, [pc, #372]	@ (8005164 <_dtoa_r+0x2e4>)
 8004fee:	eb03 03c7 	add.w	r3, r3, r7, lsl #3
 8004ff2:	e9d3 2300 	ldrd	r2, r3, [r3]
 8004ff6:	e9dd 010a 	ldrd	r0, r1, [sp, #40]	@ 0x28
 8004ffa:	f7fb fd97 	bl	8000b2c <__aeabi_dcmplt>
 8004ffe:	2800      	cmp	r0, #0
 8005000:	d049      	beq.n	8005096 <_dtoa_r+0x216>
 8005002:	3f01      	subs	r7, #1
 8005004:	2300      	movs	r3, #0
 8005006:	9310      	str	r3, [sp, #64]	@ 0x40
 8005008:	9b14      	ldr	r3, [sp, #80]	@ 0x50
 800500a:	1b9b      	subs	r3, r3, r6
 800500c:	1e5a      	subs	r2, r3, #1
 800500e:	bf45      	ittet	mi
 8005010:	f1c3 0301 	rsbmi	r3, r3, #1
 8005014:	9300      	strmi	r3, [sp, #0]
 8005016:	2300      	movpl	r3, #0
 8005018:	2300      	movmi	r3, #0
 800501a:	9206      	str	r2, [sp, #24]
 800501c:	bf54      	ite	pl
 800501e:	9300      	strpl	r3, [sp, #0]
 8005020:	9306      	strmi	r3, [sp, #24]
 8005022:	2f00      	cmp	r7, #0
 8005024:	db39      	blt.n	800509a <_dtoa_r+0x21a>
 8005026:	9b06      	ldr	r3, [sp, #24]
 8005028:	970d      	str	r7, [sp, #52]	@ 0x34
 800502a:	443b      	add	r3, r7
 800502c:	9306      	str	r3, [sp, #24]
 800502e:	2300      	movs	r3, #0
 8005030:	9308      	str	r3, [sp, #32]
 8005032:	9b07      	ldr	r3, [sp, #28]
 8005034:	2b09      	cmp	r3, #9
 8005036:	d863      	bhi.n	8005100 <_dtoa_r+0x280>
 8005038:	2b05      	cmp	r3, #5
 800503a:	bfc4      	itt	gt
 800503c:	3b04      	subgt	r3, #4
 800503e:	9307      	strgt	r3, [sp, #28]
 8005040:	9b07      	ldr	r3, [sp, #28]
 8005042:	f1a3 0302 	sub.w	r3, r3, #2
 8005046:	bfcc      	ite	gt
 8005048:	2400      	movgt	r4, #0
 800504a:	2401      	movle	r4, #1
 800504c:	2b03      	cmp	r3, #3
 800504e:	d863      	bhi.n	8005118 <_dtoa_r+0x298>
 8005050:	e8df f003 	tbb	[pc, r3]
 8005054:	2b375452 	.word	0x2b375452
 8005058:	e9dd 6314 	ldrd	r6, r3, [sp, #80]	@ 0x50
 800505c:	441e      	add	r6, r3
 800505e:	f206 4332 	addw	r3, r6, #1074	@ 0x432
 8005062:	2b20      	cmp	r3, #32
 8005064:	bfc1      	itttt	gt
 8005066:	f1c3 0340 	rsbgt	r3, r3, #64	@ 0x40
 800506a:	409f      	lslgt	r7, r3
 800506c:	f206 4312 	addwgt	r3, r6, #1042	@ 0x412
 8005070:	fa24 f303 	lsrgt.w	r3, r4, r3
 8005074:	bfd6      	itet	le
 8005076:	f1c3 0320 	rsble	r3, r3, #32
 800507a:	ea47 0003 	orrgt.w	r0, r7, r3
 800507e:	fa04 f003 	lslle.w	r0, r4, r3
 8005082:	f7fb fa67 	bl	8000554 <__aeabi_ui2d>
 8005086:	2201      	movs	r2, #1
 8005088:	f1a1 73f8 	sub.w	r3, r1, #32505856	@ 0x1f00000
 800508c:	3e01      	subs	r6, #1
 800508e:	9212      	str	r2, [sp, #72]	@ 0x48
 8005090:	e776      	b.n	8004f80 <_dtoa_r+0x100>
 8005092:	2301      	movs	r3, #1
 8005094:	e7b7      	b.n	8005006 <_dtoa_r+0x186>
 8005096:	9010      	str	r0, [sp, #64]	@ 0x40
 8005098:	e7b6      	b.n	8005008 <_dtoa_r+0x188>
 800509a:	9b00      	ldr	r3, [sp, #0]
 800509c:	1bdb      	subs	r3, r3, r7
 800509e:	9300      	str	r3, [sp, #0]
 80050a0:	427b      	negs	r3, r7
 80050a2:	9308      	str	r3, [sp, #32]
 80050a4:	2300      	movs	r3, #0
 80050a6:	930d      	str	r3, [sp, #52]	@ 0x34
 80050a8:	e7c3      	b.n	8005032 <_dtoa_r+0x1b2>
 80050aa:	2301      	movs	r3, #1
 80050ac:	9309      	str	r3, [sp, #36]	@ 0x24
 80050ae:	9b0c      	ldr	r3, [sp, #48]	@ 0x30
 80050b0:	eb07 0b03 	add.w	fp, r7, r3
 80050b4:	f10b 0301 	add.w	r3, fp, #1
 80050b8:	2b01      	cmp	r3, #1
 80050ba:	9303      	str	r3, [sp, #12]
 80050bc:	bfb8      	it	lt
 80050be:	2301      	movlt	r3, #1
 80050c0:	e006      	b.n	80050d0 <_dtoa_r+0x250>
 80050c2:	2301      	movs	r3, #1
 80050c4:	9309      	str	r3, [sp, #36]	@ 0x24
 80050c6:	9b0c      	ldr	r3, [sp, #48]	@ 0x30
 80050c8:	2b00      	cmp	r3, #0
 80050ca:	dd28      	ble.n	800511e <_dtoa_r+0x29e>
 80050cc:	469b      	mov	fp, r3
 80050ce:	9303      	str	r3, [sp, #12]
 80050d0:	f8d9 001c 	ldr.w	r0, [r9, #28]
 80050d4:	2100      	movs	r1, #0
 80050d6:	2204      	movs	r2, #4
 80050d8:	f102 0514 	add.w	r5, r2, #20
 80050dc:	429d      	cmp	r5, r3
 80050de:	d926      	bls.n	800512e <_dtoa_r+0x2ae>
 80050e0:	6041      	str	r1, [r0, #4]
 80050e2:	4648      	mov	r0, r9
 80050e4:	f000 fd9c 	bl	8005c20 <_Balloc>
 80050e8:	4682      	mov	sl, r0
 80050ea:	2800      	cmp	r0, #0
 80050ec:	d142      	bne.n	8005174 <_dtoa_r+0x2f4>
 80050ee:	4b1e      	ldr	r3, [pc, #120]	@ (8005168 <_dtoa_r+0x2e8>)
 80050f0:	4602      	mov	r2, r0
 80050f2:	f240 11af 	movw	r1, #431	@ 0x1af
 80050f6:	e6da      	b.n	8004eae <_dtoa_r+0x2e>
 80050f8:	2300      	movs	r3, #0
 80050fa:	e7e3      	b.n	80050c4 <_dtoa_r+0x244>
 80050fc:	2300      	movs	r3, #0
 80050fe:	e7d5      	b.n	80050ac <_dtoa_r+0x22c>
 8005100:	2401      	movs	r4, #1
 8005102:	2300      	movs	r3, #0
 8005104:	9307      	str	r3, [sp, #28]
 8005106:	9409      	str	r4, [sp, #36]	@ 0x24
 8005108:	f04f 3bff 	mov.w	fp, #4294967295
 800510c:	2200      	movs	r2, #0
 800510e:	f8cd b00c 	str.w	fp, [sp, #12]
 8005112:	2312      	movs	r3, #18
 8005114:	920c      	str	r2, [sp, #48]	@ 0x30
 8005116:	e7db      	b.n	80050d0 <_dtoa_r+0x250>
 8005118:	2301      	movs	r3, #1
 800511a:	9309      	str	r3, [sp, #36]	@ 0x24
 800511c:	e7f4      	b.n	8005108 <_dtoa_r+0x288>
 800511e:	f04f 0b01 	mov.w	fp, #1
 8005122:	f8cd b00c 	str.w	fp, [sp, #12]
 8005126:	465b      	mov	r3, fp
 8005128:	f8cd b030 	str.w	fp, [sp, #48]	@ 0x30
 800512c:	e7d0      	b.n	80050d0 <_dtoa_r+0x250>
 800512e:	3101      	adds	r1, #1
 8005130:	0052      	lsls	r2, r2, #1
 8005132:	e7d1      	b.n	80050d8 <_dtoa_r+0x258>
 8005134:	f3af 8000 	nop.w
 8005138:	636f4361 	.word	0x636f4361
 800513c:	3fd287a7 	.word	0x3fd287a7
 8005140:	8b60c8b3 	.word	0x8b60c8b3
 8005144:	3fc68a28 	.word	0x3fc68a28
 8005148:	509f79fb 	.word	0x509f79fb
 800514c:	3fd34413 	.word	0x3fd34413
 8005150:	080084b6 	.word	0x080084b6
 8005154:	080084cd 	.word	0x080084cd
 8005158:	7ff00000 	.word	0x7ff00000
 800515c:	08008481 	.word	0x08008481
 8005160:	3ff80000 	.word	0x3ff80000
 8005164:	08008680 	.word	0x08008680
 8005168:	08008525 	.word	0x08008525
 800516c:	080084b2 	.word	0x080084b2
 8005170:	08008480 	.word	0x08008480
 8005174:	f8d9 301c 	ldr.w	r3, [r9, #28]
 8005178:	6018      	str	r0, [r3, #0]
 800517a:	9b03      	ldr	r3, [sp, #12]
 800517c:	2b0e      	cmp	r3, #14
 800517e:	f200 80a1 	bhi.w	80052c4 <_dtoa_r+0x444>
 8005182:	2c00      	cmp	r4, #0
 8005184:	f000 809e 	beq.w	80052c4 <_dtoa_r+0x444>
 8005188:	2f00      	cmp	r7, #0
 800518a:	dd33      	ble.n	80051f4 <_dtoa_r+0x374>
 800518c:	4b9c      	ldr	r3, [pc, #624]	@ (8005400 <_dtoa_r+0x580>)
 800518e:	f007 020f 	and.w	r2, r7, #15
 8005192:	eb03 03c2 	add.w	r3, r3, r2, lsl #3
 8005196:	ed93 7b00 	vldr	d7, [r3]
 800519a:	05f8      	lsls	r0, r7, #23
 800519c:	ed8d 7b0e 	vstr	d7, [sp, #56]	@ 0x38
 80051a0:	ea4f 1427 	mov.w	r4, r7, asr #4
 80051a4:	d516      	bpl.n	80051d4 <_dtoa_r+0x354>
 80051a6:	4b97      	ldr	r3, [pc, #604]	@ (8005404 <_dtoa_r+0x584>)
 80051a8:	e9dd 010a 	ldrd	r0, r1, [sp, #40]	@ 0x28
 80051ac:	e9d3 2308 	ldrd	r2, r3, [r3, #32]
 80051b0:	f7fb fb74 	bl	800089c <__aeabi_ddiv>
 80051b4:	e9cd 0104 	strd	r0, r1, [sp, #16]
 80051b8:	f004 040f 	and.w	r4, r4, #15
 80051bc:	2603      	movs	r6, #3
 80051be:	4d91      	ldr	r5, [pc, #580]	@ (8005404 <_dtoa_r+0x584>)
 80051c0:	b954      	cbnz	r4, 80051d8 <_dtoa_r+0x358>
 80051c2:	e9dd 230e 	ldrd	r2, r3, [sp, #56]	@ 0x38
 80051c6:	e9dd 0104 	ldrd	r0, r1, [sp, #16]
 80051ca:	f7fb fb67 	bl	800089c <__aeabi_ddiv>
 80051ce:	e9cd 0104 	strd	r0, r1, [sp, #16]
 80051d2:	e028      	b.n	8005226 <_dtoa_r+0x3a6>
 80051d4:	2602      	movs	r6, #2
 80051d6:	e7f2      	b.n	80051be <_dtoa_r+0x33e>
 80051d8:	07e1      	lsls	r1, r4, #31
 80051da:	d508      	bpl.n	80051ee <_dtoa_r+0x36e>
 80051dc:	e9dd 010e 	ldrd	r0, r1, [sp, #56]	@ 0x38
 80051e0:	e9d5 2300 	ldrd	r2, r3, [r5]
 80051e4:	f7fb fa30 	bl	8000648 <__aeabi_dmul>
 80051e8:	e9cd 010e 	strd	r0, r1, [sp, #56]	@ 0x38
 80051ec:	3601      	adds	r6, #1
 80051ee:	1064      	asrs	r4, r4, #1
 80051f0:	3508      	adds	r5, #8
 80051f2:	e7e5      	b.n	80051c0 <_dtoa_r+0x340>
 80051f4:	f000 80af 	beq.w	8005356 <_dtoa_r+0x4d6>
 80051f8:	427c      	negs	r4, r7
 80051fa:	4b81      	ldr	r3, [pc, #516]	@ (8005400 <_dtoa_r+0x580>)
 80051fc:	4d81      	ldr	r5, [pc, #516]	@ (8005404 <_dtoa_r+0x584>)
 80051fe:	f004 020f 	and.w	r2, r4, #15
 8005202:	eb03 03c2 	add.w	r3, r3, r2, lsl #3
 8005206:	e9d3 2300 	ldrd	r2, r3, [r3]
 800520a:	e9dd 010a 	ldrd	r0, r1, [sp, #40]	@ 0x28
 800520e:	f7fb fa1b 	bl	8000648 <__aeabi_dmul>
 8005212:	e9cd 0104 	strd	r0, r1, [sp, #16]
 8005216:	1124      	asrs	r4, r4, #4
 8005218:	2300      	movs	r3, #0
 800521a:	2602      	movs	r6, #2
 800521c:	2c00      	cmp	r4, #0
 800521e:	f040 808f 	bne.w	8005340 <_dtoa_r+0x4c0>
 8005222:	2b00      	cmp	r3, #0
 8005224:	d1d3      	bne.n	80051ce <_dtoa_r+0x34e>
 8005226:	9b10      	ldr	r3, [sp, #64]	@ 0x40
 8005228:	e9dd 4504 	ldrd	r4, r5, [sp, #16]
 800522c:	2b00      	cmp	r3, #0
 800522e:	f000 8094 	beq.w	800535a <_dtoa_r+0x4da>
 8005232:	4b75      	ldr	r3, [pc, #468]	@ (8005408 <_dtoa_r+0x588>)
 8005234:	2200      	movs	r2, #0
 8005236:	4620      	mov	r0, r4
 8005238:	4629      	mov	r1, r5
 800523a:	f7fb fc77 	bl	8000b2c <__aeabi_dcmplt>
 800523e:	2800      	cmp	r0, #0
 8005240:	f000 808b 	beq.w	800535a <_dtoa_r+0x4da>
 8005244:	9b03      	ldr	r3, [sp, #12]
 8005246:	2b00      	cmp	r3, #0
 8005248:	f000 8087 	beq.w	800535a <_dtoa_r+0x4da>
 800524c:	f1bb 0f00 	cmp.w	fp, #0
 8005250:	dd34      	ble.n	80052bc <_dtoa_r+0x43c>
 8005252:	4620      	mov	r0, r4
 8005254:	4b6d      	ldr	r3, [pc, #436]	@ (800540c <_dtoa_r+0x58c>)
 8005256:	2200      	movs	r2, #0
 8005258:	4629      	mov	r1, r5
 800525a:	f7fb f9f5 	bl	8000648 <__aeabi_dmul>
 800525e:	e9cd 0104 	strd	r0, r1, [sp, #16]
 8005262:	f107 38ff 	add.w	r8, r7, #4294967295
 8005266:	3601      	adds	r6, #1
 8005268:	465c      	mov	r4, fp
 800526a:	4630      	mov	r0, r6
 800526c:	f7fb f982 	bl	8000574 <__aeabi_i2d>
 8005270:	e9dd 2304 	ldrd	r2, r3, [sp, #16]
 8005274:	f7fb f9e8 	bl	8000648 <__aeabi_dmul>
 8005278:	4b65      	ldr	r3, [pc, #404]	@ (8005410 <_dtoa_r+0x590>)
 800527a:	2200      	movs	r2, #0
 800527c:	f7fb f82e 	bl	80002dc <__adddf3>
 8005280:	4605      	mov	r5, r0
 8005282:	f1a1 7650 	sub.w	r6, r1, #54525952	@ 0x3400000
 8005286:	2c00      	cmp	r4, #0
 8005288:	d16a      	bne.n	8005360 <_dtoa_r+0x4e0>
 800528a:	e9dd 0104 	ldrd	r0, r1, [sp, #16]
 800528e:	4b61      	ldr	r3, [pc, #388]	@ (8005414 <_dtoa_r+0x594>)
 8005290:	2200      	movs	r2, #0
 8005292:	f7fb f821 	bl	80002d8 <__aeabi_dsub>
 8005296:	4602      	mov	r2, r0
 8005298:	460b      	mov	r3, r1
 800529a:	e9cd 2304 	strd	r2, r3, [sp, #16]
 800529e:	462a      	mov	r2, r5
 80052a0:	4633      	mov	r3, r6
 80052a2:	f7fb fc61 	bl	8000b68 <__aeabi_dcmpgt>
 80052a6:	2800      	cmp	r0, #0
 80052a8:	f040 8298 	bne.w	80057dc <_dtoa_r+0x95c>
 80052ac:	e9dd 0104 	ldrd	r0, r1, [sp, #16]
 80052b0:	462a      	mov	r2, r5
 80052b2:	f106 4300 	add.w	r3, r6, #2147483648	@ 0x80000000
 80052b6:	f7fb fc39 	bl	8000b2c <__aeabi_dcmplt>
 80052ba:	bb38      	cbnz	r0, 800530c <_dtoa_r+0x48c>
 80052bc:	e9dd 340a 	ldrd	r3, r4, [sp, #40]	@ 0x28
 80052c0:	e9cd 3404 	strd	r3, r4, [sp, #16]
 80052c4:	9b15      	ldr	r3, [sp, #84]	@ 0x54
 80052c6:	2b00      	cmp	r3, #0
 80052c8:	f2c0 8157 	blt.w	800557a <_dtoa_r+0x6fa>
 80052cc:	2f0e      	cmp	r7, #14
 80052ce:	f300 8154 	bgt.w	800557a <_dtoa_r+0x6fa>
 80052d2:	4b4b      	ldr	r3, [pc, #300]	@ (8005400 <_dtoa_r+0x580>)
 80052d4:	eb03 03c7 	add.w	r3, r3, r7, lsl #3
 80052d8:	ed93 7b00 	vldr	d7, [r3]
 80052dc:	9b0c      	ldr	r3, [sp, #48]	@ 0x30
 80052de:	2b00      	cmp	r3, #0
 80052e0:	ed8d 7b00 	vstr	d7, [sp]
 80052e4:	f280 80e5 	bge.w	80054b2 <_dtoa_r+0x632>
 80052e8:	9b03      	ldr	r3, [sp, #12]
 80052ea:	2b00      	cmp	r3, #0
 80052ec:	f300 80e1 	bgt.w	80054b2 <_dtoa_r+0x632>
 80052f0:	d10c      	bne.n	800530c <_dtoa_r+0x48c>
 80052f2:	4b48      	ldr	r3, [pc, #288]	@ (8005414 <_dtoa_r+0x594>)
 80052f4:	2200      	movs	r2, #0
 80052f6:	ec51 0b17 	vmov	r0, r1, d7
 80052fa:	f7fb f9a5 	bl	8000648 <__aeabi_dmul>
 80052fe:	e9dd 2304 	ldrd	r2, r3, [sp, #16]
 8005302:	f7fb fc27 	bl	8000b54 <__aeabi_dcmpge>
 8005306:	2800      	cmp	r0, #0
 8005308:	f000 8266 	beq.w	80057d8 <_dtoa_r+0x958>
 800530c:	2400      	movs	r4, #0
 800530e:	4625      	mov	r5, r4
 8005310:	9b0c      	ldr	r3, [sp, #48]	@ 0x30
 8005312:	4656      	mov	r6, sl
 8005314:	ea6f 0803 	mvn.w	r8, r3
 8005318:	2700      	movs	r7, #0
 800531a:	4621      	mov	r1, r4
 800531c:	4648      	mov	r0, r9
 800531e:	f000 fcbf 	bl	8005ca0 <_Bfree>
 8005322:	2d00      	cmp	r5, #0
 8005324:	f000 80bd 	beq.w	80054a2 <_dtoa_r+0x622>
 8005328:	b12f      	cbz	r7, 8005336 <_dtoa_r+0x4b6>
 800532a:	42af      	cmp	r7, r5
 800532c:	d003      	beq.n	8005336 <_dtoa_r+0x4b6>
 800532e:	4639      	mov	r1, r7
 8005330:	4648      	mov	r0, r9
 8005332:	f000 fcb5 	bl	8005ca0 <_Bfree>
 8005336:	4629      	mov	r1, r5
 8005338:	4648      	mov	r0, r9
 800533a:	f000 fcb1 	bl	8005ca0 <_Bfree>
 800533e:	e0b0      	b.n	80054a2 <_dtoa_r+0x622>
 8005340:	07e2      	lsls	r2, r4, #31
 8005342:	d505      	bpl.n	8005350 <_dtoa_r+0x4d0>
 8005344:	e9d5 2300 	ldrd	r2, r3, [r5]
 8005348:	f7fb f97e 	bl	8000648 <__aeabi_dmul>
 800534c:	3601      	adds	r6, #1
 800534e:	2301      	movs	r3, #1
 8005350:	1064      	asrs	r4, r4, #1
 8005352:	3508      	adds	r5, #8
 8005354:	e762      	b.n	800521c <_dtoa_r+0x39c>
 8005356:	2602      	movs	r6, #2
 8005358:	e765      	b.n	8005226 <_dtoa_r+0x3a6>
 800535a:	9c03      	ldr	r4, [sp, #12]
 800535c:	46b8      	mov	r8, r7
 800535e:	e784      	b.n	800526a <_dtoa_r+0x3ea>
 8005360:	4b27      	ldr	r3, [pc, #156]	@ (8005400 <_dtoa_r+0x580>)
 8005362:	9909      	ldr	r1, [sp, #36]	@ 0x24
 8005364:	eb03 03c4 	add.w	r3, r3, r4, lsl #3
 8005368:	e953 2302 	ldrd	r2, r3, [r3, #-8]
 800536c:	4454      	add	r4, sl
 800536e:	2900      	cmp	r1, #0
 8005370:	d054      	beq.n	800541c <_dtoa_r+0x59c>
 8005372:	4929      	ldr	r1, [pc, #164]	@ (8005418 <_dtoa_r+0x598>)
 8005374:	2000      	movs	r0, #0
 8005376:	f7fb fa91 	bl	800089c <__aeabi_ddiv>
 800537a:	4633      	mov	r3, r6
 800537c:	462a      	mov	r2, r5
 800537e:	f7fa ffab 	bl	80002d8 <__aeabi_dsub>
 8005382:	e9cd 010e 	strd	r0, r1, [sp, #56]	@ 0x38
 8005386:	4656      	mov	r6, sl
 8005388:	e9dd 0104 	ldrd	r0, r1, [sp, #16]
 800538c:	f7fb fc0c 	bl	8000ba8 <__aeabi_d2iz>
 8005390:	4605      	mov	r5, r0
 8005392:	f7fb f8ef 	bl	8000574 <__aeabi_i2d>
 8005396:	4602      	mov	r2, r0
 8005398:	460b      	mov	r3, r1
 800539a:	e9dd 0104 	ldrd	r0, r1, [sp, #16]
 800539e:	f7fa ff9b 	bl	80002d8 <__aeabi_dsub>
 80053a2:	3530      	adds	r5, #48	@ 0x30
 80053a4:	4602      	mov	r2, r0
 80053a6:	460b      	mov	r3, r1
 80053a8:	e9cd 2304 	strd	r2, r3, [sp, #16]
 80053ac:	f806 5b01 	strb.w	r5, [r6], #1
 80053b0:	e9dd 230e 	ldrd	r2, r3, [sp, #56]	@ 0x38
 80053b4:	f7fb fbba 	bl	8000b2c <__aeabi_dcmplt>
 80053b8:	2800      	cmp	r0, #0
 80053ba:	d172      	bne.n	80054a2 <_dtoa_r+0x622>
 80053bc:	e9dd 2304 	ldrd	r2, r3, [sp, #16]
 80053c0:	4911      	ldr	r1, [pc, #68]	@ (8005408 <_dtoa_r+0x588>)
 80053c2:	2000      	movs	r0, #0
 80053c4:	f7fa ff88 	bl	80002d8 <__aeabi_dsub>
 80053c8:	e9dd 230e 	ldrd	r2, r3, [sp, #56]	@ 0x38
 80053cc:	f7fb fbae 	bl	8000b2c <__aeabi_dcmplt>
 80053d0:	2800      	cmp	r0, #0
 80053d2:	f040 80b4 	bne.w	800553e <_dtoa_r+0x6be>
 80053d6:	42a6      	cmp	r6, r4
 80053d8:	f43f af70 	beq.w	80052bc <_dtoa_r+0x43c>
 80053dc:	e9dd 010e 	ldrd	r0, r1, [sp, #56]	@ 0x38
 80053e0:	4b0a      	ldr	r3, [pc, #40]	@ (800540c <_dtoa_r+0x58c>)
 80053e2:	2200      	movs	r2, #0
 80053e4:	f7fb f930 	bl	8000648 <__aeabi_dmul>
 80053e8:	4b08      	ldr	r3, [pc, #32]	@ (800540c <_dtoa_r+0x58c>)
 80053ea:	e9cd 010e 	strd	r0, r1, [sp, #56]	@ 0x38
 80053ee:	2200      	movs	r2, #0
 80053f0:	e9dd 0104 	ldrd	r0, r1, [sp, #16]
 80053f4:	f7fb f928 	bl	8000648 <__aeabi_dmul>
 80053f8:	e9cd 0104 	strd	r0, r1, [sp, #16]
 80053fc:	e7c4      	b.n	8005388 <_dtoa_r+0x508>
 80053fe:	bf00      	nop
 8005400:	08008680 	.word	0x08008680
 8005404:	08008658 	.word	0x08008658
 8005408:	3ff00000 	.word	0x3ff00000
 800540c:	40240000 	.word	0x40240000
 8005410:	401c0000 	.word	0x401c0000
 8005414:	40140000 	.word	0x40140000
 8005418:	3fe00000 	.word	0x3fe00000
 800541c:	4631      	mov	r1, r6
 800541e:	4628      	mov	r0, r5
 8005420:	f7fb f912 	bl	8000648 <__aeabi_dmul>
 8005424:	e9cd 010e 	strd	r0, r1, [sp, #56]	@ 0x38
 8005428:	9413      	str	r4, [sp, #76]	@ 0x4c
 800542a:	4656      	mov	r6, sl
 800542c:	e9dd 0104 	ldrd	r0, r1, [sp, #16]
 8005430:	f7fb fbba 	bl	8000ba8 <__aeabi_d2iz>
 8005434:	4605      	mov	r5, r0
 8005436:	f7fb f89d 	bl	8000574 <__aeabi_i2d>
 800543a:	4602      	mov	r2, r0
 800543c:	460b      	mov	r3, r1
 800543e:	e9dd 0104 	ldrd	r0, r1, [sp, #16]
 8005442:	f7fa ff49 	bl	80002d8 <__aeabi_dsub>
 8005446:	3530      	adds	r5, #48	@ 0x30
 8005448:	f806 5b01 	strb.w	r5, [r6], #1
 800544c:	4602      	mov	r2, r0
 800544e:	460b      	mov	r3, r1
 8005450:	42a6      	cmp	r6, r4
 8005452:	e9cd 2304 	strd	r2, r3, [sp, #16]
 8005456:	f04f 0200 	mov.w	r2, #0
 800545a:	d124      	bne.n	80054a6 <_dtoa_r+0x626>
 800545c:	4baf      	ldr	r3, [pc, #700]	@ (800571c <_dtoa_r+0x89c>)
 800545e:	e9dd 010e 	ldrd	r0, r1, [sp, #56]	@ 0x38
 8005462:	f7fa ff3b 	bl	80002dc <__adddf3>
 8005466:	4602      	mov	r2, r0
 8005468:	460b      	mov	r3, r1
 800546a:	e9dd 0104 	ldrd	r0, r1, [sp, #16]
 800546e:	f7fb fb7b 	bl	8000b68 <__aeabi_dcmpgt>
 8005472:	2800      	cmp	r0, #0
 8005474:	d163      	bne.n	800553e <_dtoa_r+0x6be>
 8005476:	e9dd 230e 	ldrd	r2, r3, [sp, #56]	@ 0x38
 800547a:	49a8      	ldr	r1, [pc, #672]	@ (800571c <_dtoa_r+0x89c>)
 800547c:	2000      	movs	r0, #0
 800547e:	f7fa ff2b 	bl	80002d8 <__aeabi_dsub>
 8005482:	4602      	mov	r2, r0
 8005484:	460b      	mov	r3, r1
 8005486:	e9dd 0104 	ldrd	r0, r1, [sp, #16]
 800548a:	f7fb fb4f 	bl	8000b2c <__aeabi_dcmplt>
 800548e:	2800      	cmp	r0, #0
 8005490:	f43f af14 	beq.w	80052bc <_dtoa_r+0x43c>
 8005494:	9e13      	ldr	r6, [sp, #76]	@ 0x4c
 8005496:	1e73      	subs	r3, r6, #1
 8005498:	9313      	str	r3, [sp, #76]	@ 0x4c
 800549a:	f816 3c01 	ldrb.w	r3, [r6, #-1]
 800549e:	2b30      	cmp	r3, #48	@ 0x30
 80054a0:	d0f8      	beq.n	8005494 <_dtoa_r+0x614>
 80054a2:	4647      	mov	r7, r8
 80054a4:	e03b      	b.n	800551e <_dtoa_r+0x69e>
 80054a6:	4b9e      	ldr	r3, [pc, #632]	@ (8005720 <_dtoa_r+0x8a0>)
 80054a8:	f7fb f8ce 	bl	8000648 <__aeabi_dmul>
 80054ac:	e9cd 0104 	strd	r0, r1, [sp, #16]
 80054b0:	e7bc      	b.n	800542c <_dtoa_r+0x5ac>
 80054b2:	e9dd 4504 	ldrd	r4, r5, [sp, #16]
 80054b6:	4656      	mov	r6, sl
 80054b8:	e9dd 2300 	ldrd	r2, r3, [sp]
 80054bc:	4620      	mov	r0, r4
 80054be:	4629      	mov	r1, r5
 80054c0:	f7fb f9ec 	bl	800089c <__aeabi_ddiv>
 80054c4:	f7fb fb70 	bl	8000ba8 <__aeabi_d2iz>
 80054c8:	4680      	mov	r8, r0
 80054ca:	f7fb f853 	bl	8000574 <__aeabi_i2d>
 80054ce:	e9dd 2300 	ldrd	r2, r3, [sp]
 80054d2:	f7fb f8b9 	bl	8000648 <__aeabi_dmul>
 80054d6:	4602      	mov	r2, r0
 80054d8:	460b      	mov	r3, r1
 80054da:	4620      	mov	r0, r4
 80054dc:	4629      	mov	r1, r5
 80054de:	f108 0430 	add.w	r4, r8, #48	@ 0x30
 80054e2:	f7fa fef9 	bl	80002d8 <__aeabi_dsub>
 80054e6:	f806 4b01 	strb.w	r4, [r6], #1
 80054ea:	9d03      	ldr	r5, [sp, #12]
 80054ec:	eba6 040a 	sub.w	r4, r6, sl
 80054f0:	42a5      	cmp	r5, r4
 80054f2:	4602      	mov	r2, r0
 80054f4:	460b      	mov	r3, r1
 80054f6:	d133      	bne.n	8005560 <_dtoa_r+0x6e0>
 80054f8:	f7fa fef0 	bl	80002dc <__adddf3>
 80054fc:	e9dd 2300 	ldrd	r2, r3, [sp]
 8005500:	4604      	mov	r4, r0
 8005502:	460d      	mov	r5, r1
 8005504:	f7fb fb30 	bl	8000b68 <__aeabi_dcmpgt>
 8005508:	b9c0      	cbnz	r0, 800553c <_dtoa_r+0x6bc>
 800550a:	e9dd 2300 	ldrd	r2, r3, [sp]
 800550e:	4620      	mov	r0, r4
 8005510:	4629      	mov	r1, r5
 8005512:	f7fb fb01 	bl	8000b18 <__aeabi_dcmpeq>
 8005516:	b110      	cbz	r0, 800551e <_dtoa_r+0x69e>
 8005518:	f018 0f01 	tst.w	r8, #1
 800551c:	d10e      	bne.n	800553c <_dtoa_r+0x6bc>
 800551e:	9902      	ldr	r1, [sp, #8]
 8005520:	4648      	mov	r0, r9
 8005522:	f000 fbbd 	bl	8005ca0 <_Bfree>
 8005526:	2300      	movs	r3, #0
 8005528:	7033      	strb	r3, [r6, #0]
 800552a:	9b11      	ldr	r3, [sp, #68]	@ 0x44
 800552c:	3701      	adds	r7, #1
 800552e:	601f      	str	r7, [r3, #0]
 8005530:	9b21      	ldr	r3, [sp, #132]	@ 0x84
 8005532:	2b00      	cmp	r3, #0
 8005534:	f000 824b 	beq.w	80059ce <_dtoa_r+0xb4e>
 8005538:	601e      	str	r6, [r3, #0]
 800553a:	e248      	b.n	80059ce <_dtoa_r+0xb4e>
 800553c:	46b8      	mov	r8, r7
 800553e:	4633      	mov	r3, r6
 8005540:	461e      	mov	r6, r3
 8005542:	f813 2d01 	ldrb.w	r2, [r3, #-1]!
 8005546:	2a39      	cmp	r2, #57	@ 0x39
 8005548:	d106      	bne.n	8005558 <_dtoa_r+0x6d8>
 800554a:	459a      	cmp	sl, r3
 800554c:	d1f8      	bne.n	8005540 <_dtoa_r+0x6c0>
 800554e:	2230      	movs	r2, #48	@ 0x30
 8005550:	f108 0801 	add.w	r8, r8, #1
 8005554:	f88a 2000 	strb.w	r2, [sl]
 8005558:	781a      	ldrb	r2, [r3, #0]
 800555a:	3201      	adds	r2, #1
 800555c:	701a      	strb	r2, [r3, #0]
 800555e:	e7a0      	b.n	80054a2 <_dtoa_r+0x622>
 8005560:	4b6f      	ldr	r3, [pc, #444]	@ (8005720 <_dtoa_r+0x8a0>)
 8005562:	2200      	movs	r2, #0
 8005564:	f7fb f870 	bl	8000648 <__aeabi_dmul>
 8005568:	2200      	movs	r2, #0
 800556a:	2300      	movs	r3, #0
 800556c:	4604      	mov	r4, r0
 800556e:	460d      	mov	r5, r1
 8005570:	f7fb fad2 	bl	8000b18 <__aeabi_dcmpeq>
 8005574:	2800      	cmp	r0, #0
 8005576:	d09f      	beq.n	80054b8 <_dtoa_r+0x638>
 8005578:	e7d1      	b.n	800551e <_dtoa_r+0x69e>
 800557a:	9a09      	ldr	r2, [sp, #36]	@ 0x24
 800557c:	2a00      	cmp	r2, #0
 800557e:	f000 80ea 	beq.w	8005756 <_dtoa_r+0x8d6>
 8005582:	9a07      	ldr	r2, [sp, #28]
 8005584:	2a01      	cmp	r2, #1
 8005586:	f300 80cd 	bgt.w	8005724 <_dtoa_r+0x8a4>
 800558a:	9a12      	ldr	r2, [sp, #72]	@ 0x48
 800558c:	2a00      	cmp	r2, #0
 800558e:	f000 80c1 	beq.w	8005714 <_dtoa_r+0x894>
 8005592:	f203 4333 	addw	r3, r3, #1075	@ 0x433
 8005596:	9c08      	ldr	r4, [sp, #32]
 8005598:	9e00      	ldr	r6, [sp, #0]
 800559a:	9a00      	ldr	r2, [sp, #0]
 800559c:	441a      	add	r2, r3
 800559e:	9200      	str	r2, [sp, #0]
 80055a0:	9a06      	ldr	r2, [sp, #24]
 80055a2:	2101      	movs	r1, #1
 80055a4:	441a      	add	r2, r3
 80055a6:	4648      	mov	r0, r9
 80055a8:	9206      	str	r2, [sp, #24]
 80055aa:	f000 fc77 	bl	8005e9c <__i2b>
 80055ae:	4605      	mov	r5, r0
 80055b0:	b166      	cbz	r6, 80055cc <_dtoa_r+0x74c>
 80055b2:	9b06      	ldr	r3, [sp, #24]
 80055b4:	2b00      	cmp	r3, #0
 80055b6:	dd09      	ble.n	80055cc <_dtoa_r+0x74c>
 80055b8:	42b3      	cmp	r3, r6
 80055ba:	9a00      	ldr	r2, [sp, #0]
 80055bc:	bfa8      	it	ge
 80055be:	4633      	movge	r3, r6
 80055c0:	1ad2      	subs	r2, r2, r3
 80055c2:	9200      	str	r2, [sp, #0]
 80055c4:	9a06      	ldr	r2, [sp, #24]
 80055c6:	1af6      	subs	r6, r6, r3
 80055c8:	1ad3      	subs	r3, r2, r3
 80055ca:	9306      	str	r3, [sp, #24]
 80055cc:	9b08      	ldr	r3, [sp, #32]
 80055ce:	b30b      	cbz	r3, 8005614 <_dtoa_r+0x794>
 80055d0:	9b09      	ldr	r3, [sp, #36]	@ 0x24
 80055d2:	2b00      	cmp	r3, #0
 80055d4:	f000 80c6 	beq.w	8005764 <_dtoa_r+0x8e4>
 80055d8:	2c00      	cmp	r4, #0
 80055da:	f000 80c0 	beq.w	800575e <_dtoa_r+0x8de>
 80055de:	4629      	mov	r1, r5
 80055e0:	4622      	mov	r2, r4
 80055e2:	4648      	mov	r0, r9
 80055e4:	f000 fd12 	bl	800600c <__pow5mult>
 80055e8:	9a02      	ldr	r2, [sp, #8]
 80055ea:	4601      	mov	r1, r0
 80055ec:	4605      	mov	r5, r0
 80055ee:	4648      	mov	r0, r9
 80055f0:	f000 fc6a 	bl	8005ec8 <__multiply>
 80055f4:	9902      	ldr	r1, [sp, #8]
 80055f6:	4680      	mov	r8, r0
 80055f8:	4648      	mov	r0, r9
 80055fa:	f000 fb51 	bl	8005ca0 <_Bfree>
 80055fe:	9b08      	ldr	r3, [sp, #32]
 8005600:	1b1b      	subs	r3, r3, r4
 8005602:	9308      	str	r3, [sp, #32]
 8005604:	f000 80b1 	beq.w	800576a <_dtoa_r+0x8ea>
 8005608:	9a08      	ldr	r2, [sp, #32]
 800560a:	4641      	mov	r1, r8
 800560c:	4648      	mov	r0, r9
 800560e:	f000 fcfd 	bl	800600c <__pow5mult>
 8005612:	9002      	str	r0, [sp, #8]
 8005614:	2101      	movs	r1, #1
 8005616:	4648      	mov	r0, r9
 8005618:	f000 fc40 	bl	8005e9c <__i2b>
 800561c:	9b0d      	ldr	r3, [sp, #52]	@ 0x34
 800561e:	4604      	mov	r4, r0
 8005620:	2b00      	cmp	r3, #0
 8005622:	f000 81d8 	beq.w	80059d6 <_dtoa_r+0xb56>
 8005626:	461a      	mov	r2, r3
 8005628:	4601      	mov	r1, r0
 800562a:	4648      	mov	r0, r9
 800562c:	f000 fcee 	bl	800600c <__pow5mult>
 8005630:	9b07      	ldr	r3, [sp, #28]
 8005632:	2b01      	cmp	r3, #1
 8005634:	4604      	mov	r4, r0
 8005636:	f300 809f 	bgt.w	8005778 <_dtoa_r+0x8f8>
 800563a:	9b04      	ldr	r3, [sp, #16]
 800563c:	2b00      	cmp	r3, #0
 800563e:	f040 8097 	bne.w	8005770 <_dtoa_r+0x8f0>
 8005642:	9b05      	ldr	r3, [sp, #20]
 8005644:	f3c3 0313 	ubfx	r3, r3, #0, #20
 8005648:	2b00      	cmp	r3, #0
 800564a:	f040 8093 	bne.w	8005774 <_dtoa_r+0x8f4>
 800564e:	9b05      	ldr	r3, [sp, #20]
 8005650:	f023 4300 	bic.w	r3, r3, #2147483648	@ 0x80000000
 8005654:	0d1b      	lsrs	r3, r3, #20
 8005656:	051b      	lsls	r3, r3, #20
 8005658:	b133      	cbz	r3, 8005668 <_dtoa_r+0x7e8>
 800565a:	9b00      	ldr	r3, [sp, #0]
 800565c:	3301      	adds	r3, #1
 800565e:	9300      	str	r3, [sp, #0]
 8005660:	9b06      	ldr	r3, [sp, #24]
 8005662:	3301      	adds	r3, #1
 8005664:	9306      	str	r3, [sp, #24]
 8005666:	2301      	movs	r3, #1
 8005668:	9308      	str	r3, [sp, #32]
 800566a:	9b0d      	ldr	r3, [sp, #52]	@ 0x34
 800566c:	2b00      	cmp	r3, #0
 800566e:	f000 81b8 	beq.w	80059e2 <_dtoa_r+0xb62>
 8005672:	6923      	ldr	r3, [r4, #16]
 8005674:	eb04 0383 	add.w	r3, r4, r3, lsl #2
 8005678:	6918      	ldr	r0, [r3, #16]
 800567a:	f000 fbc3 	bl	8005e04 <__hi0bits>
 800567e:	f1c0 0020 	rsb	r0, r0, #32
 8005682:	9b06      	ldr	r3, [sp, #24]
 8005684:	4418      	add	r0, r3
 8005686:	f010 001f 	ands.w	r0, r0, #31
 800568a:	f000 8082 	beq.w	8005792 <_dtoa_r+0x912>
 800568e:	f1c0 0320 	rsb	r3, r0, #32
 8005692:	2b04      	cmp	r3, #4
 8005694:	dd73      	ble.n	800577e <_dtoa_r+0x8fe>
 8005696:	9b00      	ldr	r3, [sp, #0]
 8005698:	f1c0 001c 	rsb	r0, r0, #28
 800569c:	4403      	add	r3, r0
 800569e:	9300      	str	r3, [sp, #0]
 80056a0:	9b06      	ldr	r3, [sp, #24]
 80056a2:	4403      	add	r3, r0
 80056a4:	4406      	add	r6, r0
 80056a6:	9306      	str	r3, [sp, #24]
 80056a8:	9b00      	ldr	r3, [sp, #0]
 80056aa:	2b00      	cmp	r3, #0
 80056ac:	dd05      	ble.n	80056ba <_dtoa_r+0x83a>
 80056ae:	9902      	ldr	r1, [sp, #8]
 80056b0:	461a      	mov	r2, r3
 80056b2:	4648      	mov	r0, r9
 80056b4:	f000 fd04 	bl	80060c0 <__lshift>
 80056b8:	9002      	str	r0, [sp, #8]
 80056ba:	9b06      	ldr	r3, [sp, #24]
 80056bc:	2b00      	cmp	r3, #0
 80056be:	dd05      	ble.n	80056cc <_dtoa_r+0x84c>
 80056c0:	4621      	mov	r1, r4
 80056c2:	461a      	mov	r2, r3
 80056c4:	4648      	mov	r0, r9
 80056c6:	f000 fcfb 	bl	80060c0 <__lshift>
 80056ca:	4604      	mov	r4, r0
 80056cc:	9b10      	ldr	r3, [sp, #64]	@ 0x40
 80056ce:	2b00      	cmp	r3, #0
 80056d0:	d061      	beq.n	8005796 <_dtoa_r+0x916>
 80056d2:	9802      	ldr	r0, [sp, #8]
 80056d4:	4621      	mov	r1, r4
 80056d6:	f000 fd5f 	bl	8006198 <__mcmp>
 80056da:	2800      	cmp	r0, #0
 80056dc:	da5b      	bge.n	8005796 <_dtoa_r+0x916>
 80056de:	2300      	movs	r3, #0
 80056e0:	9902      	ldr	r1, [sp, #8]
 80056e2:	220a      	movs	r2, #10
 80056e4:	4648      	mov	r0, r9
 80056e6:	f000 fafd 	bl	8005ce4 <__multadd>
 80056ea:	9b09      	ldr	r3, [sp, #36]	@ 0x24
 80056ec:	9002      	str	r0, [sp, #8]
 80056ee:	f107 38ff 	add.w	r8, r7, #4294967295
 80056f2:	2b00      	cmp	r3, #0
 80056f4:	f000 8177 	beq.w	80059e6 <_dtoa_r+0xb66>
 80056f8:	4629      	mov	r1, r5
 80056fa:	2300      	movs	r3, #0
 80056fc:	220a      	movs	r2, #10
 80056fe:	4648      	mov	r0, r9
 8005700:	f000 faf0 	bl	8005ce4 <__multadd>
 8005704:	f1bb 0f00 	cmp.w	fp, #0
 8005708:	4605      	mov	r5, r0
 800570a:	dc6f      	bgt.n	80057ec <_dtoa_r+0x96c>
 800570c:	9b07      	ldr	r3, [sp, #28]
 800570e:	2b02      	cmp	r3, #2
 8005710:	dc49      	bgt.n	80057a6 <_dtoa_r+0x926>
 8005712:	e06b      	b.n	80057ec <_dtoa_r+0x96c>
 8005714:	9b14      	ldr	r3, [sp, #80]	@ 0x50
 8005716:	f1c3 0336 	rsb	r3, r3, #54	@ 0x36
 800571a:	e73c      	b.n	8005596 <_dtoa_r+0x716>
 800571c:	3fe00000 	.word	0x3fe00000
 8005720:	40240000 	.word	0x40240000
 8005724:	9b03      	ldr	r3, [sp, #12]
 8005726:	1e5c      	subs	r4, r3, #1
 8005728:	9b08      	ldr	r3, [sp, #32]
 800572a:	42a3      	cmp	r3, r4
 800572c:	db09      	blt.n	8005742 <_dtoa_r+0x8c2>
 800572e:	1b1c      	subs	r4, r3, r4
 8005730:	9b03      	ldr	r3, [sp, #12]
 8005732:	2b00      	cmp	r3, #0
 8005734:	f6bf af30 	bge.w	8005598 <_dtoa_r+0x718>
 8005738:	9b00      	ldr	r3, [sp, #0]
 800573a:	9a03      	ldr	r2, [sp, #12]
 800573c:	1a9e      	subs	r6, r3, r2
 800573e:	2300      	movs	r3, #0
 8005740:	e72b      	b.n	800559a <_dtoa_r+0x71a>
 8005742:	9b08      	ldr	r3, [sp, #32]
 8005744:	9a0d      	ldr	r2, [sp, #52]	@ 0x34
 8005746:	9408      	str	r4, [sp, #32]
 8005748:	1ae3      	subs	r3, r4, r3
 800574a:	441a      	add	r2, r3
 800574c:	9e00      	ldr	r6, [sp, #0]
 800574e:	9b03      	ldr	r3, [sp, #12]
 8005750:	920d      	str	r2, [sp, #52]	@ 0x34
 8005752:	2400      	movs	r4, #0
 8005754:	e721      	b.n	800559a <_dtoa_r+0x71a>
 8005756:	9c08      	ldr	r4, [sp, #32]
 8005758:	9e00      	ldr	r6, [sp, #0]
 800575a:	9d09      	ldr	r5, [sp, #36]	@ 0x24
 800575c:	e728      	b.n	80055b0 <_dtoa_r+0x730>
 800575e:	f8dd 8008 	ldr.w	r8, [sp, #8]
 8005762:	e751      	b.n	8005608 <_dtoa_r+0x788>
 8005764:	9a08      	ldr	r2, [sp, #32]
 8005766:	9902      	ldr	r1, [sp, #8]
 8005768:	e750      	b.n	800560c <_dtoa_r+0x78c>
 800576a:	f8cd 8008 	str.w	r8, [sp, #8]
 800576e:	e751      	b.n	8005614 <_dtoa_r+0x794>
 8005770:	2300      	movs	r3, #0
 8005772:	e779      	b.n	8005668 <_dtoa_r+0x7e8>
 8005774:	9b04      	ldr	r3, [sp, #16]
 8005776:	e777      	b.n	8005668 <_dtoa_r+0x7e8>
 8005778:	2300      	movs	r3, #0
 800577a:	9308      	str	r3, [sp, #32]
 800577c:	e779      	b.n	8005672 <_dtoa_r+0x7f2>
 800577e:	d093      	beq.n	80056a8 <_dtoa_r+0x828>
 8005780:	9a00      	ldr	r2, [sp, #0]
 8005782:	331c      	adds	r3, #28
 8005784:	441a      	add	r2, r3
 8005786:	9200      	str	r2, [sp, #0]
 8005788:	9a06      	ldr	r2, [sp, #24]
 800578a:	441a      	add	r2, r3
 800578c:	441e      	add	r6, r3
 800578e:	9206      	str	r2, [sp, #24]
 8005790:	e78a      	b.n	80056a8 <_dtoa_r+0x828>
 8005792:	4603      	mov	r3, r0
 8005794:	e7f4      	b.n	8005780 <_dtoa_r+0x900>
 8005796:	9b03      	ldr	r3, [sp, #12]
 8005798:	2b00      	cmp	r3, #0
 800579a:	46b8      	mov	r8, r7
 800579c:	dc20      	bgt.n	80057e0 <_dtoa_r+0x960>
 800579e:	469b      	mov	fp, r3
 80057a0:	9b07      	ldr	r3, [sp, #28]
 80057a2:	2b02      	cmp	r3, #2
 80057a4:	dd1e      	ble.n	80057e4 <_dtoa_r+0x964>
 80057a6:	f1bb 0f00 	cmp.w	fp, #0
 80057aa:	f47f adb1 	bne.w	8005310 <_dtoa_r+0x490>
 80057ae:	4621      	mov	r1, r4
 80057b0:	465b      	mov	r3, fp
 80057b2:	2205      	movs	r2, #5
 80057b4:	4648      	mov	r0, r9
 80057b6:	f000 fa95 	bl	8005ce4 <__multadd>
 80057ba:	4601      	mov	r1, r0
 80057bc:	4604      	mov	r4, r0
 80057be:	9802      	ldr	r0, [sp, #8]
 80057c0:	f000 fcea 	bl	8006198 <__mcmp>
 80057c4:	2800      	cmp	r0, #0
 80057c6:	f77f ada3 	ble.w	8005310 <_dtoa_r+0x490>
 80057ca:	4656      	mov	r6, sl
 80057cc:	2331      	movs	r3, #49	@ 0x31
 80057ce:	f806 3b01 	strb.w	r3, [r6], #1
 80057d2:	f108 0801 	add.w	r8, r8, #1
 80057d6:	e59f      	b.n	8005318 <_dtoa_r+0x498>
 80057d8:	9c03      	ldr	r4, [sp, #12]
 80057da:	46b8      	mov	r8, r7
 80057dc:	4625      	mov	r5, r4
 80057de:	e7f4      	b.n	80057ca <_dtoa_r+0x94a>
 80057e0:	f8dd b00c 	ldr.w	fp, [sp, #12]
 80057e4:	9b09      	ldr	r3, [sp, #36]	@ 0x24
 80057e6:	2b00      	cmp	r3, #0
 80057e8:	f000 8101 	beq.w	80059ee <_dtoa_r+0xb6e>
 80057ec:	2e00      	cmp	r6, #0
 80057ee:	dd05      	ble.n	80057fc <_dtoa_r+0x97c>
 80057f0:	4629      	mov	r1, r5
 80057f2:	4632      	mov	r2, r6
 80057f4:	4648      	mov	r0, r9
 80057f6:	f000 fc63 	bl	80060c0 <__lshift>
 80057fa:	4605      	mov	r5, r0
 80057fc:	9b08      	ldr	r3, [sp, #32]
 80057fe:	2b00      	cmp	r3, #0
 8005800:	d05c      	beq.n	80058bc <_dtoa_r+0xa3c>
 8005802:	6869      	ldr	r1, [r5, #4]
 8005804:	4648      	mov	r0, r9
 8005806:	f000 fa0b 	bl	8005c20 <_Balloc>
 800580a:	4606      	mov	r6, r0
 800580c:	b928      	cbnz	r0, 800581a <_dtoa_r+0x99a>
 800580e:	4b82      	ldr	r3, [pc, #520]	@ (8005a18 <_dtoa_r+0xb98>)
 8005810:	4602      	mov	r2, r0
 8005812:	f240 21ef 	movw	r1, #751	@ 0x2ef
 8005816:	f7ff bb4a 	b.w	8004eae <_dtoa_r+0x2e>
 800581a:	692a      	ldr	r2, [r5, #16]
 800581c:	3202      	adds	r2, #2
 800581e:	0092      	lsls	r2, r2, #2
 8005820:	f105 010c 	add.w	r1, r5, #12
 8005824:	300c      	adds	r0, #12
 8005826:	f001 ff69 	bl	80076fc <memcpy>
 800582a:	2201      	movs	r2, #1
 800582c:	4631      	mov	r1, r6
 800582e:	4648      	mov	r0, r9
 8005830:	f000 fc46 	bl	80060c0 <__lshift>
 8005834:	f10a 0301 	add.w	r3, sl, #1
 8005838:	9300      	str	r3, [sp, #0]
 800583a:	eb0a 030b 	add.w	r3, sl, fp
 800583e:	9308      	str	r3, [sp, #32]
 8005840:	9b04      	ldr	r3, [sp, #16]
 8005842:	f003 0301 	and.w	r3, r3, #1
 8005846:	462f      	mov	r7, r5
 8005848:	9306      	str	r3, [sp, #24]
 800584a:	4605      	mov	r5, r0
 800584c:	9b00      	ldr	r3, [sp, #0]
 800584e:	9802      	ldr	r0, [sp, #8]
 8005850:	4621      	mov	r1, r4
 8005852:	f103 3bff 	add.w	fp, r3, #4294967295
 8005856:	f7ff fa8b 	bl	8004d70 <quorem>
 800585a:	4603      	mov	r3, r0
 800585c:	3330      	adds	r3, #48	@ 0x30
 800585e:	9003      	str	r0, [sp, #12]
 8005860:	4639      	mov	r1, r7
 8005862:	9802      	ldr	r0, [sp, #8]
 8005864:	9309      	str	r3, [sp, #36]	@ 0x24
 8005866:	f000 fc97 	bl	8006198 <__mcmp>
 800586a:	462a      	mov	r2, r5
 800586c:	9004      	str	r0, [sp, #16]
 800586e:	4621      	mov	r1, r4
 8005870:	4648      	mov	r0, r9
 8005872:	f000 fcad 	bl	80061d0 <__mdiff>
 8005876:	68c2      	ldr	r2, [r0, #12]
 8005878:	9b09      	ldr	r3, [sp, #36]	@ 0x24
 800587a:	4606      	mov	r6, r0
 800587c:	bb02      	cbnz	r2, 80058c0 <_dtoa_r+0xa40>
 800587e:	4601      	mov	r1, r0
 8005880:	9802      	ldr	r0, [sp, #8]
 8005882:	f000 fc89 	bl	8006198 <__mcmp>
 8005886:	9b09      	ldr	r3, [sp, #36]	@ 0x24
 8005888:	4602      	mov	r2, r0
 800588a:	4631      	mov	r1, r6
 800588c:	4648      	mov	r0, r9
 800588e:	920c      	str	r2, [sp, #48]	@ 0x30
 8005890:	9309      	str	r3, [sp, #36]	@ 0x24
 8005892:	f000 fa05 	bl	8005ca0 <_Bfree>
 8005896:	9b07      	ldr	r3, [sp, #28]
 8005898:	9a0c      	ldr	r2, [sp, #48]	@ 0x30
 800589a:	9e00      	ldr	r6, [sp, #0]
 800589c:	ea42 0103 	orr.w	r1, r2, r3
 80058a0:	9b06      	ldr	r3, [sp, #24]
 80058a2:	4319      	orrs	r1, r3
 80058a4:	9b09      	ldr	r3, [sp, #36]	@ 0x24
 80058a6:	d10d      	bne.n	80058c4 <_dtoa_r+0xa44>
 80058a8:	2b39      	cmp	r3, #57	@ 0x39
 80058aa:	d027      	beq.n	80058fc <_dtoa_r+0xa7c>
 80058ac:	9a04      	ldr	r2, [sp, #16]
 80058ae:	2a00      	cmp	r2, #0
 80058b0:	dd01      	ble.n	80058b6 <_dtoa_r+0xa36>
 80058b2:	9b03      	ldr	r3, [sp, #12]
 80058b4:	3331      	adds	r3, #49	@ 0x31
 80058b6:	f88b 3000 	strb.w	r3, [fp]
 80058ba:	e52e      	b.n	800531a <_dtoa_r+0x49a>
 80058bc:	4628      	mov	r0, r5
 80058be:	e7b9      	b.n	8005834 <_dtoa_r+0x9b4>
 80058c0:	2201      	movs	r2, #1
 80058c2:	e7e2      	b.n	800588a <_dtoa_r+0xa0a>
 80058c4:	9904      	ldr	r1, [sp, #16]
 80058c6:	2900      	cmp	r1, #0
 80058c8:	db04      	blt.n	80058d4 <_dtoa_r+0xa54>
 80058ca:	9807      	ldr	r0, [sp, #28]
 80058cc:	4301      	orrs	r1, r0
 80058ce:	9806      	ldr	r0, [sp, #24]
 80058d0:	4301      	orrs	r1, r0
 80058d2:	d120      	bne.n	8005916 <_dtoa_r+0xa96>
 80058d4:	2a00      	cmp	r2, #0
 80058d6:	ddee      	ble.n	80058b6 <_dtoa_r+0xa36>
 80058d8:	9902      	ldr	r1, [sp, #8]
 80058da:	9300      	str	r3, [sp, #0]
 80058dc:	2201      	movs	r2, #1
 80058de:	4648      	mov	r0, r9
 80058e0:	f000 fbee 	bl	80060c0 <__lshift>
 80058e4:	4621      	mov	r1, r4
 80058e6:	9002      	str	r0, [sp, #8]
 80058e8:	f000 fc56 	bl	8006198 <__mcmp>
 80058ec:	2800      	cmp	r0, #0
 80058ee:	9b00      	ldr	r3, [sp, #0]
 80058f0:	dc02      	bgt.n	80058f8 <_dtoa_r+0xa78>
 80058f2:	d1e0      	bne.n	80058b6 <_dtoa_r+0xa36>
 80058f4:	07da      	lsls	r2, r3, #31
 80058f6:	d5de      	bpl.n	80058b6 <_dtoa_r+0xa36>
 80058f8:	2b39      	cmp	r3, #57	@ 0x39
 80058fa:	d1da      	bne.n	80058b2 <_dtoa_r+0xa32>
 80058fc:	2339      	movs	r3, #57	@ 0x39
 80058fe:	f88b 3000 	strb.w	r3, [fp]
 8005902:	4633      	mov	r3, r6
 8005904:	461e      	mov	r6, r3
 8005906:	3b01      	subs	r3, #1
 8005908:	f816 2c01 	ldrb.w	r2, [r6, #-1]
 800590c:	2a39      	cmp	r2, #57	@ 0x39
 800590e:	d04e      	beq.n	80059ae <_dtoa_r+0xb2e>
 8005910:	3201      	adds	r2, #1
 8005912:	701a      	strb	r2, [r3, #0]
 8005914:	e501      	b.n	800531a <_dtoa_r+0x49a>
 8005916:	2a00      	cmp	r2, #0
 8005918:	dd03      	ble.n	8005922 <_dtoa_r+0xaa2>
 800591a:	2b39      	cmp	r3, #57	@ 0x39
 800591c:	d0ee      	beq.n	80058fc <_dtoa_r+0xa7c>
 800591e:	3301      	adds	r3, #1
 8005920:	e7c9      	b.n	80058b6 <_dtoa_r+0xa36>
 8005922:	9a00      	ldr	r2, [sp, #0]
 8005924:	9908      	ldr	r1, [sp, #32]
 8005926:	f802 3c01 	strb.w	r3, [r2, #-1]
 800592a:	428a      	cmp	r2, r1
 800592c:	d028      	beq.n	8005980 <_dtoa_r+0xb00>
 800592e:	9902      	ldr	r1, [sp, #8]
 8005930:	2300      	movs	r3, #0
 8005932:	220a      	movs	r2, #10
 8005934:	4648      	mov	r0, r9
 8005936:	f000 f9d5 	bl	8005ce4 <__multadd>
 800593a:	42af      	cmp	r7, r5
 800593c:	9002      	str	r0, [sp, #8]
 800593e:	f04f 0300 	mov.w	r3, #0
 8005942:	f04f 020a 	mov.w	r2, #10
 8005946:	4639      	mov	r1, r7
 8005948:	4648      	mov	r0, r9
 800594a:	d107      	bne.n	800595c <_dtoa_r+0xadc>
 800594c:	f000 f9ca 	bl	8005ce4 <__multadd>
 8005950:	4607      	mov	r7, r0
 8005952:	4605      	mov	r5, r0
 8005954:	9b00      	ldr	r3, [sp, #0]
 8005956:	3301      	adds	r3, #1
 8005958:	9300      	str	r3, [sp, #0]
 800595a:	e777      	b.n	800584c <_dtoa_r+0x9cc>
 800595c:	f000 f9c2 	bl	8005ce4 <__multadd>
 8005960:	4629      	mov	r1, r5
 8005962:	4607      	mov	r7, r0
 8005964:	2300      	movs	r3, #0
 8005966:	220a      	movs	r2, #10
 8005968:	4648      	mov	r0, r9
 800596a:	f000 f9bb 	bl	8005ce4 <__multadd>
 800596e:	4605      	mov	r5, r0
 8005970:	e7f0      	b.n	8005954 <_dtoa_r+0xad4>
 8005972:	f1bb 0f00 	cmp.w	fp, #0
 8005976:	bfcc      	ite	gt
 8005978:	465e      	movgt	r6, fp
 800597a:	2601      	movle	r6, #1
 800597c:	4456      	add	r6, sl
 800597e:	2700      	movs	r7, #0
 8005980:	9902      	ldr	r1, [sp, #8]
 8005982:	9300      	str	r3, [sp, #0]
 8005984:	2201      	movs	r2, #1
 8005986:	4648      	mov	r0, r9
 8005988:	f000 fb9a 	bl	80060c0 <__lshift>
 800598c:	4621      	mov	r1, r4
 800598e:	9002      	str	r0, [sp, #8]
 8005990:	f000 fc02 	bl	8006198 <__mcmp>
 8005994:	2800      	cmp	r0, #0
 8005996:	dcb4      	bgt.n	8005902 <_dtoa_r+0xa82>
 8005998:	d102      	bne.n	80059a0 <_dtoa_r+0xb20>
 800599a:	9b00      	ldr	r3, [sp, #0]
 800599c:	07db      	lsls	r3, r3, #31
 800599e:	d4b0      	bmi.n	8005902 <_dtoa_r+0xa82>
 80059a0:	4633      	mov	r3, r6
 80059a2:	461e      	mov	r6, r3
 80059a4:	f813 2d01 	ldrb.w	r2, [r3, #-1]!
 80059a8:	2a30      	cmp	r2, #48	@ 0x30
 80059aa:	d0fa      	beq.n	80059a2 <_dtoa_r+0xb22>
 80059ac:	e4b5      	b.n	800531a <_dtoa_r+0x49a>
 80059ae:	459a      	cmp	sl, r3
 80059b0:	d1a8      	bne.n	8005904 <_dtoa_r+0xa84>
 80059b2:	2331      	movs	r3, #49	@ 0x31
 80059b4:	f108 0801 	add.w	r8, r8, #1
 80059b8:	f88a 3000 	strb.w	r3, [sl]
 80059bc:	e4ad      	b.n	800531a <_dtoa_r+0x49a>
 80059be:	9b21      	ldr	r3, [sp, #132]	@ 0x84
 80059c0:	f8df a058 	ldr.w	sl, [pc, #88]	@ 8005a1c <_dtoa_r+0xb9c>
 80059c4:	b11b      	cbz	r3, 80059ce <_dtoa_r+0xb4e>
 80059c6:	f10a 0308 	add.w	r3, sl, #8
 80059ca:	9a21      	ldr	r2, [sp, #132]	@ 0x84
 80059cc:	6013      	str	r3, [r2, #0]
 80059ce:	4650      	mov	r0, sl
 80059d0:	b017      	add	sp, #92	@ 0x5c
 80059d2:	e8bd 8ff0 	ldmia.w	sp!, {r4, r5, r6, r7, r8, r9, sl, fp, pc}
 80059d6:	9b07      	ldr	r3, [sp, #28]
 80059d8:	2b01      	cmp	r3, #1
 80059da:	f77f ae2e 	ble.w	800563a <_dtoa_r+0x7ba>
 80059de:	9b0d      	ldr	r3, [sp, #52]	@ 0x34
 80059e0:	9308      	str	r3, [sp, #32]
 80059e2:	2001      	movs	r0, #1
 80059e4:	e64d      	b.n	8005682 <_dtoa_r+0x802>
 80059e6:	f1bb 0f00 	cmp.w	fp, #0
 80059ea:	f77f aed9 	ble.w	80057a0 <_dtoa_r+0x920>
 80059ee:	4656      	mov	r6, sl
 80059f0:	9802      	ldr	r0, [sp, #8]
 80059f2:	4621      	mov	r1, r4
 80059f4:	f7ff f9bc 	bl	8004d70 <quorem>
 80059f8:	f100 0330 	add.w	r3, r0, #48	@ 0x30
 80059fc:	f806 3b01 	strb.w	r3, [r6], #1
 8005a00:	eba6 020a 	sub.w	r2, r6, sl
 8005a04:	4593      	cmp	fp, r2
 8005a06:	ddb4      	ble.n	8005972 <_dtoa_r+0xaf2>
 8005a08:	9902      	ldr	r1, [sp, #8]
 8005a0a:	2300      	movs	r3, #0
 8005a0c:	220a      	movs	r2, #10
 8005a0e:	4648      	mov	r0, r9
 8005a10:	f000 f968 	bl	8005ce4 <__multadd>
 8005a14:	9002      	str	r0, [sp, #8]
 8005a16:	e7eb      	b.n	80059f0 <_dtoa_r+0xb70>
 8005a18:	08008525 	.word	0x08008525
 8005a1c:	080084a9 	.word	0x080084a9

08005a20 <_free_r>:
 8005a20:	b538      	push	{r3, r4, r5, lr}
 8005a22:	4605      	mov	r5, r0
 8005a24:	2900      	cmp	r1, #0
 8005a26:	d041      	beq.n	8005aac <_free_r+0x8c>
 8005a28:	f851 3c04 	ldr.w	r3, [r1, #-4]
 8005a2c:	1f0c      	subs	r4, r1, #4
 8005a2e:	2b00      	cmp	r3, #0
 8005a30:	bfb8      	it	lt
 8005a32:	18e4      	addlt	r4, r4, r3
 8005a34:	f000 f8e8 	bl	8005c08 <__malloc_lock>
 8005a38:	4a1d      	ldr	r2, [pc, #116]	@ (8005ab0 <_free_r+0x90>)
 8005a3a:	6813      	ldr	r3, [r2, #0]
 8005a3c:	b933      	cbnz	r3, 8005a4c <_free_r+0x2c>
 8005a3e:	6063      	str	r3, [r4, #4]
 8005a40:	6014      	str	r4, [r2, #0]
 8005a42:	4628      	mov	r0, r5
 8005a44:	e8bd 4038 	ldmia.w	sp!, {r3, r4, r5, lr}
 8005a48:	f000 b8e4 	b.w	8005c14 <__malloc_unlock>
 8005a4c:	42a3      	cmp	r3, r4
 8005a4e:	d908      	bls.n	8005a62 <_free_r+0x42>
 8005a50:	6820      	ldr	r0, [r4, #0]
 8005a52:	1821      	adds	r1, r4, r0
 8005a54:	428b      	cmp	r3, r1
 8005a56:	bf01      	itttt	eq
 8005a58:	6819      	ldreq	r1, [r3, #0]
 8005a5a:	685b      	ldreq	r3, [r3, #4]
 8005a5c:	1809      	addeq	r1, r1, r0
 8005a5e:	6021      	streq	r1, [r4, #0]
 8005a60:	e7ed      	b.n	8005a3e <_free_r+0x1e>
 8005a62:	461a      	mov	r2, r3
 8005a64:	685b      	ldr	r3, [r3, #4]
 8005a66:	b10b      	cbz	r3, 8005a6c <_free_r+0x4c>
 8005a68:	42a3      	cmp	r3, r4
 8005a6a:	d9fa      	bls.n	8005a62 <_free_r+0x42>
 8005a6c:	6811      	ldr	r1, [r2, #0]
 8005a6e:	1850      	adds	r0, r2, r1
 8005a70:	42a0      	cmp	r0, r4
 8005a72:	d10b      	bne.n	8005a8c <_free_r+0x6c>
 8005a74:	6820      	ldr	r0, [r4, #0]
 8005a76:	4401      	add	r1, r0
 8005a78:	1850      	adds	r0, r2, r1
 8005a7a:	4283      	cmp	r3, r0
 8005a7c:	6011      	str	r1, [r2, #0]
 8005a7e:	d1e0      	bne.n	8005a42 <_free_r+0x22>
 8005a80:	6818      	ldr	r0, [r3, #0]
 8005a82:	685b      	ldr	r3, [r3, #4]
 8005a84:	6053      	str	r3, [r2, #4]
 8005a86:	4408      	add	r0, r1
 8005a88:	6010      	str	r0, [r2, #0]
 8005a8a:	e7da      	b.n	8005a42 <_free_r+0x22>
 8005a8c:	d902      	bls.n	8005a94 <_free_r+0x74>
 8005a8e:	230c      	movs	r3, #12
 8005a90:	602b      	str	r3, [r5, #0]
 8005a92:	e7d6      	b.n	8005a42 <_free_r+0x22>
 8005a94:	6820      	ldr	r0, [r4, #0]
 8005a96:	1821      	adds	r1, r4, r0
 8005a98:	428b      	cmp	r3, r1
 8005a9a:	bf04      	itt	eq
 8005a9c:	6819      	ldreq	r1, [r3, #0]
 8005a9e:	685b      	ldreq	r3, [r3, #4]
 8005aa0:	6063      	str	r3, [r4, #4]
 8005aa2:	bf04      	itt	eq
 8005aa4:	1809      	addeq	r1, r1, r0
 8005aa6:	6021      	streq	r1, [r4, #0]
 8005aa8:	6054      	str	r4, [r2, #4]
 8005aaa:	e7ca      	b.n	8005a42 <_free_r+0x22>
 8005aac:	bd38      	pop	{r3, r4, r5, pc}
 8005aae:	bf00      	nop
 8005ab0:	20000a3c 	.word	0x20000a3c

08005ab4 <malloc>:
 8005ab4:	4b02      	ldr	r3, [pc, #8]	@ (8005ac0 <malloc+0xc>)
 8005ab6:	4601      	mov	r1, r0
 8005ab8:	6818      	ldr	r0, [r3, #0]
 8005aba:	f000 b825 	b.w	8005b08 <_malloc_r>
 8005abe:	bf00      	nop
 8005ac0:	20000018 	.word	0x20000018

08005ac4 <sbrk_aligned>:
 8005ac4:	b570      	push	{r4, r5, r6, lr}
 8005ac6:	4e0f      	ldr	r6, [pc, #60]	@ (8005b04 <sbrk_aligned+0x40>)
 8005ac8:	460c      	mov	r4, r1
 8005aca:	6831      	ldr	r1, [r6, #0]
 8005acc:	4605      	mov	r5, r0
 8005ace:	b911      	cbnz	r1, 8005ad6 <sbrk_aligned+0x12>
 8005ad0:	f001 fe04 	bl	80076dc <_sbrk_r>
 8005ad4:	6030      	str	r0, [r6, #0]
 8005ad6:	4621      	mov	r1, r4
 8005ad8:	4628      	mov	r0, r5
 8005ada:	f001 fdff 	bl	80076dc <_sbrk_r>
 8005ade:	1c43      	adds	r3, r0, #1
 8005ae0:	d103      	bne.n	8005aea <sbrk_aligned+0x26>
 8005ae2:	f04f 34ff 	mov.w	r4, #4294967295
 8005ae6:	4620      	mov	r0, r4
 8005ae8:	bd70      	pop	{r4, r5, r6, pc}
 8005aea:	1cc4      	adds	r4, r0, #3
 8005aec:	f024 0403 	bic.w	r4, r4, #3
 8005af0:	42a0      	cmp	r0, r4
 8005af2:	d0f8      	beq.n	8005ae6 <sbrk_aligned+0x22>
 8005af4:	1a21      	subs	r1, r4, r0
 8005af6:	4628      	mov	r0, r5
 8005af8:	f001 fdf0 	bl	80076dc <_sbrk_r>
 8005afc:	3001      	adds	r0, #1
 8005afe:	d1f2      	bne.n	8005ae6 <sbrk_aligned+0x22>
 8005b00:	e7ef      	b.n	8005ae2 <sbrk_aligned+0x1e>
 8005b02:	bf00      	nop
 8005b04:	20000a38 	.word	0x20000a38

08005b08 <_malloc_r>:
 8005b08:	e92d 43f8 	stmdb	sp!, {r3, r4, r5, r6, r7, r8, r9, lr}
 8005b0c:	1ccd      	adds	r5, r1, #3
 8005b0e:	f025 0503 	bic.w	r5, r5, #3
 8005b12:	3508      	adds	r5, #8
 8005b14:	2d0c      	cmp	r5, #12
 8005b16:	bf38      	it	cc
 8005b18:	250c      	movcc	r5, #12
 8005b1a:	2d00      	cmp	r5, #0
 8005b1c:	4606      	mov	r6, r0
 8005b1e:	db01      	blt.n	8005b24 <_malloc_r+0x1c>
 8005b20:	42a9      	cmp	r1, r5
 8005b22:	d904      	bls.n	8005b2e <_malloc_r+0x26>
 8005b24:	230c      	movs	r3, #12
 8005b26:	6033      	str	r3, [r6, #0]
 8005b28:	2000      	movs	r0, #0
 8005b2a:	e8bd 83f8 	ldmia.w	sp!, {r3, r4, r5, r6, r7, r8, r9, pc}
 8005b2e:	f8df 80d4 	ldr.w	r8, [pc, #212]	@ 8005c04 <_malloc_r+0xfc>
 8005b32:	f000 f869 	bl	8005c08 <__malloc_lock>
 8005b36:	f8d8 3000 	ldr.w	r3, [r8]
 8005b3a:	461c      	mov	r4, r3
 8005b3c:	bb44      	cbnz	r4, 8005b90 <_malloc_r+0x88>
 8005b3e:	4629      	mov	r1, r5
 8005b40:	4630      	mov	r0, r6
 8005b42:	f7ff ffbf 	bl	8005ac4 <sbrk_aligned>
 8005b46:	1c43      	adds	r3, r0, #1
 8005b48:	4604      	mov	r4, r0
 8005b4a:	d158      	bne.n	8005bfe <_malloc_r+0xf6>
 8005b4c:	f8d8 4000 	ldr.w	r4, [r8]
 8005b50:	4627      	mov	r7, r4
 8005b52:	2f00      	cmp	r7, #0
 8005b54:	d143      	bne.n	8005bde <_malloc_r+0xd6>
 8005b56:	2c00      	cmp	r4, #0
 8005b58:	d04b      	beq.n	8005bf2 <_malloc_r+0xea>
 8005b5a:	6823      	ldr	r3, [r4, #0]
 8005b5c:	4639      	mov	r1, r7
 8005b5e:	4630      	mov	r0, r6
 8005b60:	eb04 0903 	add.w	r9, r4, r3
 8005b64:	f001 fdba 	bl	80076dc <_sbrk_r>
 8005b68:	4581      	cmp	r9, r0
 8005b6a:	d142      	bne.n	8005bf2 <_malloc_r+0xea>
 8005b6c:	6821      	ldr	r1, [r4, #0]
 8005b6e:	1a6d      	subs	r5, r5, r1
 8005b70:	4629      	mov	r1, r5
 8005b72:	4630      	mov	r0, r6
 8005b74:	f7ff ffa6 	bl	8005ac4 <sbrk_aligned>
 8005b78:	3001      	adds	r0, #1
 8005b7a:	d03a      	beq.n	8005bf2 <_malloc_r+0xea>
 8005b7c:	6823      	ldr	r3, [r4, #0]
 8005b7e:	442b      	add	r3, r5
 8005b80:	6023      	str	r3, [r4, #0]
 8005b82:	f8d8 3000 	ldr.w	r3, [r8]
 8005b86:	685a      	ldr	r2, [r3, #4]
 8005b88:	bb62      	cbnz	r2, 8005be4 <_malloc_r+0xdc>
 8005b8a:	f8c8 7000 	str.w	r7, [r8]
 8005b8e:	e00f      	b.n	8005bb0 <_malloc_r+0xa8>
 8005b90:	6822      	ldr	r2, [r4, #0]
 8005b92:	1b52      	subs	r2, r2, r5
 8005b94:	d420      	bmi.n	8005bd8 <_malloc_r+0xd0>
 8005b96:	2a0b      	cmp	r2, #11
 8005b98:	d917      	bls.n	8005bca <_malloc_r+0xc2>
 8005b9a:	1961      	adds	r1, r4, r5
 8005b9c:	42a3      	cmp	r3, r4
 8005b9e:	6025      	str	r5, [r4, #0]
 8005ba0:	bf18      	it	ne
 8005ba2:	6059      	strne	r1, [r3, #4]
 8005ba4:	6863      	ldr	r3, [r4, #4]
 8005ba6:	bf08      	it	eq
 8005ba8:	f8c8 1000 	streq.w	r1, [r8]
 8005bac:	5162      	str	r2, [r4, r5]
 8005bae:	604b      	str	r3, [r1, #4]
 8005bb0:	4630      	mov	r0, r6
 8005bb2:	f000 f82f 	bl	8005c14 <__malloc_unlock>
 8005bb6:	f104 000b 	add.w	r0, r4, #11
 8005bba:	1d23      	adds	r3, r4, #4
 8005bbc:	f020 0007 	bic.w	r0, r0, #7
 8005bc0:	1ac2      	subs	r2, r0, r3
 8005bc2:	bf1c      	itt	ne
 8005bc4:	1a1b      	subne	r3, r3, r0
 8005bc6:	50a3      	strne	r3, [r4, r2]
 8005bc8:	e7af      	b.n	8005b2a <_malloc_r+0x22>
 8005bca:	6862      	ldr	r2, [r4, #4]
 8005bcc:	42a3      	cmp	r3, r4
 8005bce:	bf0c      	ite	eq
 8005bd0:	f8c8 2000 	streq.w	r2, [r8]
 8005bd4:	605a      	strne	r2, [r3, #4]
 8005bd6:	e7eb      	b.n	8005bb0 <_malloc_r+0xa8>
 8005bd8:	4623      	mov	r3, r4
 8005bda:	6864      	ldr	r4, [r4, #4]
 8005bdc:	e7ae      	b.n	8005b3c <_malloc_r+0x34>
 8005bde:	463c      	mov	r4, r7
 8005be0:	687f      	ldr	r7, [r7, #4]
 8005be2:	e7b6      	b.n	8005b52 <_malloc_r+0x4a>
 8005be4:	461a      	mov	r2, r3
 8005be6:	685b      	ldr	r3, [r3, #4]
 8005be8:	42a3      	cmp	r3, r4
 8005bea:	d1fb      	bne.n	8005be4 <_malloc_r+0xdc>
 8005bec:	2300      	movs	r3, #0
 8005bee:	6053      	str	r3, [r2, #4]
 8005bf0:	e7de      	b.n	8005bb0 <_malloc_r+0xa8>
 8005bf2:	230c      	movs	r3, #12
 8005bf4:	6033      	str	r3, [r6, #0]
 8005bf6:	4630      	mov	r0, r6
 8005bf8:	f000 f80c 	bl	8005c14 <__malloc_unlock>
 8005bfc:	e794      	b.n	8005b28 <_malloc_r+0x20>
 8005bfe:	6005      	str	r5, [r0, #0]
 8005c00:	e7d6      	b.n	8005bb0 <_malloc_r+0xa8>
 8005c02:	bf00      	nop
 8005c04:	20000a3c 	.word	0x20000a3c

08005c08 <__malloc_lock>:
 8005c08:	4801      	ldr	r0, [pc, #4]	@ (8005c10 <__malloc_lock+0x8>)
 8005c0a:	f7ff b8a8 	b.w	8004d5e <__retarget_lock_acquire_recursive>
 8005c0e:	bf00      	nop
 8005c10:	20000a34 	.word	0x20000a34

08005c14 <__malloc_unlock>:
 8005c14:	4801      	ldr	r0, [pc, #4]	@ (8005c1c <__malloc_unlock+0x8>)
 8005c16:	f7ff b8a3 	b.w	8004d60 <__retarget_lock_release_recursive>
 8005c1a:	bf00      	nop
 8005c1c:	20000a34 	.word	0x20000a34

08005c20 <_Balloc>:
 8005c20:	b570      	push	{r4, r5, r6, lr}
 8005c22:	69c6      	ldr	r6, [r0, #28]
 8005c24:	4604      	mov	r4, r0
 8005c26:	460d      	mov	r5, r1
 8005c28:	b976      	cbnz	r6, 8005c48 <_Balloc+0x28>
 8005c2a:	2010      	movs	r0, #16
 8005c2c:	f7ff ff42 	bl	8005ab4 <malloc>
 8005c30:	4602      	mov	r2, r0
 8005c32:	61e0      	str	r0, [r4, #28]
 8005c34:	b920      	cbnz	r0, 8005c40 <_Balloc+0x20>
 8005c36:	4b18      	ldr	r3, [pc, #96]	@ (8005c98 <_Balloc+0x78>)
 8005c38:	4818      	ldr	r0, [pc, #96]	@ (8005c9c <_Balloc+0x7c>)
 8005c3a:	216b      	movs	r1, #107	@ 0x6b
 8005c3c:	f001 fd74 	bl	8007728 <__assert_func>
 8005c40:	e9c0 6601 	strd	r6, r6, [r0, #4]
 8005c44:	6006      	str	r6, [r0, #0]
 8005c46:	60c6      	str	r6, [r0, #12]
 8005c48:	69e6      	ldr	r6, [r4, #28]
 8005c4a:	68f3      	ldr	r3, [r6, #12]
 8005c4c:	b183      	cbz	r3, 8005c70 <_Balloc+0x50>
 8005c4e:	69e3      	ldr	r3, [r4, #28]
 8005c50:	68db      	ldr	r3, [r3, #12]
 8005c52:	f853 0025 	ldr.w	r0, [r3, r5, lsl #2]
 8005c56:	b9b8      	cbnz	r0, 8005c88 <_Balloc+0x68>
 8005c58:	2101      	movs	r1, #1
 8005c5a:	fa01 f605 	lsl.w	r6, r1, r5
 8005c5e:	1d72      	adds	r2, r6, #5
 8005c60:	0092      	lsls	r2, r2, #2
 8005c62:	4620      	mov	r0, r4
 8005c64:	f001 fd7e 	bl	8007764 <_calloc_r>
 8005c68:	b160      	cbz	r0, 8005c84 <_Balloc+0x64>
 8005c6a:	e9c0 5601 	strd	r5, r6, [r0, #4]
 8005c6e:	e00e      	b.n	8005c8e <_Balloc+0x6e>
 8005c70:	2221      	movs	r2, #33	@ 0x21
 8005c72:	2104      	movs	r1, #4
 8005c74:	4620      	mov	r0, r4
 8005c76:	f001 fd75 	bl	8007764 <_calloc_r>
 8005c7a:	69e3      	ldr	r3, [r4, #28]
 8005c7c:	60f0      	str	r0, [r6, #12]
 8005c7e:	68db      	ldr	r3, [r3, #12]
 8005c80:	2b00      	cmp	r3, #0
 8005c82:	d1e4      	bne.n	8005c4e <_Balloc+0x2e>
 8005c84:	2000      	movs	r0, #0
 8005c86:	bd70      	pop	{r4, r5, r6, pc}
 8005c88:	6802      	ldr	r2, [r0, #0]
 8005c8a:	f843 2025 	str.w	r2, [r3, r5, lsl #2]
 8005c8e:	2300      	movs	r3, #0
 8005c90:	e9c0 3303 	strd	r3, r3, [r0, #12]
 8005c94:	e7f7      	b.n	8005c86 <_Balloc+0x66>
 8005c96:	bf00      	nop
 8005c98:	080084b6 	.word	0x080084b6
 8005c9c:	08008536 	.word	0x08008536

08005ca0 <_Bfree>:
 8005ca0:	b570      	push	{r4, r5, r6, lr}
 8005ca2:	69c6      	ldr	r6, [r0, #28]
 8005ca4:	4605      	mov	r5, r0
 8005ca6:	460c      	mov	r4, r1
 8005ca8:	b976      	cbnz	r6, 8005cc8 <_Bfree+0x28>
 8005caa:	2010      	movs	r0, #16
 8005cac:	f7ff ff02 	bl	8005ab4 <malloc>
 8005cb0:	4602      	mov	r2, r0
 8005cb2:	61e8      	str	r0, [r5, #28]
 8005cb4:	b920      	cbnz	r0, 8005cc0 <_Bfree+0x20>
 8005cb6:	4b09      	ldr	r3, [pc, #36]	@ (8005cdc <_Bfree+0x3c>)
 8005cb8:	4809      	ldr	r0, [pc, #36]	@ (8005ce0 <_Bfree+0x40>)
 8005cba:	218f      	movs	r1, #143	@ 0x8f
 8005cbc:	f001 fd34 	bl	8007728 <__assert_func>
 8005cc0:	e9c0 6601 	strd	r6, r6, [r0, #4]
 8005cc4:	6006      	str	r6, [r0, #0]
 8005cc6:	60c6      	str	r6, [r0, #12]
 8005cc8:	b13c      	cbz	r4, 8005cda <_Bfree+0x3a>
 8005cca:	69eb      	ldr	r3, [r5, #28]
 8005ccc:	6862      	ldr	r2, [r4, #4]
 8005cce:	68db      	ldr	r3, [r3, #12]
 8005cd0:	f853 1022 	ldr.w	r1, [r3, r2, lsl #2]
 8005cd4:	6021      	str	r1, [r4, #0]
 8005cd6:	f843 4022 	str.w	r4, [r3, r2, lsl #2]
 8005cda:	bd70      	pop	{r4, r5, r6, pc}
 8005cdc:	080084b6 	.word	0x080084b6
 8005ce0:	08008536 	.word	0x08008536

08005ce4 <__multadd>:
 8005ce4:	e92d 41f0 	stmdb	sp!, {r4, r5, r6, r7, r8, lr}
 8005ce8:	690d      	ldr	r5, [r1, #16]
 8005cea:	4607      	mov	r7, r0
 8005cec:	460c      	mov	r4, r1
 8005cee:	461e      	mov	r6, r3
 8005cf0:	f101 0c14 	add.w	ip, r1, #20
 8005cf4:	2000      	movs	r0, #0
 8005cf6:	f8dc 3000 	ldr.w	r3, [ip]
 8005cfa:	b299      	uxth	r1, r3
 8005cfc:	fb02 6101 	mla	r1, r2, r1, r6
 8005d00:	0c1e      	lsrs	r6, r3, #16
 8005d02:	0c0b      	lsrs	r3, r1, #16
 8005d04:	fb02 3306 	mla	r3, r2, r6, r3
 8005d08:	b289      	uxth	r1, r1
 8005d0a:	3001      	adds	r0, #1
 8005d0c:	eb01 4103 	add.w	r1, r1, r3, lsl #16
 8005d10:	4285      	cmp	r5, r0
 8005d12:	f84c 1b04 	str.w	r1, [ip], #4
 8005d16:	ea4f 4613 	mov.w	r6, r3, lsr #16
 8005d1a:	dcec      	bgt.n	8005cf6 <__multadd+0x12>
 8005d1c:	b30e      	cbz	r6, 8005d62 <__multadd+0x7e>
 8005d1e:	68a3      	ldr	r3, [r4, #8]
 8005d20:	42ab      	cmp	r3, r5
 8005d22:	dc19      	bgt.n	8005d58 <__multadd+0x74>
 8005d24:	6861      	ldr	r1, [r4, #4]
 8005d26:	4638      	mov	r0, r7
 8005d28:	3101      	adds	r1, #1
 8005d2a:	f7ff ff79 	bl	8005c20 <_Balloc>
 8005d2e:	4680      	mov	r8, r0
 8005d30:	b928      	cbnz	r0, 8005d3e <__multadd+0x5a>
 8005d32:	4602      	mov	r2, r0
 8005d34:	4b0c      	ldr	r3, [pc, #48]	@ (8005d68 <__multadd+0x84>)
 8005d36:	480d      	ldr	r0, [pc, #52]	@ (8005d6c <__multadd+0x88>)
 8005d38:	21ba      	movs	r1, #186	@ 0xba
 8005d3a:	f001 fcf5 	bl	8007728 <__assert_func>
 8005d3e:	6922      	ldr	r2, [r4, #16]
 8005d40:	3202      	adds	r2, #2
 8005d42:	f104 010c 	add.w	r1, r4, #12
 8005d46:	0092      	lsls	r2, r2, #2
 8005d48:	300c      	adds	r0, #12
 8005d4a:	f001 fcd7 	bl	80076fc <memcpy>
 8005d4e:	4621      	mov	r1, r4
 8005d50:	4638      	mov	r0, r7
 8005d52:	f7ff ffa5 	bl	8005ca0 <_Bfree>
 8005d56:	4644      	mov	r4, r8
 8005d58:	eb04 0385 	add.w	r3, r4, r5, lsl #2
 8005d5c:	3501      	adds	r5, #1
 8005d5e:	615e      	str	r6, [r3, #20]
 8005d60:	6125      	str	r5, [r4, #16]
 8005d62:	4620      	mov	r0, r4
 8005d64:	e8bd 81f0 	ldmia.w	sp!, {r4, r5, r6, r7, r8, pc}
 8005d68:	08008525 	.word	0x08008525
 8005d6c:	08008536 	.word	0x08008536

08005d70 <__s2b>:
 8005d70:	e92d 43f8 	stmdb	sp!, {r3, r4, r5, r6, r7, r8, r9, lr}
 8005d74:	460c      	mov	r4, r1
 8005d76:	4615      	mov	r5, r2
 8005d78:	461f      	mov	r7, r3
 8005d7a:	2209      	movs	r2, #9
 8005d7c:	3308      	adds	r3, #8
 8005d7e:	4606      	mov	r6, r0
 8005d80:	fb93 f3f2 	sdiv	r3, r3, r2
 8005d84:	2100      	movs	r1, #0
 8005d86:	2201      	movs	r2, #1
 8005d88:	429a      	cmp	r2, r3
 8005d8a:	db09      	blt.n	8005da0 <__s2b+0x30>
 8005d8c:	4630      	mov	r0, r6
 8005d8e:	f7ff ff47 	bl	8005c20 <_Balloc>
 8005d92:	b940      	cbnz	r0, 8005da6 <__s2b+0x36>
 8005d94:	4602      	mov	r2, r0
 8005d96:	4b19      	ldr	r3, [pc, #100]	@ (8005dfc <__s2b+0x8c>)
 8005d98:	4819      	ldr	r0, [pc, #100]	@ (8005e00 <__s2b+0x90>)
 8005d9a:	21d3      	movs	r1, #211	@ 0xd3
 8005d9c:	f001 fcc4 	bl	8007728 <__assert_func>
 8005da0:	0052      	lsls	r2, r2, #1
 8005da2:	3101      	adds	r1, #1
 8005da4:	e7f0      	b.n	8005d88 <__s2b+0x18>
 8005da6:	9b08      	ldr	r3, [sp, #32]
 8005da8:	6143      	str	r3, [r0, #20]
 8005daa:	2d09      	cmp	r5, #9
 8005dac:	f04f 0301 	mov.w	r3, #1
 8005db0:	6103      	str	r3, [r0, #16]
 8005db2:	dd16      	ble.n	8005de2 <__s2b+0x72>
 8005db4:	f104 0909 	add.w	r9, r4, #9
 8005db8:	46c8      	mov	r8, r9
 8005dba:	442c      	add	r4, r5
 8005dbc:	f818 3b01 	ldrb.w	r3, [r8], #1
 8005dc0:	4601      	mov	r1, r0
 8005dc2:	3b30      	subs	r3, #48	@ 0x30
 8005dc4:	220a      	movs	r2, #10
 8005dc6:	4630      	mov	r0, r6
 8005dc8:	f7ff ff8c 	bl	8005ce4 <__multadd>
 8005dcc:	45a0      	cmp	r8, r4
 8005dce:	d1f5      	bne.n	8005dbc <__s2b+0x4c>
 8005dd0:	f1a5 0408 	sub.w	r4, r5, #8
 8005dd4:	444c      	add	r4, r9
 8005dd6:	1b2d      	subs	r5, r5, r4
 8005dd8:	1963      	adds	r3, r4, r5
 8005dda:	42bb      	cmp	r3, r7
 8005ddc:	db04      	blt.n	8005de8 <__s2b+0x78>
 8005dde:	e8bd 83f8 	ldmia.w	sp!, {r3, r4, r5, r6, r7, r8, r9, pc}
 8005de2:	340a      	adds	r4, #10
 8005de4:	2509      	movs	r5, #9
 8005de6:	e7f6      	b.n	8005dd6 <__s2b+0x66>
 8005de8:	f814 3b01 	ldrb.w	r3, [r4], #1
 8005dec:	4601      	mov	r1, r0
 8005dee:	3b30      	subs	r3, #48	@ 0x30
 8005df0:	220a      	movs	r2, #10
 8005df2:	4630      	mov	r0, r6
 8005df4:	f7ff ff76 	bl	8005ce4 <__multadd>
 8005df8:	e7ee      	b.n	8005dd8 <__s2b+0x68>
 8005dfa:	bf00      	nop
 8005dfc:	08008525 	.word	0x08008525
 8005e00:	08008536 	.word	0x08008536

08005e04 <__hi0bits>:
 8005e04:	f5b0 3f80 	cmp.w	r0, #65536	@ 0x10000
 8005e08:	4603      	mov	r3, r0
 8005e0a:	bf36      	itet	cc
 8005e0c:	0403      	lslcc	r3, r0, #16
 8005e0e:	2000      	movcs	r0, #0
 8005e10:	2010      	movcc	r0, #16
 8005e12:	f1b3 7f80 	cmp.w	r3, #16777216	@ 0x1000000
 8005e16:	bf3c      	itt	cc
 8005e18:	021b      	lslcc	r3, r3, #8
 8005e1a:	3008      	addcc	r0, #8
 8005e1c:	f1b3 5f80 	cmp.w	r3, #268435456	@ 0x10000000
 8005e20:	bf3c      	itt	cc
 8005e22:	011b      	lslcc	r3, r3, #4
 8005e24:	3004      	addcc	r0, #4
 8005e26:	f1b3 4f80 	cmp.w	r3, #1073741824	@ 0x40000000
 8005e2a:	bf3c      	itt	cc
 8005e2c:	009b      	lslcc	r3, r3, #2
 8005e2e:	3002      	addcc	r0, #2
 8005e30:	2b00      	cmp	r3, #0
 8005e32:	db05      	blt.n	8005e40 <__hi0bits+0x3c>
 8005e34:	f013 4f80 	tst.w	r3, #1073741824	@ 0x40000000
 8005e38:	f100 0001 	add.w	r0, r0, #1
 8005e3c:	bf08      	it	eq
 8005e3e:	2020      	moveq	r0, #32
 8005e40:	4770      	bx	lr

08005e42 <__lo0bits>:
 8005e42:	6803      	ldr	r3, [r0, #0]
 8005e44:	4602      	mov	r2, r0
 8005e46:	f013 0007 	ands.w	r0, r3, #7
 8005e4a:	d00b      	beq.n	8005e64 <__lo0bits+0x22>
 8005e4c:	07d9      	lsls	r1, r3, #31
 8005e4e:	d421      	bmi.n	8005e94 <__lo0bits+0x52>
 8005e50:	0798      	lsls	r0, r3, #30
 8005e52:	bf49      	itett	mi
 8005e54:	085b      	lsrmi	r3, r3, #1
 8005e56:	089b      	lsrpl	r3, r3, #2
 8005e58:	2001      	movmi	r0, #1
 8005e5a:	6013      	strmi	r3, [r2, #0]
 8005e5c:	bf5c      	itt	pl
 8005e5e:	6013      	strpl	r3, [r2, #0]
 8005e60:	2002      	movpl	r0, #2
 8005e62:	4770      	bx	lr
 8005e64:	b299      	uxth	r1, r3
 8005e66:	b909      	cbnz	r1, 8005e6c <__lo0bits+0x2a>
 8005e68:	0c1b      	lsrs	r3, r3, #16
 8005e6a:	2010      	movs	r0, #16
 8005e6c:	b2d9      	uxtb	r1, r3
 8005e6e:	b909      	cbnz	r1, 8005e74 <__lo0bits+0x32>
 8005e70:	3008      	adds	r0, #8
 8005e72:	0a1b      	lsrs	r3, r3, #8
 8005e74:	0719      	lsls	r1, r3, #28
 8005e76:	bf04      	itt	eq
 8005e78:	091b      	lsreq	r3, r3, #4
 8005e7a:	3004      	addeq	r0, #4
 8005e7c:	0799      	lsls	r1, r3, #30
 8005e7e:	bf04      	itt	eq
 8005e80:	089b      	lsreq	r3, r3, #2
 8005e82:	3002      	addeq	r0, #2
 8005e84:	07d9      	lsls	r1, r3, #31
 8005e86:	d403      	bmi.n	8005e90 <__lo0bits+0x4e>
 8005e88:	085b      	lsrs	r3, r3, #1
 8005e8a:	f100 0001 	add.w	r0, r0, #1
 8005e8e:	d003      	beq.n	8005e98 <__lo0bits+0x56>
 8005e90:	6013      	str	r3, [r2, #0]
 8005e92:	4770      	bx	lr
 8005e94:	2000      	movs	r0, #0
 8005e96:	4770      	bx	lr
 8005e98:	2020      	movs	r0, #32
 8005e9a:	4770      	bx	lr

08005e9c <__i2b>:
 8005e9c:	b510      	push	{r4, lr}
 8005e9e:	460c      	mov	r4, r1
 8005ea0:	2101      	movs	r1, #1
 8005ea2:	f7ff febd 	bl	8005c20 <_Balloc>
 8005ea6:	4602      	mov	r2, r0
 8005ea8:	b928      	cbnz	r0, 8005eb6 <__i2b+0x1a>
 8005eaa:	4b05      	ldr	r3, [pc, #20]	@ (8005ec0 <__i2b+0x24>)
 8005eac:	4805      	ldr	r0, [pc, #20]	@ (8005ec4 <__i2b+0x28>)
 8005eae:	f240 1145 	movw	r1, #325	@ 0x145
 8005eb2:	f001 fc39 	bl	8007728 <__assert_func>
 8005eb6:	2301      	movs	r3, #1
 8005eb8:	6144      	str	r4, [r0, #20]
 8005eba:	6103      	str	r3, [r0, #16]
 8005ebc:	bd10      	pop	{r4, pc}
 8005ebe:	bf00      	nop
 8005ec0:	08008525 	.word	0x08008525
 8005ec4:	08008536 	.word	0x08008536

08005ec8 <__multiply>:
 8005ec8:	e92d 4ff0 	stmdb	sp!, {r4, r5, r6, r7, r8, r9, sl, fp, lr}
 8005ecc:	4617      	mov	r7, r2
 8005ece:	690a      	ldr	r2, [r1, #16]
 8005ed0:	693b      	ldr	r3, [r7, #16]
 8005ed2:	429a      	cmp	r2, r3
 8005ed4:	bfa8      	it	ge
 8005ed6:	463b      	movge	r3, r7
 8005ed8:	4689      	mov	r9, r1
 8005eda:	bfa4      	itt	ge
 8005edc:	460f      	movge	r7, r1
 8005ede:	4699      	movge	r9, r3
 8005ee0:	693d      	ldr	r5, [r7, #16]
 8005ee2:	f8d9 a010 	ldr.w	sl, [r9, #16]
 8005ee6:	68bb      	ldr	r3, [r7, #8]
 8005ee8:	6879      	ldr	r1, [r7, #4]
 8005eea:	eb05 060a 	add.w	r6, r5, sl
 8005eee:	42b3      	cmp	r3, r6
 8005ef0:	b085      	sub	sp, #20
 8005ef2:	bfb8      	it	lt
 8005ef4:	3101      	addlt	r1, #1
 8005ef6:	f7ff fe93 	bl	8005c20 <_Balloc>
 8005efa:	b930      	cbnz	r0, 8005f0a <__multiply+0x42>
 8005efc:	4602      	mov	r2, r0
 8005efe:	4b41      	ldr	r3, [pc, #260]	@ (8006004 <__multiply+0x13c>)
 8005f00:	4841      	ldr	r0, [pc, #260]	@ (8006008 <__multiply+0x140>)
 8005f02:	f44f 71b1 	mov.w	r1, #354	@ 0x162
 8005f06:	f001 fc0f 	bl	8007728 <__assert_func>
 8005f0a:	f100 0414 	add.w	r4, r0, #20
 8005f0e:	eb04 0e86 	add.w	lr, r4, r6, lsl #2
 8005f12:	4623      	mov	r3, r4
 8005f14:	2200      	movs	r2, #0
 8005f16:	4573      	cmp	r3, lr
 8005f18:	d320      	bcc.n	8005f5c <__multiply+0x94>
 8005f1a:	f107 0814 	add.w	r8, r7, #20
 8005f1e:	f109 0114 	add.w	r1, r9, #20
 8005f22:	eb08 0585 	add.w	r5, r8, r5, lsl #2
 8005f26:	eb01 038a 	add.w	r3, r1, sl, lsl #2
 8005f2a:	9302      	str	r3, [sp, #8]
 8005f2c:	1beb      	subs	r3, r5, r7
 8005f2e:	3b15      	subs	r3, #21
 8005f30:	f023 0303 	bic.w	r3, r3, #3
 8005f34:	3304      	adds	r3, #4
 8005f36:	3715      	adds	r7, #21
 8005f38:	42bd      	cmp	r5, r7
 8005f3a:	bf38      	it	cc
 8005f3c:	2304      	movcc	r3, #4
 8005f3e:	9301      	str	r3, [sp, #4]
 8005f40:	9b02      	ldr	r3, [sp, #8]
 8005f42:	9103      	str	r1, [sp, #12]
 8005f44:	428b      	cmp	r3, r1
 8005f46:	d80c      	bhi.n	8005f62 <__multiply+0x9a>
 8005f48:	2e00      	cmp	r6, #0
 8005f4a:	dd03      	ble.n	8005f54 <__multiply+0x8c>
 8005f4c:	f85e 3d04 	ldr.w	r3, [lr, #-4]!
 8005f50:	2b00      	cmp	r3, #0
 8005f52:	d055      	beq.n	8006000 <__multiply+0x138>
 8005f54:	6106      	str	r6, [r0, #16]
 8005f56:	b005      	add	sp, #20
 8005f58:	e8bd 8ff0 	ldmia.w	sp!, {r4, r5, r6, r7, r8, r9, sl, fp, pc}
 8005f5c:	f843 2b04 	str.w	r2, [r3], #4
 8005f60:	e7d9      	b.n	8005f16 <__multiply+0x4e>
 8005f62:	f8b1 a000 	ldrh.w	sl, [r1]
 8005f66:	f1ba 0f00 	cmp.w	sl, #0
 8005f6a:	d01f      	beq.n	8005fac <__multiply+0xe4>
 8005f6c:	46c4      	mov	ip, r8
 8005f6e:	46a1      	mov	r9, r4
 8005f70:	2700      	movs	r7, #0
 8005f72:	f85c 2b04 	ldr.w	r2, [ip], #4
 8005f76:	f8d9 3000 	ldr.w	r3, [r9]
 8005f7a:	fa1f fb82 	uxth.w	fp, r2
 8005f7e:	b29b      	uxth	r3, r3
 8005f80:	fb0a 330b 	mla	r3, sl, fp, r3
 8005f84:	443b      	add	r3, r7
 8005f86:	f8d9 7000 	ldr.w	r7, [r9]
 8005f8a:	0c12      	lsrs	r2, r2, #16
 8005f8c:	0c3f      	lsrs	r7, r7, #16
 8005f8e:	fb0a 7202 	mla	r2, sl, r2, r7
 8005f92:	eb02 4213 	add.w	r2, r2, r3, lsr #16
 8005f96:	b29b      	uxth	r3, r3
 8005f98:	ea43 4302 	orr.w	r3, r3, r2, lsl #16
 8005f9c:	4565      	cmp	r5, ip
 8005f9e:	f849 3b04 	str.w	r3, [r9], #4
 8005fa2:	ea4f 4712 	mov.w	r7, r2, lsr #16
 8005fa6:	d8e4      	bhi.n	8005f72 <__multiply+0xaa>
 8005fa8:	9b01      	ldr	r3, [sp, #4]
 8005faa:	50e7      	str	r7, [r4, r3]
 8005fac:	9b03      	ldr	r3, [sp, #12]
 8005fae:	f8b3 9002 	ldrh.w	r9, [r3, #2]
 8005fb2:	3104      	adds	r1, #4
 8005fb4:	f1b9 0f00 	cmp.w	r9, #0
 8005fb8:	d020      	beq.n	8005ffc <__multiply+0x134>
 8005fba:	6823      	ldr	r3, [r4, #0]
 8005fbc:	4647      	mov	r7, r8
 8005fbe:	46a4      	mov	ip, r4
 8005fc0:	f04f 0a00 	mov.w	sl, #0
 8005fc4:	f8b7 b000 	ldrh.w	fp, [r7]
 8005fc8:	f8bc 2002 	ldrh.w	r2, [ip, #2]
 8005fcc:	fb09 220b 	mla	r2, r9, fp, r2
 8005fd0:	4452      	add	r2, sl
 8005fd2:	b29b      	uxth	r3, r3
 8005fd4:	ea43 4302 	orr.w	r3, r3, r2, lsl #16
 8005fd8:	f84c 3b04 	str.w	r3, [ip], #4
 8005fdc:	f857 3b04 	ldr.w	r3, [r7], #4
 8005fe0:	ea4f 4a13 	mov.w	sl, r3, lsr #16
 8005fe4:	f8bc 3000 	ldrh.w	r3, [ip]
 8005fe8:	fb09 330a 	mla	r3, r9, sl, r3
 8005fec:	eb03 4312 	add.w	r3, r3, r2, lsr #16
 8005ff0:	42bd      	cmp	r5, r7
 8005ff2:	ea4f 4a13 	mov.w	sl, r3, lsr #16
 8005ff6:	d8e5      	bhi.n	8005fc4 <__multiply+0xfc>
 8005ff8:	9a01      	ldr	r2, [sp, #4]
 8005ffa:	50a3      	str	r3, [r4, r2]
 8005ffc:	3404      	adds	r4, #4
 8005ffe:	e79f      	b.n	8005f40 <__multiply+0x78>
 8006000:	3e01      	subs	r6, #1
 8006002:	e7a1      	b.n	8005f48 <__multiply+0x80>
 8006004:	08008525 	.word	0x08008525
 8006008:	08008536 	.word	0x08008536

0800600c <__pow5mult>:
 800600c:	e92d 43f8 	stmdb	sp!, {r3, r4, r5, r6, r7, r8, r9, lr}
 8006010:	4615      	mov	r5, r2
 8006012:	f012 0203 	ands.w	r2, r2, #3
 8006016:	4607      	mov	r7, r0
 8006018:	460e      	mov	r6, r1
 800601a:	d007      	beq.n	800602c <__pow5mult+0x20>
 800601c:	4c25      	ldr	r4, [pc, #148]	@ (80060b4 <__pow5mult+0xa8>)
 800601e:	3a01      	subs	r2, #1
 8006020:	2300      	movs	r3, #0
 8006022:	f854 2022 	ldr.w	r2, [r4, r2, lsl #2]
 8006026:	f7ff fe5d 	bl	8005ce4 <__multadd>
 800602a:	4606      	mov	r6, r0
 800602c:	10ad      	asrs	r5, r5, #2
 800602e:	d03d      	beq.n	80060ac <__pow5mult+0xa0>
 8006030:	69fc      	ldr	r4, [r7, #28]
 8006032:	b97c      	cbnz	r4, 8006054 <__pow5mult+0x48>
 8006034:	2010      	movs	r0, #16
 8006036:	f7ff fd3d 	bl	8005ab4 <malloc>
 800603a:	4602      	mov	r2, r0
 800603c:	61f8      	str	r0, [r7, #28]
 800603e:	b928      	cbnz	r0, 800604c <__pow5mult+0x40>
 8006040:	4b1d      	ldr	r3, [pc, #116]	@ (80060b8 <__pow5mult+0xac>)
 8006042:	481e      	ldr	r0, [pc, #120]	@ (80060bc <__pow5mult+0xb0>)
 8006044:	f240 11b3 	movw	r1, #435	@ 0x1b3
 8006048:	f001 fb6e 	bl	8007728 <__assert_func>
 800604c:	e9c0 4401 	strd	r4, r4, [r0, #4]
 8006050:	6004      	str	r4, [r0, #0]
 8006052:	60c4      	str	r4, [r0, #12]
 8006054:	f8d7 801c 	ldr.w	r8, [r7, #28]
 8006058:	f8d8 4008 	ldr.w	r4, [r8, #8]
 800605c:	b94c      	cbnz	r4, 8006072 <__pow5mult+0x66>
 800605e:	f240 2171 	movw	r1, #625	@ 0x271
 8006062:	4638      	mov	r0, r7
 8006064:	f7ff ff1a 	bl	8005e9c <__i2b>
 8006068:	2300      	movs	r3, #0
 800606a:	f8c8 0008 	str.w	r0, [r8, #8]
 800606e:	4604      	mov	r4, r0
 8006070:	6003      	str	r3, [r0, #0]
 8006072:	f04f 0900 	mov.w	r9, #0
 8006076:	07eb      	lsls	r3, r5, #31
 8006078:	d50a      	bpl.n	8006090 <__pow5mult+0x84>
 800607a:	4631      	mov	r1, r6
 800607c:	4622      	mov	r2, r4
 800607e:	4638      	mov	r0, r7
 8006080:	f7ff ff22 	bl	8005ec8 <__multiply>
 8006084:	4631      	mov	r1, r6
 8006086:	4680      	mov	r8, r0
 8006088:	4638      	mov	r0, r7
 800608a:	f7ff fe09 	bl	8005ca0 <_Bfree>
 800608e:	4646      	mov	r6, r8
 8006090:	106d      	asrs	r5, r5, #1
 8006092:	d00b      	beq.n	80060ac <__pow5mult+0xa0>
 8006094:	6820      	ldr	r0, [r4, #0]
 8006096:	b938      	cbnz	r0, 80060a8 <__pow5mult+0x9c>
 8006098:	4622      	mov	r2, r4
 800609a:	4621      	mov	r1, r4
 800609c:	4638      	mov	r0, r7
 800609e:	f7ff ff13 	bl	8005ec8 <__multiply>
 80060a2:	6020      	str	r0, [r4, #0]
 80060a4:	f8c0 9000 	str.w	r9, [r0]
 80060a8:	4604      	mov	r4, r0
 80060aa:	e7e4      	b.n	8006076 <__pow5mult+0x6a>
 80060ac:	4630      	mov	r0, r6
 80060ae:	e8bd 83f8 	ldmia.w	sp!, {r3, r4, r5, r6, r7, r8, r9, pc}
 80060b2:	bf00      	nop
 80060b4:	08008648 	.word	0x08008648
 80060b8:	080084b6 	.word	0x080084b6
 80060bc:	08008536 	.word	0x08008536

080060c0 <__lshift>:
 80060c0:	e92d 47f0 	stmdb	sp!, {r4, r5, r6, r7, r8, r9, sl, lr}
 80060c4:	460c      	mov	r4, r1
 80060c6:	6849      	ldr	r1, [r1, #4]
 80060c8:	6923      	ldr	r3, [r4, #16]
 80060ca:	eb03 1862 	add.w	r8, r3, r2, asr #5
 80060ce:	68a3      	ldr	r3, [r4, #8]
 80060d0:	4607      	mov	r7, r0
 80060d2:	4691      	mov	r9, r2
 80060d4:	ea4f 1a62 	mov.w	sl, r2, asr #5
 80060d8:	f108 0601 	add.w	r6, r8, #1
 80060dc:	42b3      	cmp	r3, r6
 80060de:	db0b      	blt.n	80060f8 <__lshift+0x38>
 80060e0:	4638      	mov	r0, r7
 80060e2:	f7ff fd9d 	bl	8005c20 <_Balloc>
 80060e6:	4605      	mov	r5, r0
 80060e8:	b948      	cbnz	r0, 80060fe <__lshift+0x3e>
 80060ea:	4602      	mov	r2, r0
 80060ec:	4b28      	ldr	r3, [pc, #160]	@ (8006190 <__lshift+0xd0>)
 80060ee:	4829      	ldr	r0, [pc, #164]	@ (8006194 <__lshift+0xd4>)
 80060f0:	f44f 71ef 	mov.w	r1, #478	@ 0x1de
 80060f4:	f001 fb18 	bl	8007728 <__assert_func>
 80060f8:	3101      	adds	r1, #1
 80060fa:	005b      	lsls	r3, r3, #1
 80060fc:	e7ee      	b.n	80060dc <__lshift+0x1c>
 80060fe:	2300      	movs	r3, #0
 8006100:	f100 0114 	add.w	r1, r0, #20
 8006104:	f100 0210 	add.w	r2, r0, #16
 8006108:	4618      	mov	r0, r3
 800610a:	4553      	cmp	r3, sl
 800610c:	db33      	blt.n	8006176 <__lshift+0xb6>
 800610e:	6920      	ldr	r0, [r4, #16]
 8006110:	ea2a 7aea 	bic.w	sl, sl, sl, asr #31
 8006114:	f104 0314 	add.w	r3, r4, #20
 8006118:	f019 091f 	ands.w	r9, r9, #31
 800611c:	eb01 018a 	add.w	r1, r1, sl, lsl #2
 8006120:	eb03 0c80 	add.w	ip, r3, r0, lsl #2
 8006124:	d02b      	beq.n	800617e <__lshift+0xbe>
 8006126:	f1c9 0e20 	rsb	lr, r9, #32
 800612a:	468a      	mov	sl, r1
 800612c:	2200      	movs	r2, #0
 800612e:	6818      	ldr	r0, [r3, #0]
 8006130:	fa00 f009 	lsl.w	r0, r0, r9
 8006134:	4310      	orrs	r0, r2
 8006136:	f84a 0b04 	str.w	r0, [sl], #4
 800613a:	f853 2b04 	ldr.w	r2, [r3], #4
 800613e:	459c      	cmp	ip, r3
 8006140:	fa22 f20e 	lsr.w	r2, r2, lr
 8006144:	d8f3      	bhi.n	800612e <__lshift+0x6e>
 8006146:	ebac 0304 	sub.w	r3, ip, r4
 800614a:	3b15      	subs	r3, #21
 800614c:	f023 0303 	bic.w	r3, r3, #3
 8006150:	3304      	adds	r3, #4
 8006152:	f104 0015 	add.w	r0, r4, #21
 8006156:	4560      	cmp	r0, ip
 8006158:	bf88      	it	hi
 800615a:	2304      	movhi	r3, #4
 800615c:	50ca      	str	r2, [r1, r3]
 800615e:	b10a      	cbz	r2, 8006164 <__lshift+0xa4>
 8006160:	f108 0602 	add.w	r6, r8, #2
 8006164:	3e01      	subs	r6, #1
 8006166:	4638      	mov	r0, r7
 8006168:	612e      	str	r6, [r5, #16]
 800616a:	4621      	mov	r1, r4
 800616c:	f7ff fd98 	bl	8005ca0 <_Bfree>
 8006170:	4628      	mov	r0, r5
 8006172:	e8bd 87f0 	ldmia.w	sp!, {r4, r5, r6, r7, r8, r9, sl, pc}
 8006176:	f842 0f04 	str.w	r0, [r2, #4]!
 800617a:	3301      	adds	r3, #1
 800617c:	e7c5      	b.n	800610a <__lshift+0x4a>
 800617e:	3904      	subs	r1, #4
 8006180:	f853 2b04 	ldr.w	r2, [r3], #4
 8006184:	f841 2f04 	str.w	r2, [r1, #4]!
 8006188:	459c      	cmp	ip, r3
 800618a:	d8f9      	bhi.n	8006180 <__lshift+0xc0>
 800618c:	e7ea      	b.n	8006164 <__lshift+0xa4>
 800618e:	bf00      	nop
 8006190:	08008525 	.word	0x08008525
 8006194:	08008536 	.word	0x08008536

08006198 <__mcmp>:
 8006198:	690a      	ldr	r2, [r1, #16]
 800619a:	4603      	mov	r3, r0
 800619c:	6900      	ldr	r0, [r0, #16]
 800619e:	1a80      	subs	r0, r0, r2
 80061a0:	b530      	push	{r4, r5, lr}
 80061a2:	d10e      	bne.n	80061c2 <__mcmp+0x2a>
 80061a4:	3314      	adds	r3, #20
 80061a6:	3114      	adds	r1, #20
 80061a8:	eb03 0482 	add.w	r4, r3, r2, lsl #2
 80061ac:	eb01 0182 	add.w	r1, r1, r2, lsl #2
 80061b0:	f854 5d04 	ldr.w	r5, [r4, #-4]!
 80061b4:	f851 2d04 	ldr.w	r2, [r1, #-4]!
 80061b8:	4295      	cmp	r5, r2
 80061ba:	d003      	beq.n	80061c4 <__mcmp+0x2c>
 80061bc:	d205      	bcs.n	80061ca <__mcmp+0x32>
 80061be:	f04f 30ff 	mov.w	r0, #4294967295
 80061c2:	bd30      	pop	{r4, r5, pc}
 80061c4:	42a3      	cmp	r3, r4
 80061c6:	d3f3      	bcc.n	80061b0 <__mcmp+0x18>
 80061c8:	e7fb      	b.n	80061c2 <__mcmp+0x2a>
 80061ca:	2001      	movs	r0, #1
 80061cc:	e7f9      	b.n	80061c2 <__mcmp+0x2a>
	...

080061d0 <__mdiff>:
 80061d0:	e92d 4ff7 	stmdb	sp!, {r0, r1, r2, r4, r5, r6, r7, r8, r9, sl, fp, lr}
 80061d4:	4689      	mov	r9, r1
 80061d6:	4606      	mov	r6, r0
 80061d8:	4611      	mov	r1, r2
 80061da:	4648      	mov	r0, r9
 80061dc:	4614      	mov	r4, r2
 80061de:	f7ff ffdb 	bl	8006198 <__mcmp>
 80061e2:	1e05      	subs	r5, r0, #0
 80061e4:	d112      	bne.n	800620c <__mdiff+0x3c>
 80061e6:	4629      	mov	r1, r5
 80061e8:	4630      	mov	r0, r6
 80061ea:	f7ff fd19 	bl	8005c20 <_Balloc>
 80061ee:	4602      	mov	r2, r0
 80061f0:	b928      	cbnz	r0, 80061fe <__mdiff+0x2e>
 80061f2:	4b3f      	ldr	r3, [pc, #252]	@ (80062f0 <__mdiff+0x120>)
 80061f4:	f240 2137 	movw	r1, #567	@ 0x237
 80061f8:	483e      	ldr	r0, [pc, #248]	@ (80062f4 <__mdiff+0x124>)
 80061fa:	f001 fa95 	bl	8007728 <__assert_func>
 80061fe:	2301      	movs	r3, #1
 8006200:	e9c0 3504 	strd	r3, r5, [r0, #16]
 8006204:	4610      	mov	r0, r2
 8006206:	b003      	add	sp, #12
 8006208:	e8bd 8ff0 	ldmia.w	sp!, {r4, r5, r6, r7, r8, r9, sl, fp, pc}
 800620c:	bfbc      	itt	lt
 800620e:	464b      	movlt	r3, r9
 8006210:	46a1      	movlt	r9, r4
 8006212:	4630      	mov	r0, r6
 8006214:	f8d9 1004 	ldr.w	r1, [r9, #4]
 8006218:	bfba      	itte	lt
 800621a:	461c      	movlt	r4, r3
 800621c:	2501      	movlt	r5, #1
 800621e:	2500      	movge	r5, #0
 8006220:	f7ff fcfe 	bl	8005c20 <_Balloc>
 8006224:	4602      	mov	r2, r0
 8006226:	b918      	cbnz	r0, 8006230 <__mdiff+0x60>
 8006228:	4b31      	ldr	r3, [pc, #196]	@ (80062f0 <__mdiff+0x120>)
 800622a:	f240 2145 	movw	r1, #581	@ 0x245
 800622e:	e7e3      	b.n	80061f8 <__mdiff+0x28>
 8006230:	f8d9 7010 	ldr.w	r7, [r9, #16]
 8006234:	6926      	ldr	r6, [r4, #16]
 8006236:	60c5      	str	r5, [r0, #12]
 8006238:	f109 0310 	add.w	r3, r9, #16
 800623c:	f109 0514 	add.w	r5, r9, #20
 8006240:	f104 0e14 	add.w	lr, r4, #20
 8006244:	f100 0b14 	add.w	fp, r0, #20
 8006248:	eb05 0887 	add.w	r8, r5, r7, lsl #2
 800624c:	eb0e 0686 	add.w	r6, lr, r6, lsl #2
 8006250:	9301      	str	r3, [sp, #4]
 8006252:	46d9      	mov	r9, fp
 8006254:	f04f 0c00 	mov.w	ip, #0
 8006258:	9b01      	ldr	r3, [sp, #4]
 800625a:	f85e 0b04 	ldr.w	r0, [lr], #4
 800625e:	f853 af04 	ldr.w	sl, [r3, #4]!
 8006262:	9301      	str	r3, [sp, #4]
 8006264:	fa1f f38a 	uxth.w	r3, sl
 8006268:	4619      	mov	r1, r3
 800626a:	b283      	uxth	r3, r0
 800626c:	1acb      	subs	r3, r1, r3
 800626e:	0c00      	lsrs	r0, r0, #16
 8006270:	4463      	add	r3, ip
 8006272:	ebc0 401a 	rsb	r0, r0, sl, lsr #16
 8006276:	eb00 4023 	add.w	r0, r0, r3, asr #16
 800627a:	b29b      	uxth	r3, r3
 800627c:	ea43 4300 	orr.w	r3, r3, r0, lsl #16
 8006280:	4576      	cmp	r6, lr
 8006282:	f849 3b04 	str.w	r3, [r9], #4
 8006286:	ea4f 4c20 	mov.w	ip, r0, asr #16
 800628a:	d8e5      	bhi.n	8006258 <__mdiff+0x88>
 800628c:	1b33      	subs	r3, r6, r4
 800628e:	3b15      	subs	r3, #21
 8006290:	f023 0303 	bic.w	r3, r3, #3
 8006294:	3415      	adds	r4, #21
 8006296:	3304      	adds	r3, #4
 8006298:	42a6      	cmp	r6, r4
 800629a:	bf38      	it	cc
 800629c:	2304      	movcc	r3, #4
 800629e:	441d      	add	r5, r3
 80062a0:	445b      	add	r3, fp
 80062a2:	461e      	mov	r6, r3
 80062a4:	462c      	mov	r4, r5
 80062a6:	4544      	cmp	r4, r8
 80062a8:	d30e      	bcc.n	80062c8 <__mdiff+0xf8>
 80062aa:	f108 0103 	add.w	r1, r8, #3
 80062ae:	1b49      	subs	r1, r1, r5
 80062b0:	f021 0103 	bic.w	r1, r1, #3
 80062b4:	3d03      	subs	r5, #3
 80062b6:	45a8      	cmp	r8, r5
 80062b8:	bf38      	it	cc
 80062ba:	2100      	movcc	r1, #0
 80062bc:	440b      	add	r3, r1
 80062be:	f853 1d04 	ldr.w	r1, [r3, #-4]!
 80062c2:	b191      	cbz	r1, 80062ea <__mdiff+0x11a>
 80062c4:	6117      	str	r7, [r2, #16]
 80062c6:	e79d      	b.n	8006204 <__mdiff+0x34>
 80062c8:	f854 1b04 	ldr.w	r1, [r4], #4
 80062cc:	46e6      	mov	lr, ip
 80062ce:	0c08      	lsrs	r0, r1, #16
 80062d0:	fa1c fc81 	uxtah	ip, ip, r1
 80062d4:	4471      	add	r1, lr
 80062d6:	eb00 402c 	add.w	r0, r0, ip, asr #16
 80062da:	b289      	uxth	r1, r1
 80062dc:	ea41 4100 	orr.w	r1, r1, r0, lsl #16
 80062e0:	f846 1b04 	str.w	r1, [r6], #4
 80062e4:	ea4f 4c20 	mov.w	ip, r0, asr #16
 80062e8:	e7dd      	b.n	80062a6 <__mdiff+0xd6>
 80062ea:	3f01      	subs	r7, #1
 80062ec:	e7e7      	b.n	80062be <__mdiff+0xee>
 80062ee:	bf00      	nop
 80062f0:	08008525 	.word	0x08008525
 80062f4:	08008536 	.word	0x08008536

080062f8 <__ulp>:
 80062f8:	b082      	sub	sp, #8
 80062fa:	ed8d 0b00 	vstr	d0, [sp]
 80062fe:	9a01      	ldr	r2, [sp, #4]
 8006300:	4b0f      	ldr	r3, [pc, #60]	@ (8006340 <__ulp+0x48>)
 8006302:	4013      	ands	r3, r2
 8006304:	f1a3 7350 	sub.w	r3, r3, #54525952	@ 0x3400000
 8006308:	2b00      	cmp	r3, #0
 800630a:	dc08      	bgt.n	800631e <__ulp+0x26>
 800630c:	425b      	negs	r3, r3
 800630e:	f1b3 7fa0 	cmp.w	r3, #20971520	@ 0x1400000
 8006312:	ea4f 5223 	mov.w	r2, r3, asr #20
 8006316:	da04      	bge.n	8006322 <__ulp+0x2a>
 8006318:	f44f 2300 	mov.w	r3, #524288	@ 0x80000
 800631c:	4113      	asrs	r3, r2
 800631e:	2200      	movs	r2, #0
 8006320:	e008      	b.n	8006334 <__ulp+0x3c>
 8006322:	f1a2 0314 	sub.w	r3, r2, #20
 8006326:	2b1e      	cmp	r3, #30
 8006328:	bfda      	itte	le
 800632a:	f04f 4200 	movle.w	r2, #2147483648	@ 0x80000000
 800632e:	40da      	lsrle	r2, r3
 8006330:	2201      	movgt	r2, #1
 8006332:	2300      	movs	r3, #0
 8006334:	4619      	mov	r1, r3
 8006336:	4610      	mov	r0, r2
 8006338:	ec41 0b10 	vmov	d0, r0, r1
 800633c:	b002      	add	sp, #8
 800633e:	4770      	bx	lr
 8006340:	7ff00000 	.word	0x7ff00000

08006344 <__b2d>:
 8006344:	e92d 41f0 	stmdb	sp!, {r4, r5, r6, r7, r8, lr}
 8006348:	6906      	ldr	r6, [r0, #16]
 800634a:	f100 0814 	add.w	r8, r0, #20
 800634e:	eb08 0686 	add.w	r6, r8, r6, lsl #2
 8006352:	1f37      	subs	r7, r6, #4
 8006354:	f856 2c04 	ldr.w	r2, [r6, #-4]
 8006358:	4610      	mov	r0, r2
 800635a:	f7ff fd53 	bl	8005e04 <__hi0bits>
 800635e:	f1c0 0320 	rsb	r3, r0, #32
 8006362:	280a      	cmp	r0, #10
 8006364:	600b      	str	r3, [r1, #0]
 8006366:	491b      	ldr	r1, [pc, #108]	@ (80063d4 <__b2d+0x90>)
 8006368:	dc15      	bgt.n	8006396 <__b2d+0x52>
 800636a:	f1c0 0c0b 	rsb	ip, r0, #11
 800636e:	fa22 f30c 	lsr.w	r3, r2, ip
 8006372:	45b8      	cmp	r8, r7
 8006374:	ea43 0501 	orr.w	r5, r3, r1
 8006378:	bf34      	ite	cc
 800637a:	f856 3c08 	ldrcc.w	r3, [r6, #-8]
 800637e:	2300      	movcs	r3, #0
 8006380:	3015      	adds	r0, #21
 8006382:	fa02 f000 	lsl.w	r0, r2, r0
 8006386:	fa23 f30c 	lsr.w	r3, r3, ip
 800638a:	4303      	orrs	r3, r0
 800638c:	461c      	mov	r4, r3
 800638e:	ec45 4b10 	vmov	d0, r4, r5
 8006392:	e8bd 81f0 	ldmia.w	sp!, {r4, r5, r6, r7, r8, pc}
 8006396:	45b8      	cmp	r8, r7
 8006398:	bf3a      	itte	cc
 800639a:	f856 3c08 	ldrcc.w	r3, [r6, #-8]
 800639e:	f1a6 0708 	subcc.w	r7, r6, #8
 80063a2:	2300      	movcs	r3, #0
 80063a4:	380b      	subs	r0, #11
 80063a6:	d012      	beq.n	80063ce <__b2d+0x8a>
 80063a8:	f1c0 0120 	rsb	r1, r0, #32
 80063ac:	fa23 f401 	lsr.w	r4, r3, r1
 80063b0:	4082      	lsls	r2, r0
 80063b2:	4322      	orrs	r2, r4
 80063b4:	4547      	cmp	r7, r8
 80063b6:	f042 557f 	orr.w	r5, r2, #1069547520	@ 0x3fc00000
 80063ba:	bf8c      	ite	hi
 80063bc:	f857 2c04 	ldrhi.w	r2, [r7, #-4]
 80063c0:	2200      	movls	r2, #0
 80063c2:	4083      	lsls	r3, r0
 80063c4:	40ca      	lsrs	r2, r1
 80063c6:	f445 1540 	orr.w	r5, r5, #3145728	@ 0x300000
 80063ca:	4313      	orrs	r3, r2
 80063cc:	e7de      	b.n	800638c <__b2d+0x48>
 80063ce:	ea42 0501 	orr.w	r5, r2, r1
 80063d2:	e7db      	b.n	800638c <__b2d+0x48>
 80063d4:	3ff00000 	.word	0x3ff00000

080063d8 <__d2b>:
 80063d8:	e92d 43f7 	stmdb	sp!, {r0, r1, r2, r4, r5, r6, r7, r8, r9, lr}
 80063dc:	460f      	mov	r7, r1
 80063de:	2101      	movs	r1, #1
 80063e0:	ec59 8b10 	vmov	r8, r9, d0
 80063e4:	4616      	mov	r6, r2
 80063e6:	f7ff fc1b 	bl	8005c20 <_Balloc>
 80063ea:	4604      	mov	r4, r0
 80063ec:	b930      	cbnz	r0, 80063fc <__d2b+0x24>
 80063ee:	4602      	mov	r2, r0
 80063f0:	4b23      	ldr	r3, [pc, #140]	@ (8006480 <__d2b+0xa8>)
 80063f2:	4824      	ldr	r0, [pc, #144]	@ (8006484 <__d2b+0xac>)
 80063f4:	f240 310f 	movw	r1, #783	@ 0x30f
 80063f8:	f001 f996 	bl	8007728 <__assert_func>
 80063fc:	f3c9 550a 	ubfx	r5, r9, #20, #11
 8006400:	f3c9 0313 	ubfx	r3, r9, #0, #20
 8006404:	b10d      	cbz	r5, 800640a <__d2b+0x32>
 8006406:	f443 1380 	orr.w	r3, r3, #1048576	@ 0x100000
 800640a:	9301      	str	r3, [sp, #4]
 800640c:	f1b8 0300 	subs.w	r3, r8, #0
 8006410:	d023      	beq.n	800645a <__d2b+0x82>
 8006412:	4668      	mov	r0, sp
 8006414:	9300      	str	r3, [sp, #0]
 8006416:	f7ff fd14 	bl	8005e42 <__lo0bits>
 800641a:	e9dd 1200 	ldrd	r1, r2, [sp]
 800641e:	b1d0      	cbz	r0, 8006456 <__d2b+0x7e>
 8006420:	f1c0 0320 	rsb	r3, r0, #32
 8006424:	fa02 f303 	lsl.w	r3, r2, r3
 8006428:	430b      	orrs	r3, r1
 800642a:	40c2      	lsrs	r2, r0
 800642c:	6163      	str	r3, [r4, #20]
 800642e:	9201      	str	r2, [sp, #4]
 8006430:	9b01      	ldr	r3, [sp, #4]
 8006432:	61a3      	str	r3, [r4, #24]
 8006434:	2b00      	cmp	r3, #0
 8006436:	bf0c      	ite	eq
 8006438:	2201      	moveq	r2, #1
 800643a:	2202      	movne	r2, #2
 800643c:	6122      	str	r2, [r4, #16]
 800643e:	b1a5      	cbz	r5, 800646a <__d2b+0x92>
 8006440:	f2a5 4533 	subw	r5, r5, #1075	@ 0x433
 8006444:	4405      	add	r5, r0
 8006446:	603d      	str	r5, [r7, #0]
 8006448:	f1c0 0035 	rsb	r0, r0, #53	@ 0x35
 800644c:	6030      	str	r0, [r6, #0]
 800644e:	4620      	mov	r0, r4
 8006450:	b003      	add	sp, #12
 8006452:	e8bd 83f0 	ldmia.w	sp!, {r4, r5, r6, r7, r8, r9, pc}
 8006456:	6161      	str	r1, [r4, #20]
 8006458:	e7ea      	b.n	8006430 <__d2b+0x58>
 800645a:	a801      	add	r0, sp, #4
 800645c:	f7ff fcf1 	bl	8005e42 <__lo0bits>
 8006460:	9b01      	ldr	r3, [sp, #4]
 8006462:	6163      	str	r3, [r4, #20]
 8006464:	3020      	adds	r0, #32
 8006466:	2201      	movs	r2, #1
 8006468:	e7e8      	b.n	800643c <__d2b+0x64>
 800646a:	eb04 0382 	add.w	r3, r4, r2, lsl #2
 800646e:	f2a0 4032 	subw	r0, r0, #1074	@ 0x432
 8006472:	6038      	str	r0, [r7, #0]
 8006474:	6918      	ldr	r0, [r3, #16]
 8006476:	f7ff fcc5 	bl	8005e04 <__hi0bits>
 800647a:	ebc0 1042 	rsb	r0, r0, r2, lsl #5
 800647e:	e7e5      	b.n	800644c <__d2b+0x74>
 8006480:	08008525 	.word	0x08008525
 8006484:	08008536 	.word	0x08008536

08006488 <__ratio>:
 8006488:	e92d 4ff0 	stmdb	sp!, {r4, r5, r6, r7, r8, r9, sl, fp, lr}
 800648c:	b085      	sub	sp, #20
 800648e:	e9cd 1000 	strd	r1, r0, [sp]
 8006492:	a902      	add	r1, sp, #8
 8006494:	f7ff ff56 	bl	8006344 <__b2d>
 8006498:	9800      	ldr	r0, [sp, #0]
 800649a:	a903      	add	r1, sp, #12
 800649c:	ec55 4b10 	vmov	r4, r5, d0
 80064a0:	f7ff ff50 	bl	8006344 <__b2d>
 80064a4:	9b01      	ldr	r3, [sp, #4]
 80064a6:	6919      	ldr	r1, [r3, #16]
 80064a8:	9b00      	ldr	r3, [sp, #0]
 80064aa:	691b      	ldr	r3, [r3, #16]
 80064ac:	1ac9      	subs	r1, r1, r3
 80064ae:	e9dd 3202 	ldrd	r3, r2, [sp, #8]
 80064b2:	1a9b      	subs	r3, r3, r2
 80064b4:	ec5b ab10 	vmov	sl, fp, d0
 80064b8:	eb03 1341 	add.w	r3, r3, r1, lsl #5
 80064bc:	2b00      	cmp	r3, #0
 80064be:	bfce      	itee	gt
 80064c0:	462a      	movgt	r2, r5
 80064c2:	ebc3 3303 	rsble	r3, r3, r3, lsl #12
 80064c6:	465a      	movle	r2, fp
 80064c8:	462f      	mov	r7, r5
 80064ca:	46d9      	mov	r9, fp
 80064cc:	bfcc      	ite	gt
 80064ce:	eb02 5703 	addgt.w	r7, r2, r3, lsl #20
 80064d2:	eb02 5903 	addle.w	r9, r2, r3, lsl #20
 80064d6:	464b      	mov	r3, r9
 80064d8:	4652      	mov	r2, sl
 80064da:	4620      	mov	r0, r4
 80064dc:	4639      	mov	r1, r7
 80064de:	f7fa f9dd 	bl	800089c <__aeabi_ddiv>
 80064e2:	ec41 0b10 	vmov	d0, r0, r1
 80064e6:	b005      	add	sp, #20
 80064e8:	e8bd 8ff0 	ldmia.w	sp!, {r4, r5, r6, r7, r8, r9, sl, fp, pc}

080064ec <__copybits>:
 80064ec:	3901      	subs	r1, #1
 80064ee:	b570      	push	{r4, r5, r6, lr}
 80064f0:	1149      	asrs	r1, r1, #5
 80064f2:	6914      	ldr	r4, [r2, #16]
 80064f4:	3101      	adds	r1, #1
 80064f6:	f102 0314 	add.w	r3, r2, #20
 80064fa:	eb00 0181 	add.w	r1, r0, r1, lsl #2
 80064fe:	eb03 0484 	add.w	r4, r3, r4, lsl #2
 8006502:	1f05      	subs	r5, r0, #4
 8006504:	42a3      	cmp	r3, r4
 8006506:	d30c      	bcc.n	8006522 <__copybits+0x36>
 8006508:	1aa3      	subs	r3, r4, r2
 800650a:	3b11      	subs	r3, #17
 800650c:	f023 0303 	bic.w	r3, r3, #3
 8006510:	3211      	adds	r2, #17
 8006512:	42a2      	cmp	r2, r4
 8006514:	bf88      	it	hi
 8006516:	2300      	movhi	r3, #0
 8006518:	4418      	add	r0, r3
 800651a:	2300      	movs	r3, #0
 800651c:	4288      	cmp	r0, r1
 800651e:	d305      	bcc.n	800652c <__copybits+0x40>
 8006520:	bd70      	pop	{r4, r5, r6, pc}
 8006522:	f853 6b04 	ldr.w	r6, [r3], #4
 8006526:	f845 6f04 	str.w	r6, [r5, #4]!
 800652a:	e7eb      	b.n	8006504 <__copybits+0x18>
 800652c:	f840 3b04 	str.w	r3, [r0], #4
 8006530:	e7f4      	b.n	800651c <__copybits+0x30>

08006532 <__any_on>:
 8006532:	f100 0214 	add.w	r2, r0, #20
 8006536:	6900      	ldr	r0, [r0, #16]
 8006538:	114b      	asrs	r3, r1, #5
 800653a:	4298      	cmp	r0, r3
 800653c:	b510      	push	{r4, lr}
 800653e:	db11      	blt.n	8006564 <__any_on+0x32>
 8006540:	dd0a      	ble.n	8006558 <__any_on+0x26>
 8006542:	f011 011f 	ands.w	r1, r1, #31
 8006546:	d007      	beq.n	8006558 <__any_on+0x26>
 8006548:	f852 4023 	ldr.w	r4, [r2, r3, lsl #2]
 800654c:	fa24 f001 	lsr.w	r0, r4, r1
 8006550:	fa00 f101 	lsl.w	r1, r0, r1
 8006554:	428c      	cmp	r4, r1
 8006556:	d10b      	bne.n	8006570 <__any_on+0x3e>
 8006558:	eb02 0383 	add.w	r3, r2, r3, lsl #2
 800655c:	4293      	cmp	r3, r2
 800655e:	d803      	bhi.n	8006568 <__any_on+0x36>
 8006560:	2000      	movs	r0, #0
 8006562:	bd10      	pop	{r4, pc}
 8006564:	4603      	mov	r3, r0
 8006566:	e7f7      	b.n	8006558 <__any_on+0x26>
 8006568:	f853 1d04 	ldr.w	r1, [r3, #-4]!
 800656c:	2900      	cmp	r1, #0
 800656e:	d0f5      	beq.n	800655c <__any_on+0x2a>
 8006570:	2001      	movs	r0, #1
 8006572:	e7f6      	b.n	8006562 <__any_on+0x30>

08006574 <sulp>:
 8006574:	b570      	push	{r4, r5, r6, lr}
 8006576:	4604      	mov	r4, r0
 8006578:	460d      	mov	r5, r1
 800657a:	ec45 4b10 	vmov	d0, r4, r5
 800657e:	4616      	mov	r6, r2
 8006580:	f7ff feba 	bl	80062f8 <__ulp>
 8006584:	ec51 0b10 	vmov	r0, r1, d0
 8006588:	b17e      	cbz	r6, 80065aa <sulp+0x36>
 800658a:	f3c5 530a 	ubfx	r3, r5, #20, #11
 800658e:	f1c3 036b 	rsb	r3, r3, #107	@ 0x6b
 8006592:	2b00      	cmp	r3, #0
 8006594:	dd09      	ble.n	80065aa <sulp+0x36>
 8006596:	051b      	lsls	r3, r3, #20
 8006598:	f103 557f 	add.w	r5, r3, #1069547520	@ 0x3fc00000
 800659c:	2400      	movs	r4, #0
 800659e:	f505 1540 	add.w	r5, r5, #3145728	@ 0x300000
 80065a2:	4622      	mov	r2, r4
 80065a4:	462b      	mov	r3, r5
 80065a6:	f7fa f84f 	bl	8000648 <__aeabi_dmul>
 80065aa:	ec41 0b10 	vmov	d0, r0, r1
 80065ae:	bd70      	pop	{r4, r5, r6, pc}

080065b0 <_strtod_l>:
 80065b0:	e92d 4ff0 	stmdb	sp!, {r4, r5, r6, r7, r8, r9, sl, fp, lr}
 80065b4:	b09f      	sub	sp, #124	@ 0x7c
 80065b6:	460c      	mov	r4, r1
 80065b8:	9217      	str	r2, [sp, #92]	@ 0x5c
 80065ba:	2200      	movs	r2, #0
 80065bc:	921a      	str	r2, [sp, #104]	@ 0x68
 80065be:	9005      	str	r0, [sp, #20]
 80065c0:	f04f 0a00 	mov.w	sl, #0
 80065c4:	f04f 0b00 	mov.w	fp, #0
 80065c8:	460a      	mov	r2, r1
 80065ca:	9219      	str	r2, [sp, #100]	@ 0x64
 80065cc:	7811      	ldrb	r1, [r2, #0]
 80065ce:	292b      	cmp	r1, #43	@ 0x2b
 80065d0:	d04a      	beq.n	8006668 <_strtod_l+0xb8>
 80065d2:	d838      	bhi.n	8006646 <_strtod_l+0x96>
 80065d4:	290d      	cmp	r1, #13
 80065d6:	d832      	bhi.n	800663e <_strtod_l+0x8e>
 80065d8:	2908      	cmp	r1, #8
 80065da:	d832      	bhi.n	8006642 <_strtod_l+0x92>
 80065dc:	2900      	cmp	r1, #0
 80065de:	d03b      	beq.n	8006658 <_strtod_l+0xa8>
 80065e0:	2200      	movs	r2, #0
 80065e2:	920e      	str	r2, [sp, #56]	@ 0x38
 80065e4:	9d19      	ldr	r5, [sp, #100]	@ 0x64
 80065e6:	782a      	ldrb	r2, [r5, #0]
 80065e8:	2a30      	cmp	r2, #48	@ 0x30
 80065ea:	f040 80b2 	bne.w	8006752 <_strtod_l+0x1a2>
 80065ee:	786a      	ldrb	r2, [r5, #1]
 80065f0:	f002 02df 	and.w	r2, r2, #223	@ 0xdf
 80065f4:	2a58      	cmp	r2, #88	@ 0x58
 80065f6:	d16e      	bne.n	80066d6 <_strtod_l+0x126>
 80065f8:	9302      	str	r3, [sp, #8]
 80065fa:	9b0e      	ldr	r3, [sp, #56]	@ 0x38
 80065fc:	9301      	str	r3, [sp, #4]
 80065fe:	ab1a      	add	r3, sp, #104	@ 0x68
 8006600:	9300      	str	r3, [sp, #0]
 8006602:	4a8f      	ldr	r2, [pc, #572]	@ (8006840 <_strtod_l+0x290>)
 8006604:	9805      	ldr	r0, [sp, #20]
 8006606:	ab1b      	add	r3, sp, #108	@ 0x6c
 8006608:	a919      	add	r1, sp, #100	@ 0x64
 800660a:	f001 f927 	bl	800785c <__gethex>
 800660e:	f010 060f 	ands.w	r6, r0, #15
 8006612:	4604      	mov	r4, r0
 8006614:	d005      	beq.n	8006622 <_strtod_l+0x72>
 8006616:	2e06      	cmp	r6, #6
 8006618:	d128      	bne.n	800666c <_strtod_l+0xbc>
 800661a:	3501      	adds	r5, #1
 800661c:	2300      	movs	r3, #0
 800661e:	9519      	str	r5, [sp, #100]	@ 0x64
 8006620:	930e      	str	r3, [sp, #56]	@ 0x38
 8006622:	9b17      	ldr	r3, [sp, #92]	@ 0x5c
 8006624:	2b00      	cmp	r3, #0
 8006626:	f040 858e 	bne.w	8007146 <_strtod_l+0xb96>
 800662a:	9b0e      	ldr	r3, [sp, #56]	@ 0x38
 800662c:	b1cb      	cbz	r3, 8006662 <_strtod_l+0xb2>
 800662e:	4652      	mov	r2, sl
 8006630:	f10b 4300 	add.w	r3, fp, #2147483648	@ 0x80000000
 8006634:	ec43 2b10 	vmov	d0, r2, r3
 8006638:	b01f      	add	sp, #124	@ 0x7c
 800663a:	e8bd 8ff0 	ldmia.w	sp!, {r4, r5, r6, r7, r8, r9, sl, fp, pc}
 800663e:	2920      	cmp	r1, #32
 8006640:	d1ce      	bne.n	80065e0 <_strtod_l+0x30>
 8006642:	3201      	adds	r2, #1
 8006644:	e7c1      	b.n	80065ca <_strtod_l+0x1a>
 8006646:	292d      	cmp	r1, #45	@ 0x2d
 8006648:	d1ca      	bne.n	80065e0 <_strtod_l+0x30>
 800664a:	2101      	movs	r1, #1
 800664c:	910e      	str	r1, [sp, #56]	@ 0x38
 800664e:	1c51      	adds	r1, r2, #1
 8006650:	9119      	str	r1, [sp, #100]	@ 0x64
 8006652:	7852      	ldrb	r2, [r2, #1]
 8006654:	2a00      	cmp	r2, #0
 8006656:	d1c5      	bne.n	80065e4 <_strtod_l+0x34>
 8006658:	9b17      	ldr	r3, [sp, #92]	@ 0x5c
 800665a:	9419      	str	r4, [sp, #100]	@ 0x64
 800665c:	2b00      	cmp	r3, #0
 800665e:	f040 8570 	bne.w	8007142 <_strtod_l+0xb92>
 8006662:	4652      	mov	r2, sl
 8006664:	465b      	mov	r3, fp
 8006666:	e7e5      	b.n	8006634 <_strtod_l+0x84>
 8006668:	2100      	movs	r1, #0
 800666a:	e7ef      	b.n	800664c <_strtod_l+0x9c>
 800666c:	9a1a      	ldr	r2, [sp, #104]	@ 0x68
 800666e:	b13a      	cbz	r2, 8006680 <_strtod_l+0xd0>
 8006670:	2135      	movs	r1, #53	@ 0x35
 8006672:	a81c      	add	r0, sp, #112	@ 0x70
 8006674:	f7ff ff3a 	bl	80064ec <__copybits>
 8006678:	991a      	ldr	r1, [sp, #104]	@ 0x68
 800667a:	9805      	ldr	r0, [sp, #20]
 800667c:	f7ff fb10 	bl	8005ca0 <_Bfree>
 8006680:	3e01      	subs	r6, #1
 8006682:	9a1b      	ldr	r2, [sp, #108]	@ 0x6c
 8006684:	2e04      	cmp	r6, #4
 8006686:	d806      	bhi.n	8006696 <_strtod_l+0xe6>
 8006688:	e8df f006 	tbb	[pc, r6]
 800668c:	201d0314 	.word	0x201d0314
 8006690:	14          	.byte	0x14
 8006691:	00          	.byte	0x00
 8006692:	e9dd ab1c 	ldrd	sl, fp, [sp, #112]	@ 0x70
 8006696:	05e1      	lsls	r1, r4, #23
 8006698:	bf48      	it	mi
 800669a:	f04b 4b00 	orrmi.w	fp, fp, #2147483648	@ 0x80000000
 800669e:	f02b 4300 	bic.w	r3, fp, #2147483648	@ 0x80000000
 80066a2:	0d1b      	lsrs	r3, r3, #20
 80066a4:	051b      	lsls	r3, r3, #20
 80066a6:	2b00      	cmp	r3, #0
 80066a8:	d1bb      	bne.n	8006622 <_strtod_l+0x72>
 80066aa:	f7fe fb2d 	bl	8004d08 <__errno>
 80066ae:	2322      	movs	r3, #34	@ 0x22
 80066b0:	6003      	str	r3, [r0, #0]
 80066b2:	e7b6      	b.n	8006622 <_strtod_l+0x72>
 80066b4:	e9dd a31c 	ldrd	sl, r3, [sp, #112]	@ 0x70
 80066b8:	f202 4233 	addw	r2, r2, #1075	@ 0x433
 80066bc:	f423 1380 	bic.w	r3, r3, #1048576	@ 0x100000
 80066c0:	ea43 5b02 	orr.w	fp, r3, r2, lsl #20
 80066c4:	e7e7      	b.n	8006696 <_strtod_l+0xe6>
 80066c6:	f8df b180 	ldr.w	fp, [pc, #384]	@ 8006848 <_strtod_l+0x298>
 80066ca:	e7e4      	b.n	8006696 <_strtod_l+0xe6>
 80066cc:	f06f 4b00 	mvn.w	fp, #2147483648	@ 0x80000000
 80066d0:	f04f 3aff 	mov.w	sl, #4294967295
 80066d4:	e7df      	b.n	8006696 <_strtod_l+0xe6>
 80066d6:	9b19      	ldr	r3, [sp, #100]	@ 0x64
 80066d8:	1c5a      	adds	r2, r3, #1
 80066da:	9219      	str	r2, [sp, #100]	@ 0x64
 80066dc:	785b      	ldrb	r3, [r3, #1]
 80066de:	2b30      	cmp	r3, #48	@ 0x30
 80066e0:	d0f9      	beq.n	80066d6 <_strtod_l+0x126>
 80066e2:	2b00      	cmp	r3, #0
 80066e4:	d09d      	beq.n	8006622 <_strtod_l+0x72>
 80066e6:	2301      	movs	r3, #1
 80066e8:	2700      	movs	r7, #0
 80066ea:	9308      	str	r3, [sp, #32]
 80066ec:	9b19      	ldr	r3, [sp, #100]	@ 0x64
 80066ee:	930c      	str	r3, [sp, #48]	@ 0x30
 80066f0:	970b      	str	r7, [sp, #44]	@ 0x2c
 80066f2:	46b9      	mov	r9, r7
 80066f4:	220a      	movs	r2, #10
 80066f6:	9819      	ldr	r0, [sp, #100]	@ 0x64
 80066f8:	7805      	ldrb	r5, [r0, #0]
 80066fa:	f1a5 0330 	sub.w	r3, r5, #48	@ 0x30
 80066fe:	b2d9      	uxtb	r1, r3
 8006700:	2909      	cmp	r1, #9
 8006702:	d928      	bls.n	8006756 <_strtod_l+0x1a6>
 8006704:	494f      	ldr	r1, [pc, #316]	@ (8006844 <_strtod_l+0x294>)
 8006706:	2201      	movs	r2, #1
 8006708:	f000 ffd6 	bl	80076b8 <strncmp>
 800670c:	2800      	cmp	r0, #0
 800670e:	d032      	beq.n	8006776 <_strtod_l+0x1c6>
 8006710:	2000      	movs	r0, #0
 8006712:	462a      	mov	r2, r5
 8006714:	900a      	str	r0, [sp, #40]	@ 0x28
 8006716:	464d      	mov	r5, r9
 8006718:	4603      	mov	r3, r0
 800671a:	2a65      	cmp	r2, #101	@ 0x65
 800671c:	d001      	beq.n	8006722 <_strtod_l+0x172>
 800671e:	2a45      	cmp	r2, #69	@ 0x45
 8006720:	d114      	bne.n	800674c <_strtod_l+0x19c>
 8006722:	b91d      	cbnz	r5, 800672c <_strtod_l+0x17c>
 8006724:	9a08      	ldr	r2, [sp, #32]
 8006726:	4302      	orrs	r2, r0
 8006728:	d096      	beq.n	8006658 <_strtod_l+0xa8>
 800672a:	2500      	movs	r5, #0
 800672c:	9c19      	ldr	r4, [sp, #100]	@ 0x64
 800672e:	1c62      	adds	r2, r4, #1
 8006730:	9219      	str	r2, [sp, #100]	@ 0x64
 8006732:	7862      	ldrb	r2, [r4, #1]
 8006734:	2a2b      	cmp	r2, #43	@ 0x2b
 8006736:	d07a      	beq.n	800682e <_strtod_l+0x27e>
 8006738:	2a2d      	cmp	r2, #45	@ 0x2d
 800673a:	d07e      	beq.n	800683a <_strtod_l+0x28a>
 800673c:	f04f 0c00 	mov.w	ip, #0
 8006740:	f1a2 0130 	sub.w	r1, r2, #48	@ 0x30
 8006744:	2909      	cmp	r1, #9
 8006746:	f240 8085 	bls.w	8006854 <_strtod_l+0x2a4>
 800674a:	9419      	str	r4, [sp, #100]	@ 0x64
 800674c:	f04f 0800 	mov.w	r8, #0
 8006750:	e0a5      	b.n	800689e <_strtod_l+0x2ee>
 8006752:	2300      	movs	r3, #0
 8006754:	e7c8      	b.n	80066e8 <_strtod_l+0x138>
 8006756:	f1b9 0f08 	cmp.w	r9, #8
 800675a:	bfd8      	it	le
 800675c:	990b      	ldrle	r1, [sp, #44]	@ 0x2c
 800675e:	f100 0001 	add.w	r0, r0, #1
 8006762:	bfda      	itte	le
 8006764:	fb02 3301 	mlale	r3, r2, r1, r3
 8006768:	930b      	strle	r3, [sp, #44]	@ 0x2c
 800676a:	fb02 3707 	mlagt	r7, r2, r7, r3
 800676e:	f109 0901 	add.w	r9, r9, #1
 8006772:	9019      	str	r0, [sp, #100]	@ 0x64
 8006774:	e7bf      	b.n	80066f6 <_strtod_l+0x146>
 8006776:	9b19      	ldr	r3, [sp, #100]	@ 0x64
 8006778:	1c5a      	adds	r2, r3, #1
 800677a:	9219      	str	r2, [sp, #100]	@ 0x64
 800677c:	785a      	ldrb	r2, [r3, #1]
 800677e:	f1b9 0f00 	cmp.w	r9, #0
 8006782:	d03b      	beq.n	80067fc <_strtod_l+0x24c>
 8006784:	900a      	str	r0, [sp, #40]	@ 0x28
 8006786:	464d      	mov	r5, r9
 8006788:	f1a2 0330 	sub.w	r3, r2, #48	@ 0x30
 800678c:	2b09      	cmp	r3, #9
 800678e:	d912      	bls.n	80067b6 <_strtod_l+0x206>
 8006790:	2301      	movs	r3, #1
 8006792:	e7c2      	b.n	800671a <_strtod_l+0x16a>
 8006794:	9b19      	ldr	r3, [sp, #100]	@ 0x64
 8006796:	1c5a      	adds	r2, r3, #1
 8006798:	9219      	str	r2, [sp, #100]	@ 0x64
 800679a:	785a      	ldrb	r2, [r3, #1]
 800679c:	3001      	adds	r0, #1
 800679e:	2a30      	cmp	r2, #48	@ 0x30
 80067a0:	d0f8      	beq.n	8006794 <_strtod_l+0x1e4>
 80067a2:	f1a2 0331 	sub.w	r3, r2, #49	@ 0x31
 80067a6:	2b08      	cmp	r3, #8
 80067a8:	f200 84d2 	bhi.w	8007150 <_strtod_l+0xba0>
 80067ac:	9b19      	ldr	r3, [sp, #100]	@ 0x64
 80067ae:	900a      	str	r0, [sp, #40]	@ 0x28
 80067b0:	2000      	movs	r0, #0
 80067b2:	930c      	str	r3, [sp, #48]	@ 0x30
 80067b4:	4605      	mov	r5, r0
 80067b6:	3a30      	subs	r2, #48	@ 0x30
 80067b8:	f100 0301 	add.w	r3, r0, #1
 80067bc:	d018      	beq.n	80067f0 <_strtod_l+0x240>
 80067be:	990a      	ldr	r1, [sp, #40]	@ 0x28
 80067c0:	4419      	add	r1, r3
 80067c2:	910a      	str	r1, [sp, #40]	@ 0x28
 80067c4:	462e      	mov	r6, r5
 80067c6:	f04f 0e0a 	mov.w	lr, #10
 80067ca:	1c71      	adds	r1, r6, #1
 80067cc:	eba1 0c05 	sub.w	ip, r1, r5
 80067d0:	4563      	cmp	r3, ip
 80067d2:	dc15      	bgt.n	8006800 <_strtod_l+0x250>
 80067d4:	ea20 70e0 	bic.w	r0, r0, r0, asr #31
 80067d8:	182b      	adds	r3, r5, r0
 80067da:	2b08      	cmp	r3, #8
 80067dc:	f105 0501 	add.w	r5, r5, #1
 80067e0:	4405      	add	r5, r0
 80067e2:	dc1a      	bgt.n	800681a <_strtod_l+0x26a>
 80067e4:	990b      	ldr	r1, [sp, #44]	@ 0x2c
 80067e6:	230a      	movs	r3, #10
 80067e8:	fb03 2301 	mla	r3, r3, r1, r2
 80067ec:	930b      	str	r3, [sp, #44]	@ 0x2c
 80067ee:	2300      	movs	r3, #0
 80067f0:	9a19      	ldr	r2, [sp, #100]	@ 0x64
 80067f2:	1c51      	adds	r1, r2, #1
 80067f4:	9119      	str	r1, [sp, #100]	@ 0x64
 80067f6:	7852      	ldrb	r2, [r2, #1]
 80067f8:	4618      	mov	r0, r3
 80067fa:	e7c5      	b.n	8006788 <_strtod_l+0x1d8>
 80067fc:	4648      	mov	r0, r9
 80067fe:	e7ce      	b.n	800679e <_strtod_l+0x1ee>
 8006800:	2e08      	cmp	r6, #8
 8006802:	dc05      	bgt.n	8006810 <_strtod_l+0x260>
 8006804:	9e0b      	ldr	r6, [sp, #44]	@ 0x2c
 8006806:	fb0e f606 	mul.w	r6, lr, r6
 800680a:	960b      	str	r6, [sp, #44]	@ 0x2c
 800680c:	460e      	mov	r6, r1
 800680e:	e7dc      	b.n	80067ca <_strtod_l+0x21a>
 8006810:	2910      	cmp	r1, #16
 8006812:	bfd8      	it	le
 8006814:	fb0e f707 	mulle.w	r7, lr, r7
 8006818:	e7f8      	b.n	800680c <_strtod_l+0x25c>
 800681a:	2b0f      	cmp	r3, #15
 800681c:	bfdc      	itt	le
 800681e:	230a      	movle	r3, #10
 8006820:	fb03 2707 	mlale	r7, r3, r7, r2
 8006824:	e7e3      	b.n	80067ee <_strtod_l+0x23e>
 8006826:	2300      	movs	r3, #0
 8006828:	930a      	str	r3, [sp, #40]	@ 0x28
 800682a:	2301      	movs	r3, #1
 800682c:	e77a      	b.n	8006724 <_strtod_l+0x174>
 800682e:	f04f 0c00 	mov.w	ip, #0
 8006832:	1ca2      	adds	r2, r4, #2
 8006834:	9219      	str	r2, [sp, #100]	@ 0x64
 8006836:	78a2      	ldrb	r2, [r4, #2]
 8006838:	e782      	b.n	8006740 <_strtod_l+0x190>
 800683a:	f04f 0c01 	mov.w	ip, #1
 800683e:	e7f8      	b.n	8006832 <_strtod_l+0x282>
 8006840:	0800875c 	.word	0x0800875c
 8006844:	0800858f 	.word	0x0800858f
 8006848:	7ff00000 	.word	0x7ff00000
 800684c:	9a19      	ldr	r2, [sp, #100]	@ 0x64
 800684e:	1c51      	adds	r1, r2, #1
 8006850:	9119      	str	r1, [sp, #100]	@ 0x64
 8006852:	7852      	ldrb	r2, [r2, #1]
 8006854:	2a30      	cmp	r2, #48	@ 0x30
 8006856:	d0f9      	beq.n	800684c <_strtod_l+0x29c>
 8006858:	f1a2 0131 	sub.w	r1, r2, #49	@ 0x31
 800685c:	2908      	cmp	r1, #8
 800685e:	f63f af75 	bhi.w	800674c <_strtod_l+0x19c>
 8006862:	3a30      	subs	r2, #48	@ 0x30
 8006864:	9209      	str	r2, [sp, #36]	@ 0x24
 8006866:	9a19      	ldr	r2, [sp, #100]	@ 0x64
 8006868:	920f      	str	r2, [sp, #60]	@ 0x3c
 800686a:	f04f 080a 	mov.w	r8, #10
 800686e:	9a19      	ldr	r2, [sp, #100]	@ 0x64
 8006870:	1c56      	adds	r6, r2, #1
 8006872:	9619      	str	r6, [sp, #100]	@ 0x64
 8006874:	7852      	ldrb	r2, [r2, #1]
 8006876:	f1a2 0e30 	sub.w	lr, r2, #48	@ 0x30
 800687a:	f1be 0f09 	cmp.w	lr, #9
 800687e:	d939      	bls.n	80068f4 <_strtod_l+0x344>
 8006880:	990f      	ldr	r1, [sp, #60]	@ 0x3c
 8006882:	1a76      	subs	r6, r6, r1
 8006884:	2e08      	cmp	r6, #8
 8006886:	f644 681f 	movw	r8, #19999	@ 0x4e1f
 800688a:	dc03      	bgt.n	8006894 <_strtod_l+0x2e4>
 800688c:	9909      	ldr	r1, [sp, #36]	@ 0x24
 800688e:	4588      	cmp	r8, r1
 8006890:	bfa8      	it	ge
 8006892:	4688      	movge	r8, r1
 8006894:	f1bc 0f00 	cmp.w	ip, #0
 8006898:	d001      	beq.n	800689e <_strtod_l+0x2ee>
 800689a:	f1c8 0800 	rsb	r8, r8, #0
 800689e:	2d00      	cmp	r5, #0
 80068a0:	d14e      	bne.n	8006940 <_strtod_l+0x390>
 80068a2:	9908      	ldr	r1, [sp, #32]
 80068a4:	4308      	orrs	r0, r1
 80068a6:	f47f aebc 	bne.w	8006622 <_strtod_l+0x72>
 80068aa:	2b00      	cmp	r3, #0
 80068ac:	f47f aed4 	bne.w	8006658 <_strtod_l+0xa8>
 80068b0:	2a69      	cmp	r2, #105	@ 0x69
 80068b2:	d028      	beq.n	8006906 <_strtod_l+0x356>
 80068b4:	dc25      	bgt.n	8006902 <_strtod_l+0x352>
 80068b6:	2a49      	cmp	r2, #73	@ 0x49
 80068b8:	d025      	beq.n	8006906 <_strtod_l+0x356>
 80068ba:	2a4e      	cmp	r2, #78	@ 0x4e
 80068bc:	f47f aecc 	bne.w	8006658 <_strtod_l+0xa8>
 80068c0:	499a      	ldr	r1, [pc, #616]	@ (8006b2c <_strtod_l+0x57c>)
 80068c2:	a819      	add	r0, sp, #100	@ 0x64
 80068c4:	f001 f9ec 	bl	8007ca0 <__match>
 80068c8:	2800      	cmp	r0, #0
 80068ca:	f43f aec5 	beq.w	8006658 <_strtod_l+0xa8>
 80068ce:	9b19      	ldr	r3, [sp, #100]	@ 0x64
 80068d0:	781b      	ldrb	r3, [r3, #0]
 80068d2:	2b28      	cmp	r3, #40	@ 0x28
 80068d4:	d12e      	bne.n	8006934 <_strtod_l+0x384>
 80068d6:	4996      	ldr	r1, [pc, #600]	@ (8006b30 <_strtod_l+0x580>)
 80068d8:	aa1c      	add	r2, sp, #112	@ 0x70
 80068da:	a819      	add	r0, sp, #100	@ 0x64
 80068dc:	f001 f9f4 	bl	8007cc8 <__hexnan>
 80068e0:	2805      	cmp	r0, #5
 80068e2:	d127      	bne.n	8006934 <_strtod_l+0x384>
 80068e4:	9b1d      	ldr	r3, [sp, #116]	@ 0x74
 80068e6:	f8dd a070 	ldr.w	sl, [sp, #112]	@ 0x70
 80068ea:	f043 4bff 	orr.w	fp, r3, #2139095040	@ 0x7f800000
 80068ee:	f44b 0be0 	orr.w	fp, fp, #7340032	@ 0x700000
 80068f2:	e696      	b.n	8006622 <_strtod_l+0x72>
 80068f4:	9909      	ldr	r1, [sp, #36]	@ 0x24
 80068f6:	fb08 2101 	mla	r1, r8, r1, r2
 80068fa:	f1a1 0230 	sub.w	r2, r1, #48	@ 0x30
 80068fe:	9209      	str	r2, [sp, #36]	@ 0x24
 8006900:	e7b5      	b.n	800686e <_strtod_l+0x2be>
 8006902:	2a6e      	cmp	r2, #110	@ 0x6e
 8006904:	e7da      	b.n	80068bc <_strtod_l+0x30c>
 8006906:	498b      	ldr	r1, [pc, #556]	@ (8006b34 <_strtod_l+0x584>)
 8006908:	a819      	add	r0, sp, #100	@ 0x64
 800690a:	f001 f9c9 	bl	8007ca0 <__match>
 800690e:	2800      	cmp	r0, #0
 8006910:	f43f aea2 	beq.w	8006658 <_strtod_l+0xa8>
 8006914:	9b19      	ldr	r3, [sp, #100]	@ 0x64
 8006916:	4988      	ldr	r1, [pc, #544]	@ (8006b38 <_strtod_l+0x588>)
 8006918:	3b01      	subs	r3, #1
 800691a:	a819      	add	r0, sp, #100	@ 0x64
 800691c:	9319      	str	r3, [sp, #100]	@ 0x64
 800691e:	f001 f9bf 	bl	8007ca0 <__match>
 8006922:	b910      	cbnz	r0, 800692a <_strtod_l+0x37a>
 8006924:	9b19      	ldr	r3, [sp, #100]	@ 0x64
 8006926:	3301      	adds	r3, #1
 8006928:	9319      	str	r3, [sp, #100]	@ 0x64
 800692a:	f8df b21c 	ldr.w	fp, [pc, #540]	@ 8006b48 <_strtod_l+0x598>
 800692e:	f04f 0a00 	mov.w	sl, #0
 8006932:	e676      	b.n	8006622 <_strtod_l+0x72>
 8006934:	4881      	ldr	r0, [pc, #516]	@ (8006b3c <_strtod_l+0x58c>)
 8006936:	f000 feef 	bl	8007718 <nan>
 800693a:	ec5b ab10 	vmov	sl, fp, d0
 800693e:	e670      	b.n	8006622 <_strtod_l+0x72>
 8006940:	9b0a      	ldr	r3, [sp, #40]	@ 0x28
 8006942:	980b      	ldr	r0, [sp, #44]	@ 0x2c
 8006944:	eba8 0303 	sub.w	r3, r8, r3
 8006948:	f1b9 0f00 	cmp.w	r9, #0
 800694c:	bf08      	it	eq
 800694e:	46a9      	moveq	r9, r5
 8006950:	2d10      	cmp	r5, #16
 8006952:	9309      	str	r3, [sp, #36]	@ 0x24
 8006954:	462c      	mov	r4, r5
 8006956:	bfa8      	it	ge
 8006958:	2410      	movge	r4, #16
 800695a:	f7f9 fdfb 	bl	8000554 <__aeabi_ui2d>
 800695e:	2d09      	cmp	r5, #9
 8006960:	4682      	mov	sl, r0
 8006962:	468b      	mov	fp, r1
 8006964:	dc13      	bgt.n	800698e <_strtod_l+0x3de>
 8006966:	9b09      	ldr	r3, [sp, #36]	@ 0x24
 8006968:	2b00      	cmp	r3, #0
 800696a:	f43f ae5a 	beq.w	8006622 <_strtod_l+0x72>
 800696e:	9b09      	ldr	r3, [sp, #36]	@ 0x24
 8006970:	dd78      	ble.n	8006a64 <_strtod_l+0x4b4>
 8006972:	2b16      	cmp	r3, #22
 8006974:	dc5f      	bgt.n	8006a36 <_strtod_l+0x486>
 8006976:	4972      	ldr	r1, [pc, #456]	@ (8006b40 <_strtod_l+0x590>)
 8006978:	eb01 01c3 	add.w	r1, r1, r3, lsl #3
 800697c:	e9d1 0100 	ldrd	r0, r1, [r1]
 8006980:	4652      	mov	r2, sl
 8006982:	465b      	mov	r3, fp
 8006984:	f7f9 fe60 	bl	8000648 <__aeabi_dmul>
 8006988:	4682      	mov	sl, r0
 800698a:	468b      	mov	fp, r1
 800698c:	e649      	b.n	8006622 <_strtod_l+0x72>
 800698e:	4b6c      	ldr	r3, [pc, #432]	@ (8006b40 <_strtod_l+0x590>)
 8006990:	eb03 03c4 	add.w	r3, r3, r4, lsl #3
 8006994:	e953 2312 	ldrd	r2, r3, [r3, #-72]	@ 0x48
 8006998:	f7f9 fe56 	bl	8000648 <__aeabi_dmul>
 800699c:	4682      	mov	sl, r0
 800699e:	4638      	mov	r0, r7
 80069a0:	468b      	mov	fp, r1
 80069a2:	f7f9 fdd7 	bl	8000554 <__aeabi_ui2d>
 80069a6:	4602      	mov	r2, r0
 80069a8:	460b      	mov	r3, r1
 80069aa:	4650      	mov	r0, sl
 80069ac:	4659      	mov	r1, fp
 80069ae:	f7f9 fc95 	bl	80002dc <__adddf3>
 80069b2:	2d0f      	cmp	r5, #15
 80069b4:	4682      	mov	sl, r0
 80069b6:	468b      	mov	fp, r1
 80069b8:	ddd5      	ble.n	8006966 <_strtod_l+0x3b6>
 80069ba:	9b09      	ldr	r3, [sp, #36]	@ 0x24
 80069bc:	1b2c      	subs	r4, r5, r4
 80069be:	441c      	add	r4, r3
 80069c0:	2c00      	cmp	r4, #0
 80069c2:	f340 8093 	ble.w	8006aec <_strtod_l+0x53c>
 80069c6:	f014 030f 	ands.w	r3, r4, #15
 80069ca:	d00a      	beq.n	80069e2 <_strtod_l+0x432>
 80069cc:	495c      	ldr	r1, [pc, #368]	@ (8006b40 <_strtod_l+0x590>)
 80069ce:	eb01 01c3 	add.w	r1, r1, r3, lsl #3
 80069d2:	4652      	mov	r2, sl
 80069d4:	465b      	mov	r3, fp
 80069d6:	e9d1 0100 	ldrd	r0, r1, [r1]
 80069da:	f7f9 fe35 	bl	8000648 <__aeabi_dmul>
 80069de:	4682      	mov	sl, r0
 80069e0:	468b      	mov	fp, r1
 80069e2:	f034 040f 	bics.w	r4, r4, #15
 80069e6:	d073      	beq.n	8006ad0 <_strtod_l+0x520>
 80069e8:	f5b4 7f9a 	cmp.w	r4, #308	@ 0x134
 80069ec:	dd49      	ble.n	8006a82 <_strtod_l+0x4d2>
 80069ee:	2400      	movs	r4, #0
 80069f0:	46a0      	mov	r8, r4
 80069f2:	940b      	str	r4, [sp, #44]	@ 0x2c
 80069f4:	46a1      	mov	r9, r4
 80069f6:	9a05      	ldr	r2, [sp, #20]
 80069f8:	f8df b14c 	ldr.w	fp, [pc, #332]	@ 8006b48 <_strtod_l+0x598>
 80069fc:	2322      	movs	r3, #34	@ 0x22
 80069fe:	6013      	str	r3, [r2, #0]
 8006a00:	f04f 0a00 	mov.w	sl, #0
 8006a04:	9b0b      	ldr	r3, [sp, #44]	@ 0x2c
 8006a06:	2b00      	cmp	r3, #0
 8006a08:	f43f ae0b 	beq.w	8006622 <_strtod_l+0x72>
 8006a0c:	991a      	ldr	r1, [sp, #104]	@ 0x68
 8006a0e:	9805      	ldr	r0, [sp, #20]
 8006a10:	f7ff f946 	bl	8005ca0 <_Bfree>
 8006a14:	9805      	ldr	r0, [sp, #20]
 8006a16:	4649      	mov	r1, r9
 8006a18:	f7ff f942 	bl	8005ca0 <_Bfree>
 8006a1c:	9805      	ldr	r0, [sp, #20]
 8006a1e:	4641      	mov	r1, r8
 8006a20:	f7ff f93e 	bl	8005ca0 <_Bfree>
 8006a24:	990b      	ldr	r1, [sp, #44]	@ 0x2c
 8006a26:	9805      	ldr	r0, [sp, #20]
 8006a28:	f7ff f93a 	bl	8005ca0 <_Bfree>
 8006a2c:	9805      	ldr	r0, [sp, #20]
 8006a2e:	4621      	mov	r1, r4
 8006a30:	f7ff f936 	bl	8005ca0 <_Bfree>
 8006a34:	e5f5      	b.n	8006622 <_strtod_l+0x72>
 8006a36:	9a09      	ldr	r2, [sp, #36]	@ 0x24
 8006a38:	f1c5 0325 	rsb	r3, r5, #37	@ 0x25
 8006a3c:	4293      	cmp	r3, r2
 8006a3e:	dbbc      	blt.n	80069ba <_strtod_l+0x40a>
 8006a40:	4c3f      	ldr	r4, [pc, #252]	@ (8006b40 <_strtod_l+0x590>)
 8006a42:	f1c5 050f 	rsb	r5, r5, #15
 8006a46:	eb04 01c5 	add.w	r1, r4, r5, lsl #3
 8006a4a:	4652      	mov	r2, sl
 8006a4c:	465b      	mov	r3, fp
 8006a4e:	e9d1 0100 	ldrd	r0, r1, [r1]
 8006a52:	f7f9 fdf9 	bl	8000648 <__aeabi_dmul>
 8006a56:	9b09      	ldr	r3, [sp, #36]	@ 0x24
 8006a58:	1b5d      	subs	r5, r3, r5
 8006a5a:	eb04 04c5 	add.w	r4, r4, r5, lsl #3
 8006a5e:	e9d4 2300 	ldrd	r2, r3, [r4]
 8006a62:	e78f      	b.n	8006984 <_strtod_l+0x3d4>
 8006a64:	3316      	adds	r3, #22
 8006a66:	dba8      	blt.n	80069ba <_strtod_l+0x40a>
 8006a68:	9b0a      	ldr	r3, [sp, #40]	@ 0x28
 8006a6a:	eba3 0808 	sub.w	r8, r3, r8
 8006a6e:	4b34      	ldr	r3, [pc, #208]	@ (8006b40 <_strtod_l+0x590>)
 8006a70:	eb03 08c8 	add.w	r8, r3, r8, lsl #3
 8006a74:	e9d8 2300 	ldrd	r2, r3, [r8]
 8006a78:	4650      	mov	r0, sl
 8006a7a:	4659      	mov	r1, fp
 8006a7c:	f7f9 ff0e 	bl	800089c <__aeabi_ddiv>
 8006a80:	e782      	b.n	8006988 <_strtod_l+0x3d8>
 8006a82:	2300      	movs	r3, #0
 8006a84:	4f2f      	ldr	r7, [pc, #188]	@ (8006b44 <_strtod_l+0x594>)
 8006a86:	1124      	asrs	r4, r4, #4
 8006a88:	4650      	mov	r0, sl
 8006a8a:	4659      	mov	r1, fp
 8006a8c:	461e      	mov	r6, r3
 8006a8e:	2c01      	cmp	r4, #1
 8006a90:	dc21      	bgt.n	8006ad6 <_strtod_l+0x526>
 8006a92:	b10b      	cbz	r3, 8006a98 <_strtod_l+0x4e8>
 8006a94:	4682      	mov	sl, r0
 8006a96:	468b      	mov	fp, r1
 8006a98:	492a      	ldr	r1, [pc, #168]	@ (8006b44 <_strtod_l+0x594>)
 8006a9a:	f1ab 7b54 	sub.w	fp, fp, #55574528	@ 0x3500000
 8006a9e:	eb01 01c6 	add.w	r1, r1, r6, lsl #3
 8006aa2:	4652      	mov	r2, sl
 8006aa4:	465b      	mov	r3, fp
 8006aa6:	e9d1 0100 	ldrd	r0, r1, [r1]
 8006aaa:	f7f9 fdcd 	bl	8000648 <__aeabi_dmul>
 8006aae:	4b26      	ldr	r3, [pc, #152]	@ (8006b48 <_strtod_l+0x598>)
 8006ab0:	460a      	mov	r2, r1
 8006ab2:	400b      	ands	r3, r1
 8006ab4:	4925      	ldr	r1, [pc, #148]	@ (8006b4c <_strtod_l+0x59c>)
 8006ab6:	428b      	cmp	r3, r1
 8006ab8:	4682      	mov	sl, r0
 8006aba:	d898      	bhi.n	80069ee <_strtod_l+0x43e>
 8006abc:	f5a1 1180 	sub.w	r1, r1, #1048576	@ 0x100000
 8006ac0:	428b      	cmp	r3, r1
 8006ac2:	bf86      	itte	hi
 8006ac4:	f8df b088 	ldrhi.w	fp, [pc, #136]	@ 8006b50 <_strtod_l+0x5a0>
 8006ac8:	f04f 3aff 	movhi.w	sl, #4294967295
 8006acc:	f102 7b54 	addls.w	fp, r2, #55574528	@ 0x3500000
 8006ad0:	2300      	movs	r3, #0
 8006ad2:	9308      	str	r3, [sp, #32]
 8006ad4:	e076      	b.n	8006bc4 <_strtod_l+0x614>
 8006ad6:	07e2      	lsls	r2, r4, #31
 8006ad8:	d504      	bpl.n	8006ae4 <_strtod_l+0x534>
 8006ada:	e9d7 2300 	ldrd	r2, r3, [r7]
 8006ade:	f7f9 fdb3 	bl	8000648 <__aeabi_dmul>
 8006ae2:	2301      	movs	r3, #1
 8006ae4:	3601      	adds	r6, #1
 8006ae6:	1064      	asrs	r4, r4, #1
 8006ae8:	3708      	adds	r7, #8
 8006aea:	e7d0      	b.n	8006a8e <_strtod_l+0x4de>
 8006aec:	d0f0      	beq.n	8006ad0 <_strtod_l+0x520>
 8006aee:	4264      	negs	r4, r4
 8006af0:	f014 020f 	ands.w	r2, r4, #15
 8006af4:	d00a      	beq.n	8006b0c <_strtod_l+0x55c>
 8006af6:	4b12      	ldr	r3, [pc, #72]	@ (8006b40 <_strtod_l+0x590>)
 8006af8:	eb03 03c2 	add.w	r3, r3, r2, lsl #3
 8006afc:	4650      	mov	r0, sl
 8006afe:	4659      	mov	r1, fp
 8006b00:	e9d3 2300 	ldrd	r2, r3, [r3]
 8006b04:	f7f9 feca 	bl	800089c <__aeabi_ddiv>
 8006b08:	4682      	mov	sl, r0
 8006b0a:	468b      	mov	fp, r1
 8006b0c:	1124      	asrs	r4, r4, #4
 8006b0e:	d0df      	beq.n	8006ad0 <_strtod_l+0x520>
 8006b10:	2c1f      	cmp	r4, #31
 8006b12:	dd1f      	ble.n	8006b54 <_strtod_l+0x5a4>
 8006b14:	2400      	movs	r4, #0
 8006b16:	46a0      	mov	r8, r4
 8006b18:	940b      	str	r4, [sp, #44]	@ 0x2c
 8006b1a:	46a1      	mov	r9, r4
 8006b1c:	9a05      	ldr	r2, [sp, #20]
 8006b1e:	2322      	movs	r3, #34	@ 0x22
 8006b20:	f04f 0a00 	mov.w	sl, #0
 8006b24:	f04f 0b00 	mov.w	fp, #0
 8006b28:	6013      	str	r3, [r2, #0]
 8006b2a:	e76b      	b.n	8006a04 <_strtod_l+0x454>
 8006b2c:	0800847d 	.word	0x0800847d
 8006b30:	08008748 	.word	0x08008748
 8006b34:	08008475 	.word	0x08008475
 8006b38:	080084ac 	.word	0x080084ac
 8006b3c:	080085e5 	.word	0x080085e5
 8006b40:	08008680 	.word	0x08008680
 8006b44:	08008658 	.word	0x08008658
 8006b48:	7ff00000 	.word	0x7ff00000
 8006b4c:	7ca00000 	.word	0x7ca00000
 8006b50:	7fefffff 	.word	0x7fefffff
 8006b54:	f014 0310 	ands.w	r3, r4, #16
 8006b58:	bf18      	it	ne
 8006b5a:	236a      	movne	r3, #106	@ 0x6a
 8006b5c:	4ea9      	ldr	r6, [pc, #676]	@ (8006e04 <_strtod_l+0x854>)
 8006b5e:	9308      	str	r3, [sp, #32]
 8006b60:	4650      	mov	r0, sl
 8006b62:	4659      	mov	r1, fp
 8006b64:	2300      	movs	r3, #0
 8006b66:	07e7      	lsls	r7, r4, #31
 8006b68:	d504      	bpl.n	8006b74 <_strtod_l+0x5c4>
 8006b6a:	e9d6 2300 	ldrd	r2, r3, [r6]
 8006b6e:	f7f9 fd6b 	bl	8000648 <__aeabi_dmul>
 8006b72:	2301      	movs	r3, #1
 8006b74:	1064      	asrs	r4, r4, #1
 8006b76:	f106 0608 	add.w	r6, r6, #8
 8006b7a:	d1f4      	bne.n	8006b66 <_strtod_l+0x5b6>
 8006b7c:	b10b      	cbz	r3, 8006b82 <_strtod_l+0x5d2>
 8006b7e:	4682      	mov	sl, r0
 8006b80:	468b      	mov	fp, r1
 8006b82:	9b08      	ldr	r3, [sp, #32]
 8006b84:	b1b3      	cbz	r3, 8006bb4 <_strtod_l+0x604>
 8006b86:	f3cb 520a 	ubfx	r2, fp, #20, #11
 8006b8a:	f1c2 036b 	rsb	r3, r2, #107	@ 0x6b
 8006b8e:	2b00      	cmp	r3, #0
 8006b90:	4659      	mov	r1, fp
 8006b92:	dd0f      	ble.n	8006bb4 <_strtod_l+0x604>
 8006b94:	2b1f      	cmp	r3, #31
 8006b96:	dd56      	ble.n	8006c46 <_strtod_l+0x696>
 8006b98:	2b34      	cmp	r3, #52	@ 0x34
 8006b9a:	bfde      	ittt	le
 8006b9c:	f04f 33ff 	movle.w	r3, #4294967295
 8006ba0:	f1c2 024b 	rsble	r2, r2, #75	@ 0x4b
 8006ba4:	4093      	lslle	r3, r2
 8006ba6:	f04f 0a00 	mov.w	sl, #0
 8006baa:	bfcc      	ite	gt
 8006bac:	f04f 7b5c 	movgt.w	fp, #57671680	@ 0x3700000
 8006bb0:	ea03 0b01 	andle.w	fp, r3, r1
 8006bb4:	2200      	movs	r2, #0
 8006bb6:	2300      	movs	r3, #0
 8006bb8:	4650      	mov	r0, sl
 8006bba:	4659      	mov	r1, fp
 8006bbc:	f7f9 ffac 	bl	8000b18 <__aeabi_dcmpeq>
 8006bc0:	2800      	cmp	r0, #0
 8006bc2:	d1a7      	bne.n	8006b14 <_strtod_l+0x564>
 8006bc4:	9b0b      	ldr	r3, [sp, #44]	@ 0x2c
 8006bc6:	9300      	str	r3, [sp, #0]
 8006bc8:	990c      	ldr	r1, [sp, #48]	@ 0x30
 8006bca:	9805      	ldr	r0, [sp, #20]
 8006bcc:	462b      	mov	r3, r5
 8006bce:	464a      	mov	r2, r9
 8006bd0:	f7ff f8ce 	bl	8005d70 <__s2b>
 8006bd4:	900b      	str	r0, [sp, #44]	@ 0x2c
 8006bd6:	2800      	cmp	r0, #0
 8006bd8:	f43f af09 	beq.w	80069ee <_strtod_l+0x43e>
 8006bdc:	9a09      	ldr	r2, [sp, #36]	@ 0x24
 8006bde:	9b0a      	ldr	r3, [sp, #40]	@ 0x28
 8006be0:	2a00      	cmp	r2, #0
 8006be2:	eba3 0308 	sub.w	r3, r3, r8
 8006be6:	bfa8      	it	ge
 8006be8:	2300      	movge	r3, #0
 8006bea:	9312      	str	r3, [sp, #72]	@ 0x48
 8006bec:	2400      	movs	r4, #0
 8006bee:	ea22 73e2 	bic.w	r3, r2, r2, asr #31
 8006bf2:	9316      	str	r3, [sp, #88]	@ 0x58
 8006bf4:	46a0      	mov	r8, r4
 8006bf6:	9b0b      	ldr	r3, [sp, #44]	@ 0x2c
 8006bf8:	9805      	ldr	r0, [sp, #20]
 8006bfa:	6859      	ldr	r1, [r3, #4]
 8006bfc:	f7ff f810 	bl	8005c20 <_Balloc>
 8006c00:	4681      	mov	r9, r0
 8006c02:	2800      	cmp	r0, #0
 8006c04:	f43f aef7 	beq.w	80069f6 <_strtod_l+0x446>
 8006c08:	9b0b      	ldr	r3, [sp, #44]	@ 0x2c
 8006c0a:	691a      	ldr	r2, [r3, #16]
 8006c0c:	3202      	adds	r2, #2
 8006c0e:	f103 010c 	add.w	r1, r3, #12
 8006c12:	0092      	lsls	r2, r2, #2
 8006c14:	300c      	adds	r0, #12
 8006c16:	f000 fd71 	bl	80076fc <memcpy>
 8006c1a:	ec4b ab10 	vmov	d0, sl, fp
 8006c1e:	9805      	ldr	r0, [sp, #20]
 8006c20:	aa1c      	add	r2, sp, #112	@ 0x70
 8006c22:	a91b      	add	r1, sp, #108	@ 0x6c
 8006c24:	e9cd ab0c 	strd	sl, fp, [sp, #48]	@ 0x30
 8006c28:	f7ff fbd6 	bl	80063d8 <__d2b>
 8006c2c:	901a      	str	r0, [sp, #104]	@ 0x68
 8006c2e:	2800      	cmp	r0, #0
 8006c30:	f43f aee1 	beq.w	80069f6 <_strtod_l+0x446>
 8006c34:	9805      	ldr	r0, [sp, #20]
 8006c36:	2101      	movs	r1, #1
 8006c38:	f7ff f930 	bl	8005e9c <__i2b>
 8006c3c:	4680      	mov	r8, r0
 8006c3e:	b948      	cbnz	r0, 8006c54 <_strtod_l+0x6a4>
 8006c40:	f04f 0800 	mov.w	r8, #0
 8006c44:	e6d7      	b.n	80069f6 <_strtod_l+0x446>
 8006c46:	f04f 32ff 	mov.w	r2, #4294967295
 8006c4a:	fa02 f303 	lsl.w	r3, r2, r3
 8006c4e:	ea03 0a0a 	and.w	sl, r3, sl
 8006c52:	e7af      	b.n	8006bb4 <_strtod_l+0x604>
 8006c54:	9d1b      	ldr	r5, [sp, #108]	@ 0x6c
 8006c56:	9a1c      	ldr	r2, [sp, #112]	@ 0x70
 8006c58:	2d00      	cmp	r5, #0
 8006c5a:	bfab      	itete	ge
 8006c5c:	9b12      	ldrge	r3, [sp, #72]	@ 0x48
 8006c5e:	9b16      	ldrlt	r3, [sp, #88]	@ 0x58
 8006c60:	9e16      	ldrge	r6, [sp, #88]	@ 0x58
 8006c62:	9f12      	ldrlt	r7, [sp, #72]	@ 0x48
 8006c64:	bfac      	ite	ge
 8006c66:	18ef      	addge	r7, r5, r3
 8006c68:	1b5e      	sublt	r6, r3, r5
 8006c6a:	9b08      	ldr	r3, [sp, #32]
 8006c6c:	1aed      	subs	r5, r5, r3
 8006c6e:	4415      	add	r5, r2
 8006c70:	4b65      	ldr	r3, [pc, #404]	@ (8006e08 <_strtod_l+0x858>)
 8006c72:	3d01      	subs	r5, #1
 8006c74:	429d      	cmp	r5, r3
 8006c76:	f1c2 0236 	rsb	r2, r2, #54	@ 0x36
 8006c7a:	da50      	bge.n	8006d1e <_strtod_l+0x76e>
 8006c7c:	1b5b      	subs	r3, r3, r5
 8006c7e:	2b1f      	cmp	r3, #31
 8006c80:	eba2 0203 	sub.w	r2, r2, r3
 8006c84:	f04f 0101 	mov.w	r1, #1
 8006c88:	dc3d      	bgt.n	8006d06 <_strtod_l+0x756>
 8006c8a:	fa01 f303 	lsl.w	r3, r1, r3
 8006c8e:	9313      	str	r3, [sp, #76]	@ 0x4c
 8006c90:	2300      	movs	r3, #0
 8006c92:	9310      	str	r3, [sp, #64]	@ 0x40
 8006c94:	18bd      	adds	r5, r7, r2
 8006c96:	9b08      	ldr	r3, [sp, #32]
 8006c98:	42af      	cmp	r7, r5
 8006c9a:	4416      	add	r6, r2
 8006c9c:	441e      	add	r6, r3
 8006c9e:	463b      	mov	r3, r7
 8006ca0:	bfa8      	it	ge
 8006ca2:	462b      	movge	r3, r5
 8006ca4:	42b3      	cmp	r3, r6
 8006ca6:	bfa8      	it	ge
 8006ca8:	4633      	movge	r3, r6
 8006caa:	2b00      	cmp	r3, #0
 8006cac:	bfc2      	ittt	gt
 8006cae:	1aed      	subgt	r5, r5, r3
 8006cb0:	1af6      	subgt	r6, r6, r3
 8006cb2:	1aff      	subgt	r7, r7, r3
 8006cb4:	9b12      	ldr	r3, [sp, #72]	@ 0x48
 8006cb6:	2b00      	cmp	r3, #0
 8006cb8:	dd16      	ble.n	8006ce8 <_strtod_l+0x738>
 8006cba:	4641      	mov	r1, r8
 8006cbc:	9805      	ldr	r0, [sp, #20]
 8006cbe:	461a      	mov	r2, r3
 8006cc0:	f7ff f9a4 	bl	800600c <__pow5mult>
 8006cc4:	4680      	mov	r8, r0
 8006cc6:	2800      	cmp	r0, #0
 8006cc8:	d0ba      	beq.n	8006c40 <_strtod_l+0x690>
 8006cca:	4601      	mov	r1, r0
 8006ccc:	9a1a      	ldr	r2, [sp, #104]	@ 0x68
 8006cce:	9805      	ldr	r0, [sp, #20]
 8006cd0:	f7ff f8fa 	bl	8005ec8 <__multiply>
 8006cd4:	900a      	str	r0, [sp, #40]	@ 0x28
 8006cd6:	2800      	cmp	r0, #0
 8006cd8:	f43f ae8d 	beq.w	80069f6 <_strtod_l+0x446>
 8006cdc:	991a      	ldr	r1, [sp, #104]	@ 0x68
 8006cde:	9805      	ldr	r0, [sp, #20]
 8006ce0:	f7fe ffde 	bl	8005ca0 <_Bfree>
 8006ce4:	9b0a      	ldr	r3, [sp, #40]	@ 0x28
 8006ce6:	931a      	str	r3, [sp, #104]	@ 0x68
 8006ce8:	2d00      	cmp	r5, #0
 8006cea:	dc1d      	bgt.n	8006d28 <_strtod_l+0x778>
 8006cec:	9b09      	ldr	r3, [sp, #36]	@ 0x24
 8006cee:	2b00      	cmp	r3, #0
 8006cf0:	dd23      	ble.n	8006d3a <_strtod_l+0x78a>
 8006cf2:	4649      	mov	r1, r9
 8006cf4:	9a16      	ldr	r2, [sp, #88]	@ 0x58
 8006cf6:	9805      	ldr	r0, [sp, #20]
 8006cf8:	f7ff f988 	bl	800600c <__pow5mult>
 8006cfc:	4681      	mov	r9, r0
 8006cfe:	b9e0      	cbnz	r0, 8006d3a <_strtod_l+0x78a>
 8006d00:	f04f 0900 	mov.w	r9, #0
 8006d04:	e677      	b.n	80069f6 <_strtod_l+0x446>
 8006d06:	f1c5 457f 	rsb	r5, r5, #4278190080	@ 0xff000000
 8006d0a:	f505 057f 	add.w	r5, r5, #16711680	@ 0xff0000
 8006d0e:	f505 457b 	add.w	r5, r5, #64256	@ 0xfb00
 8006d12:	35e2      	adds	r5, #226	@ 0xe2
 8006d14:	fa01 f305 	lsl.w	r3, r1, r5
 8006d18:	9310      	str	r3, [sp, #64]	@ 0x40
 8006d1a:	9113      	str	r1, [sp, #76]	@ 0x4c
 8006d1c:	e7ba      	b.n	8006c94 <_strtod_l+0x6e4>
 8006d1e:	2300      	movs	r3, #0
 8006d20:	9310      	str	r3, [sp, #64]	@ 0x40
 8006d22:	2301      	movs	r3, #1
 8006d24:	9313      	str	r3, [sp, #76]	@ 0x4c
 8006d26:	e7b5      	b.n	8006c94 <_strtod_l+0x6e4>
 8006d28:	991a      	ldr	r1, [sp, #104]	@ 0x68
 8006d2a:	9805      	ldr	r0, [sp, #20]
 8006d2c:	462a      	mov	r2, r5
 8006d2e:	f7ff f9c7 	bl	80060c0 <__lshift>
 8006d32:	901a      	str	r0, [sp, #104]	@ 0x68
 8006d34:	2800      	cmp	r0, #0
 8006d36:	d1d9      	bne.n	8006cec <_strtod_l+0x73c>
 8006d38:	e65d      	b.n	80069f6 <_strtod_l+0x446>
 8006d3a:	2e00      	cmp	r6, #0
 8006d3c:	dd07      	ble.n	8006d4e <_strtod_l+0x79e>
 8006d3e:	4649      	mov	r1, r9
 8006d40:	9805      	ldr	r0, [sp, #20]
 8006d42:	4632      	mov	r2, r6
 8006d44:	f7ff f9bc 	bl	80060c0 <__lshift>
 8006d48:	4681      	mov	r9, r0
 8006d4a:	2800      	cmp	r0, #0
 8006d4c:	d0d8      	beq.n	8006d00 <_strtod_l+0x750>
 8006d4e:	2f00      	cmp	r7, #0
 8006d50:	dd08      	ble.n	8006d64 <_strtod_l+0x7b4>
 8006d52:	4641      	mov	r1, r8
 8006d54:	9805      	ldr	r0, [sp, #20]
 8006d56:	463a      	mov	r2, r7
 8006d58:	f7ff f9b2 	bl	80060c0 <__lshift>
 8006d5c:	4680      	mov	r8, r0
 8006d5e:	2800      	cmp	r0, #0
 8006d60:	f43f ae49 	beq.w	80069f6 <_strtod_l+0x446>
 8006d64:	991a      	ldr	r1, [sp, #104]	@ 0x68
 8006d66:	9805      	ldr	r0, [sp, #20]
 8006d68:	464a      	mov	r2, r9
 8006d6a:	f7ff fa31 	bl	80061d0 <__mdiff>
 8006d6e:	4604      	mov	r4, r0
 8006d70:	2800      	cmp	r0, #0
 8006d72:	f43f ae40 	beq.w	80069f6 <_strtod_l+0x446>
 8006d76:	68c3      	ldr	r3, [r0, #12]
 8006d78:	930f      	str	r3, [sp, #60]	@ 0x3c
 8006d7a:	2300      	movs	r3, #0
 8006d7c:	60c3      	str	r3, [r0, #12]
 8006d7e:	4641      	mov	r1, r8
 8006d80:	f7ff fa0a 	bl	8006198 <__mcmp>
 8006d84:	2800      	cmp	r0, #0
 8006d86:	da45      	bge.n	8006e14 <_strtod_l+0x864>
 8006d88:	9b0f      	ldr	r3, [sp, #60]	@ 0x3c
 8006d8a:	ea53 030a 	orrs.w	r3, r3, sl
 8006d8e:	d16b      	bne.n	8006e68 <_strtod_l+0x8b8>
 8006d90:	f3cb 0313 	ubfx	r3, fp, #0, #20
 8006d94:	2b00      	cmp	r3, #0
 8006d96:	d167      	bne.n	8006e68 <_strtod_l+0x8b8>
 8006d98:	f02b 4300 	bic.w	r3, fp, #2147483648	@ 0x80000000
 8006d9c:	0d1b      	lsrs	r3, r3, #20
 8006d9e:	051b      	lsls	r3, r3, #20
 8006da0:	f1b3 6fd6 	cmp.w	r3, #112197632	@ 0x6b00000
 8006da4:	d960      	bls.n	8006e68 <_strtod_l+0x8b8>
 8006da6:	6963      	ldr	r3, [r4, #20]
 8006da8:	b913      	cbnz	r3, 8006db0 <_strtod_l+0x800>
 8006daa:	6923      	ldr	r3, [r4, #16]
 8006dac:	2b01      	cmp	r3, #1
 8006dae:	dd5b      	ble.n	8006e68 <_strtod_l+0x8b8>
 8006db0:	4621      	mov	r1, r4
 8006db2:	2201      	movs	r2, #1
 8006db4:	9805      	ldr	r0, [sp, #20]
 8006db6:	f7ff f983 	bl	80060c0 <__lshift>
 8006dba:	4641      	mov	r1, r8
 8006dbc:	4604      	mov	r4, r0
 8006dbe:	f7ff f9eb 	bl	8006198 <__mcmp>
 8006dc2:	2800      	cmp	r0, #0
 8006dc4:	dd50      	ble.n	8006e68 <_strtod_l+0x8b8>
 8006dc6:	f02b 4300 	bic.w	r3, fp, #2147483648	@ 0x80000000
 8006dca:	9a08      	ldr	r2, [sp, #32]
 8006dcc:	0d1b      	lsrs	r3, r3, #20
 8006dce:	051b      	lsls	r3, r3, #20
 8006dd0:	2a00      	cmp	r2, #0
 8006dd2:	d06a      	beq.n	8006eaa <_strtod_l+0x8fa>
 8006dd4:	f1b3 6fd6 	cmp.w	r3, #112197632	@ 0x6b00000
 8006dd8:	d867      	bhi.n	8006eaa <_strtod_l+0x8fa>
 8006dda:	f1b3 7f5c 	cmp.w	r3, #57671680	@ 0x3700000
 8006dde:	f67f ae9d 	bls.w	8006b1c <_strtod_l+0x56c>
 8006de2:	4b0a      	ldr	r3, [pc, #40]	@ (8006e0c <_strtod_l+0x85c>)
 8006de4:	4650      	mov	r0, sl
 8006de6:	4659      	mov	r1, fp
 8006de8:	2200      	movs	r2, #0
 8006dea:	f7f9 fc2d 	bl	8000648 <__aeabi_dmul>
 8006dee:	4b08      	ldr	r3, [pc, #32]	@ (8006e10 <_strtod_l+0x860>)
 8006df0:	400b      	ands	r3, r1
 8006df2:	4682      	mov	sl, r0
 8006df4:	468b      	mov	fp, r1
 8006df6:	2b00      	cmp	r3, #0
 8006df8:	f47f ae08 	bne.w	8006a0c <_strtod_l+0x45c>
 8006dfc:	9a05      	ldr	r2, [sp, #20]
 8006dfe:	2322      	movs	r3, #34	@ 0x22
 8006e00:	6013      	str	r3, [r2, #0]
 8006e02:	e603      	b.n	8006a0c <_strtod_l+0x45c>
 8006e04:	08008770 	.word	0x08008770
 8006e08:	fffffc02 	.word	0xfffffc02
 8006e0c:	39500000 	.word	0x39500000
 8006e10:	7ff00000 	.word	0x7ff00000
 8006e14:	f8cd b028 	str.w	fp, [sp, #40]	@ 0x28
 8006e18:	d165      	bne.n	8006ee6 <_strtod_l+0x936>
 8006e1a:	9a0f      	ldr	r2, [sp, #60]	@ 0x3c
 8006e1c:	f3cb 0313 	ubfx	r3, fp, #0, #20
 8006e20:	b35a      	cbz	r2, 8006e7a <_strtod_l+0x8ca>
 8006e22:	4a9f      	ldr	r2, [pc, #636]	@ (80070a0 <_strtod_l+0xaf0>)
 8006e24:	4293      	cmp	r3, r2
 8006e26:	d12b      	bne.n	8006e80 <_strtod_l+0x8d0>
 8006e28:	9b08      	ldr	r3, [sp, #32]
 8006e2a:	4651      	mov	r1, sl
 8006e2c:	b303      	cbz	r3, 8006e70 <_strtod_l+0x8c0>
 8006e2e:	4b9d      	ldr	r3, [pc, #628]	@ (80070a4 <_strtod_l+0xaf4>)
 8006e30:	465a      	mov	r2, fp
 8006e32:	4013      	ands	r3, r2
 8006e34:	f1b3 6fd4 	cmp.w	r3, #111149056	@ 0x6a00000
 8006e38:	f04f 32ff 	mov.w	r2, #4294967295
 8006e3c:	d81b      	bhi.n	8006e76 <_strtod_l+0x8c6>
 8006e3e:	0d1b      	lsrs	r3, r3, #20
 8006e40:	f1c3 036b 	rsb	r3, r3, #107	@ 0x6b
 8006e44:	fa02 f303 	lsl.w	r3, r2, r3
 8006e48:	4299      	cmp	r1, r3
 8006e4a:	d119      	bne.n	8006e80 <_strtod_l+0x8d0>
 8006e4c:	4b96      	ldr	r3, [pc, #600]	@ (80070a8 <_strtod_l+0xaf8>)
 8006e4e:	9a0a      	ldr	r2, [sp, #40]	@ 0x28
 8006e50:	429a      	cmp	r2, r3
 8006e52:	d102      	bne.n	8006e5a <_strtod_l+0x8aa>
 8006e54:	3101      	adds	r1, #1
 8006e56:	f43f adce 	beq.w	80069f6 <_strtod_l+0x446>
 8006e5a:	4b92      	ldr	r3, [pc, #584]	@ (80070a4 <_strtod_l+0xaf4>)
 8006e5c:	9a0a      	ldr	r2, [sp, #40]	@ 0x28
 8006e5e:	401a      	ands	r2, r3
 8006e60:	f502 1b80 	add.w	fp, r2, #1048576	@ 0x100000
 8006e64:	f04f 0a00 	mov.w	sl, #0
 8006e68:	9b08      	ldr	r3, [sp, #32]
 8006e6a:	2b00      	cmp	r3, #0
 8006e6c:	d1b9      	bne.n	8006de2 <_strtod_l+0x832>
 8006e6e:	e5cd      	b.n	8006a0c <_strtod_l+0x45c>
 8006e70:	f04f 33ff 	mov.w	r3, #4294967295
 8006e74:	e7e8      	b.n	8006e48 <_strtod_l+0x898>
 8006e76:	4613      	mov	r3, r2
 8006e78:	e7e6      	b.n	8006e48 <_strtod_l+0x898>
 8006e7a:	ea53 030a 	orrs.w	r3, r3, sl
 8006e7e:	d0a2      	beq.n	8006dc6 <_strtod_l+0x816>
 8006e80:	9b10      	ldr	r3, [sp, #64]	@ 0x40
 8006e82:	b1db      	cbz	r3, 8006ebc <_strtod_l+0x90c>
 8006e84:	9a0a      	ldr	r2, [sp, #40]	@ 0x28
 8006e86:	4213      	tst	r3, r2
 8006e88:	d0ee      	beq.n	8006e68 <_strtod_l+0x8b8>
 8006e8a:	9b0f      	ldr	r3, [sp, #60]	@ 0x3c
 8006e8c:	9a08      	ldr	r2, [sp, #32]
 8006e8e:	4650      	mov	r0, sl
 8006e90:	4659      	mov	r1, fp
 8006e92:	b1bb      	cbz	r3, 8006ec4 <_strtod_l+0x914>
 8006e94:	f7ff fb6e 	bl	8006574 <sulp>
 8006e98:	e9dd 010c 	ldrd	r0, r1, [sp, #48]	@ 0x30
 8006e9c:	ec53 2b10 	vmov	r2, r3, d0
 8006ea0:	f7f9 fa1c 	bl	80002dc <__adddf3>
 8006ea4:	4682      	mov	sl, r0
 8006ea6:	468b      	mov	fp, r1
 8006ea8:	e7de      	b.n	8006e68 <_strtod_l+0x8b8>
 8006eaa:	f5a3 1380 	sub.w	r3, r3, #1048576	@ 0x100000
 8006eae:	ea6f 5b13 	mvn.w	fp, r3, lsr #20
 8006eb2:	ea6f 5b0b 	mvn.w	fp, fp, lsl #20
 8006eb6:	f04f 3aff 	mov.w	sl, #4294967295
 8006eba:	e7d5      	b.n	8006e68 <_strtod_l+0x8b8>
 8006ebc:	9b13      	ldr	r3, [sp, #76]	@ 0x4c
 8006ebe:	ea13 0f0a 	tst.w	r3, sl
 8006ec2:	e7e1      	b.n	8006e88 <_strtod_l+0x8d8>
 8006ec4:	f7ff fb56 	bl	8006574 <sulp>
 8006ec8:	e9dd 010c 	ldrd	r0, r1, [sp, #48]	@ 0x30
 8006ecc:	ec53 2b10 	vmov	r2, r3, d0
 8006ed0:	f7f9 fa02 	bl	80002d8 <__aeabi_dsub>
 8006ed4:	2200      	movs	r2, #0
 8006ed6:	2300      	movs	r3, #0
 8006ed8:	4682      	mov	sl, r0
 8006eda:	468b      	mov	fp, r1
 8006edc:	f7f9 fe1c 	bl	8000b18 <__aeabi_dcmpeq>
 8006ee0:	2800      	cmp	r0, #0
 8006ee2:	d0c1      	beq.n	8006e68 <_strtod_l+0x8b8>
 8006ee4:	e61a      	b.n	8006b1c <_strtod_l+0x56c>
 8006ee6:	4641      	mov	r1, r8
 8006ee8:	4620      	mov	r0, r4
 8006eea:	f7ff facd 	bl	8006488 <__ratio>
 8006eee:	ec57 6b10 	vmov	r6, r7, d0
 8006ef2:	2200      	movs	r2, #0
 8006ef4:	f04f 4380 	mov.w	r3, #1073741824	@ 0x40000000
 8006ef8:	4630      	mov	r0, r6
 8006efa:	4639      	mov	r1, r7
 8006efc:	f7f9 fe20 	bl	8000b40 <__aeabi_dcmple>
 8006f00:	2800      	cmp	r0, #0
 8006f02:	d06f      	beq.n	8006fe4 <_strtod_l+0xa34>
 8006f04:	9b0f      	ldr	r3, [sp, #60]	@ 0x3c
 8006f06:	2b00      	cmp	r3, #0
 8006f08:	d17a      	bne.n	8007000 <_strtod_l+0xa50>
 8006f0a:	f1ba 0f00 	cmp.w	sl, #0
 8006f0e:	d158      	bne.n	8006fc2 <_strtod_l+0xa12>
 8006f10:	9b0a      	ldr	r3, [sp, #40]	@ 0x28
 8006f12:	f3c3 0313 	ubfx	r3, r3, #0, #20
 8006f16:	2b00      	cmp	r3, #0
 8006f18:	d15a      	bne.n	8006fd0 <_strtod_l+0xa20>
 8006f1a:	4b64      	ldr	r3, [pc, #400]	@ (80070ac <_strtod_l+0xafc>)
 8006f1c:	2200      	movs	r2, #0
 8006f1e:	4630      	mov	r0, r6
 8006f20:	4639      	mov	r1, r7
 8006f22:	f7f9 fe03 	bl	8000b2c <__aeabi_dcmplt>
 8006f26:	2800      	cmp	r0, #0
 8006f28:	d159      	bne.n	8006fde <_strtod_l+0xa2e>
 8006f2a:	4630      	mov	r0, r6
 8006f2c:	4639      	mov	r1, r7
 8006f2e:	4b60      	ldr	r3, [pc, #384]	@ (80070b0 <_strtod_l+0xb00>)
 8006f30:	2200      	movs	r2, #0
 8006f32:	f7f9 fb89 	bl	8000648 <__aeabi_dmul>
 8006f36:	4606      	mov	r6, r0
 8006f38:	460f      	mov	r7, r1
 8006f3a:	f107 4300 	add.w	r3, r7, #2147483648	@ 0x80000000
 8006f3e:	9606      	str	r6, [sp, #24]
 8006f40:	9307      	str	r3, [sp, #28]
 8006f42:	e9dd 2306 	ldrd	r2, r3, [sp, #24]
 8006f46:	4d57      	ldr	r5, [pc, #348]	@ (80070a4 <_strtod_l+0xaf4>)
 8006f48:	e9cd 2310 	strd	r2, r3, [sp, #64]	@ 0x40
 8006f4c:	9b0a      	ldr	r3, [sp, #40]	@ 0x28
 8006f4e:	401d      	ands	r5, r3
 8006f50:	4b58      	ldr	r3, [pc, #352]	@ (80070b4 <_strtod_l+0xb04>)
 8006f52:	429d      	cmp	r5, r3
 8006f54:	f040 80b2 	bne.w	80070bc <_strtod_l+0xb0c>
 8006f58:	9b0a      	ldr	r3, [sp, #40]	@ 0x28
 8006f5a:	f1a3 7b54 	sub.w	fp, r3, #55574528	@ 0x3500000
 8006f5e:	ec4b ab10 	vmov	d0, sl, fp
 8006f62:	f7ff f9c9 	bl	80062f8 <__ulp>
 8006f66:	e9dd 2306 	ldrd	r2, r3, [sp, #24]
 8006f6a:	ec51 0b10 	vmov	r0, r1, d0
 8006f6e:	f7f9 fb6b 	bl	8000648 <__aeabi_dmul>
 8006f72:	4652      	mov	r2, sl
 8006f74:	465b      	mov	r3, fp
 8006f76:	f7f9 f9b1 	bl	80002dc <__adddf3>
 8006f7a:	460b      	mov	r3, r1
 8006f7c:	4949      	ldr	r1, [pc, #292]	@ (80070a4 <_strtod_l+0xaf4>)
 8006f7e:	4a4e      	ldr	r2, [pc, #312]	@ (80070b8 <_strtod_l+0xb08>)
 8006f80:	4019      	ands	r1, r3
 8006f82:	4291      	cmp	r1, r2
 8006f84:	4682      	mov	sl, r0
 8006f86:	d942      	bls.n	800700e <_strtod_l+0xa5e>
 8006f88:	9a0d      	ldr	r2, [sp, #52]	@ 0x34
 8006f8a:	4b47      	ldr	r3, [pc, #284]	@ (80070a8 <_strtod_l+0xaf8>)
 8006f8c:	429a      	cmp	r2, r3
 8006f8e:	d103      	bne.n	8006f98 <_strtod_l+0x9e8>
 8006f90:	9b0c      	ldr	r3, [sp, #48]	@ 0x30
 8006f92:	3301      	adds	r3, #1
 8006f94:	f43f ad2f 	beq.w	80069f6 <_strtod_l+0x446>
 8006f98:	f8df b10c 	ldr.w	fp, [pc, #268]	@ 80070a8 <_strtod_l+0xaf8>
 8006f9c:	f04f 3aff 	mov.w	sl, #4294967295
 8006fa0:	991a      	ldr	r1, [sp, #104]	@ 0x68
 8006fa2:	9805      	ldr	r0, [sp, #20]
 8006fa4:	f7fe fe7c 	bl	8005ca0 <_Bfree>
 8006fa8:	9805      	ldr	r0, [sp, #20]
 8006faa:	4649      	mov	r1, r9
 8006fac:	f7fe fe78 	bl	8005ca0 <_Bfree>
 8006fb0:	9805      	ldr	r0, [sp, #20]
 8006fb2:	4641      	mov	r1, r8
 8006fb4:	f7fe fe74 	bl	8005ca0 <_Bfree>
 8006fb8:	9805      	ldr	r0, [sp, #20]
 8006fba:	4621      	mov	r1, r4
 8006fbc:	f7fe fe70 	bl	8005ca0 <_Bfree>
 8006fc0:	e619      	b.n	8006bf6 <_strtod_l+0x646>
 8006fc2:	f1ba 0f01 	cmp.w	sl, #1
 8006fc6:	d103      	bne.n	8006fd0 <_strtod_l+0xa20>
 8006fc8:	9b0a      	ldr	r3, [sp, #40]	@ 0x28
 8006fca:	2b00      	cmp	r3, #0
 8006fcc:	f43f ada6 	beq.w	8006b1c <_strtod_l+0x56c>
 8006fd0:	ed9f 7b2b 	vldr	d7, [pc, #172]	@ 8007080 <_strtod_l+0xad0>
 8006fd4:	4f35      	ldr	r7, [pc, #212]	@ (80070ac <_strtod_l+0xafc>)
 8006fd6:	ed8d 7b06 	vstr	d7, [sp, #24]
 8006fda:	2600      	movs	r6, #0
 8006fdc:	e7b1      	b.n	8006f42 <_strtod_l+0x992>
 8006fde:	4f34      	ldr	r7, [pc, #208]	@ (80070b0 <_strtod_l+0xb00>)
 8006fe0:	2600      	movs	r6, #0
 8006fe2:	e7aa      	b.n	8006f3a <_strtod_l+0x98a>
 8006fe4:	4b32      	ldr	r3, [pc, #200]	@ (80070b0 <_strtod_l+0xb00>)
 8006fe6:	4630      	mov	r0, r6
 8006fe8:	4639      	mov	r1, r7
 8006fea:	2200      	movs	r2, #0
 8006fec:	f7f9 fb2c 	bl	8000648 <__aeabi_dmul>
 8006ff0:	9b0f      	ldr	r3, [sp, #60]	@ 0x3c
 8006ff2:	4606      	mov	r6, r0
 8006ff4:	460f      	mov	r7, r1
 8006ff6:	2b00      	cmp	r3, #0
 8006ff8:	d09f      	beq.n	8006f3a <_strtod_l+0x98a>
 8006ffa:	e9cd 6706 	strd	r6, r7, [sp, #24]
 8006ffe:	e7a0      	b.n	8006f42 <_strtod_l+0x992>
 8007000:	ed9f 7b21 	vldr	d7, [pc, #132]	@ 8007088 <_strtod_l+0xad8>
 8007004:	ed8d 7b06 	vstr	d7, [sp, #24]
 8007008:	ec57 6b17 	vmov	r6, r7, d7
 800700c:	e799      	b.n	8006f42 <_strtod_l+0x992>
 800700e:	f103 7b54 	add.w	fp, r3, #55574528	@ 0x3500000
 8007012:	9b08      	ldr	r3, [sp, #32]
 8007014:	f8cd b028 	str.w	fp, [sp, #40]	@ 0x28
 8007018:	2b00      	cmp	r3, #0
 800701a:	d1c1      	bne.n	8006fa0 <_strtod_l+0x9f0>
 800701c:	f02b 4300 	bic.w	r3, fp, #2147483648	@ 0x80000000
 8007020:	0d1b      	lsrs	r3, r3, #20
 8007022:	051b      	lsls	r3, r3, #20
 8007024:	429d      	cmp	r5, r3
 8007026:	d1bb      	bne.n	8006fa0 <_strtod_l+0x9f0>
 8007028:	4630      	mov	r0, r6
 800702a:	4639      	mov	r1, r7
 800702c:	f7f9 fe6c 	bl	8000d08 <__aeabi_d2lz>
 8007030:	f7f9 fadc 	bl	80005ec <__aeabi_l2d>
 8007034:	4602      	mov	r2, r0
 8007036:	460b      	mov	r3, r1
 8007038:	4630      	mov	r0, r6
 800703a:	4639      	mov	r1, r7
 800703c:	f7f9 f94c 	bl	80002d8 <__aeabi_dsub>
 8007040:	460b      	mov	r3, r1
 8007042:	4602      	mov	r2, r0
 8007044:	e9cd 230c 	strd	r2, r3, [sp, #48]	@ 0x30
 8007048:	f3cb 0613 	ubfx	r6, fp, #0, #20
 800704c:	9b0f      	ldr	r3, [sp, #60]	@ 0x3c
 800704e:	ea46 060a 	orr.w	r6, r6, sl
 8007052:	431e      	orrs	r6, r3
 8007054:	d06f      	beq.n	8007136 <_strtod_l+0xb86>
 8007056:	a30e      	add	r3, pc, #56	@ (adr r3, 8007090 <_strtod_l+0xae0>)
 8007058:	e9d3 2300 	ldrd	r2, r3, [r3]
 800705c:	f7f9 fd66 	bl	8000b2c <__aeabi_dcmplt>
 8007060:	2800      	cmp	r0, #0
 8007062:	f47f acd3 	bne.w	8006a0c <_strtod_l+0x45c>
 8007066:	a30c      	add	r3, pc, #48	@ (adr r3, 8007098 <_strtod_l+0xae8>)
 8007068:	e9d3 2300 	ldrd	r2, r3, [r3]
 800706c:	e9dd 010c 	ldrd	r0, r1, [sp, #48]	@ 0x30
 8007070:	f7f9 fd7a 	bl	8000b68 <__aeabi_dcmpgt>
 8007074:	2800      	cmp	r0, #0
 8007076:	d093      	beq.n	8006fa0 <_strtod_l+0x9f0>
 8007078:	e4c8      	b.n	8006a0c <_strtod_l+0x45c>
 800707a:	bf00      	nop
 800707c:	f3af 8000 	nop.w
 8007080:	00000000 	.word	0x00000000
 8007084:	bff00000 	.word	0xbff00000
 8007088:	00000000 	.word	0x00000000
 800708c:	3ff00000 	.word	0x3ff00000
 8007090:	94a03595 	.word	0x94a03595
 8007094:	3fdfffff 	.word	0x3fdfffff
 8007098:	35afe535 	.word	0x35afe535
 800709c:	3fe00000 	.word	0x3fe00000
 80070a0:	000fffff 	.word	0x000fffff
 80070a4:	7ff00000 	.word	0x7ff00000
 80070a8:	7fefffff 	.word	0x7fefffff
 80070ac:	3ff00000 	.word	0x3ff00000
 80070b0:	3fe00000 	.word	0x3fe00000
 80070b4:	7fe00000 	.word	0x7fe00000
 80070b8:	7c9fffff 	.word	0x7c9fffff
 80070bc:	9b08      	ldr	r3, [sp, #32]
 80070be:	b323      	cbz	r3, 800710a <_strtod_l+0xb5a>
 80070c0:	f1b5 6fd4 	cmp.w	r5, #111149056	@ 0x6a00000
 80070c4:	d821      	bhi.n	800710a <_strtod_l+0xb5a>
 80070c6:	a328      	add	r3, pc, #160	@ (adr r3, 8007168 <_strtod_l+0xbb8>)
 80070c8:	e9d3 2300 	ldrd	r2, r3, [r3]
 80070cc:	4630      	mov	r0, r6
 80070ce:	4639      	mov	r1, r7
 80070d0:	f7f9 fd36 	bl	8000b40 <__aeabi_dcmple>
 80070d4:	b1a0      	cbz	r0, 8007100 <_strtod_l+0xb50>
 80070d6:	4639      	mov	r1, r7
 80070d8:	4630      	mov	r0, r6
 80070da:	f7f9 fd8d 	bl	8000bf8 <__aeabi_d2uiz>
 80070de:	2801      	cmp	r0, #1
 80070e0:	bf38      	it	cc
 80070e2:	2001      	movcc	r0, #1
 80070e4:	f7f9 fa36 	bl	8000554 <__aeabi_ui2d>
 80070e8:	9b0f      	ldr	r3, [sp, #60]	@ 0x3c
 80070ea:	4606      	mov	r6, r0
 80070ec:	460f      	mov	r7, r1
 80070ee:	b9fb      	cbnz	r3, 8007130 <_strtod_l+0xb80>
 80070f0:	f101 4300 	add.w	r3, r1, #2147483648	@ 0x80000000
 80070f4:	9014      	str	r0, [sp, #80]	@ 0x50
 80070f6:	9315      	str	r3, [sp, #84]	@ 0x54
 80070f8:	e9dd 2314 	ldrd	r2, r3, [sp, #80]	@ 0x50
 80070fc:	e9cd 2310 	strd	r2, r3, [sp, #64]	@ 0x40
 8007100:	9b11      	ldr	r3, [sp, #68]	@ 0x44
 8007102:	f103 63d6 	add.w	r3, r3, #112197632	@ 0x6b00000
 8007106:	1b5b      	subs	r3, r3, r5
 8007108:	9311      	str	r3, [sp, #68]	@ 0x44
 800710a:	ed9d 0b0c 	vldr	d0, [sp, #48]	@ 0x30
 800710e:	e9dd ab10 	ldrd	sl, fp, [sp, #64]	@ 0x40
 8007112:	f7ff f8f1 	bl	80062f8 <__ulp>
 8007116:	4650      	mov	r0, sl
 8007118:	ec53 2b10 	vmov	r2, r3, d0
 800711c:	4659      	mov	r1, fp
 800711e:	f7f9 fa93 	bl	8000648 <__aeabi_dmul>
 8007122:	e9dd 230c 	ldrd	r2, r3, [sp, #48]	@ 0x30
 8007126:	f7f9 f8d9 	bl	80002dc <__adddf3>
 800712a:	4682      	mov	sl, r0
 800712c:	468b      	mov	fp, r1
 800712e:	e770      	b.n	8007012 <_strtod_l+0xa62>
 8007130:	e9cd 6714 	strd	r6, r7, [sp, #80]	@ 0x50
 8007134:	e7e0      	b.n	80070f8 <_strtod_l+0xb48>
 8007136:	a30e      	add	r3, pc, #56	@ (adr r3, 8007170 <_strtod_l+0xbc0>)
 8007138:	e9d3 2300 	ldrd	r2, r3, [r3]
 800713c:	f7f9 fcf6 	bl	8000b2c <__aeabi_dcmplt>
 8007140:	e798      	b.n	8007074 <_strtod_l+0xac4>
 8007142:	2300      	movs	r3, #0
 8007144:	930e      	str	r3, [sp, #56]	@ 0x38
 8007146:	9a17      	ldr	r2, [sp, #92]	@ 0x5c
 8007148:	9b19      	ldr	r3, [sp, #100]	@ 0x64
 800714a:	6013      	str	r3, [r2, #0]
 800714c:	f7ff ba6d 	b.w	800662a <_strtod_l+0x7a>
 8007150:	2a65      	cmp	r2, #101	@ 0x65
 8007152:	f43f ab68 	beq.w	8006826 <_strtod_l+0x276>
 8007156:	2a45      	cmp	r2, #69	@ 0x45
 8007158:	f43f ab65 	beq.w	8006826 <_strtod_l+0x276>
 800715c:	2301      	movs	r3, #1
 800715e:	f7ff bba0 	b.w	80068a2 <_strtod_l+0x2f2>
 8007162:	bf00      	nop
 8007164:	f3af 8000 	nop.w
 8007168:	ffc00000 	.word	0xffc00000
 800716c:	41dfffff 	.word	0x41dfffff
 8007170:	94a03595 	.word	0x94a03595
 8007174:	3fcfffff 	.word	0x3fcfffff

08007178 <_strtod_r>:
 8007178:	4b01      	ldr	r3, [pc, #4]	@ (8007180 <_strtod_r+0x8>)
 800717a:	f7ff ba19 	b.w	80065b0 <_strtod_l>
 800717e:	bf00      	nop
 8007180:	20000068 	.word	0x20000068

08007184 <_strtol_l.isra.0>:
 8007184:	2b24      	cmp	r3, #36	@ 0x24
 8007186:	e92d 47f0 	stmdb	sp!, {r4, r5, r6, r7, r8, r9, sl, lr}
 800718a:	4686      	mov	lr, r0
 800718c:	4690      	mov	r8, r2
 800718e:	d801      	bhi.n	8007194 <_strtol_l.isra.0+0x10>
 8007190:	2b01      	cmp	r3, #1
 8007192:	d106      	bne.n	80071a2 <_strtol_l.isra.0+0x1e>
 8007194:	f7fd fdb8 	bl	8004d08 <__errno>
 8007198:	2316      	movs	r3, #22
 800719a:	6003      	str	r3, [r0, #0]
 800719c:	2000      	movs	r0, #0
 800719e:	e8bd 87f0 	ldmia.w	sp!, {r4, r5, r6, r7, r8, r9, sl, pc}
 80071a2:	4834      	ldr	r0, [pc, #208]	@ (8007274 <_strtol_l.isra.0+0xf0>)
 80071a4:	460d      	mov	r5, r1
 80071a6:	462a      	mov	r2, r5
 80071a8:	f815 4b01 	ldrb.w	r4, [r5], #1
 80071ac:	5d06      	ldrb	r6, [r0, r4]
 80071ae:	f016 0608 	ands.w	r6, r6, #8
 80071b2:	d1f8      	bne.n	80071a6 <_strtol_l.isra.0+0x22>
 80071b4:	2c2d      	cmp	r4, #45	@ 0x2d
 80071b6:	d110      	bne.n	80071da <_strtol_l.isra.0+0x56>
 80071b8:	782c      	ldrb	r4, [r5, #0]
 80071ba:	2601      	movs	r6, #1
 80071bc:	1c95      	adds	r5, r2, #2
 80071be:	f033 0210 	bics.w	r2, r3, #16
 80071c2:	d115      	bne.n	80071f0 <_strtol_l.isra.0+0x6c>
 80071c4:	2c30      	cmp	r4, #48	@ 0x30
 80071c6:	d10d      	bne.n	80071e4 <_strtol_l.isra.0+0x60>
 80071c8:	782a      	ldrb	r2, [r5, #0]
 80071ca:	f002 02df 	and.w	r2, r2, #223	@ 0xdf
 80071ce:	2a58      	cmp	r2, #88	@ 0x58
 80071d0:	d108      	bne.n	80071e4 <_strtol_l.isra.0+0x60>
 80071d2:	786c      	ldrb	r4, [r5, #1]
 80071d4:	3502      	adds	r5, #2
 80071d6:	2310      	movs	r3, #16
 80071d8:	e00a      	b.n	80071f0 <_strtol_l.isra.0+0x6c>
 80071da:	2c2b      	cmp	r4, #43	@ 0x2b
 80071dc:	bf04      	itt	eq
 80071de:	782c      	ldrbeq	r4, [r5, #0]
 80071e0:	1c95      	addeq	r5, r2, #2
 80071e2:	e7ec      	b.n	80071be <_strtol_l.isra.0+0x3a>
 80071e4:	2b00      	cmp	r3, #0
 80071e6:	d1f6      	bne.n	80071d6 <_strtol_l.isra.0+0x52>
 80071e8:	2c30      	cmp	r4, #48	@ 0x30
 80071ea:	bf14      	ite	ne
 80071ec:	230a      	movne	r3, #10
 80071ee:	2308      	moveq	r3, #8
 80071f0:	f106 4c00 	add.w	ip, r6, #2147483648	@ 0x80000000
 80071f4:	f10c 3cff 	add.w	ip, ip, #4294967295
 80071f8:	2200      	movs	r2, #0
 80071fa:	fbbc f9f3 	udiv	r9, ip, r3
 80071fe:	4610      	mov	r0, r2
 8007200:	fb03 ca19 	mls	sl, r3, r9, ip
 8007204:	f1a4 0730 	sub.w	r7, r4, #48	@ 0x30
 8007208:	2f09      	cmp	r7, #9
 800720a:	d80f      	bhi.n	800722c <_strtol_l.isra.0+0xa8>
 800720c:	463c      	mov	r4, r7
 800720e:	42a3      	cmp	r3, r4
 8007210:	dd1b      	ble.n	800724a <_strtol_l.isra.0+0xc6>
 8007212:	1c57      	adds	r7, r2, #1
 8007214:	d007      	beq.n	8007226 <_strtol_l.isra.0+0xa2>
 8007216:	4581      	cmp	r9, r0
 8007218:	d314      	bcc.n	8007244 <_strtol_l.isra.0+0xc0>
 800721a:	d101      	bne.n	8007220 <_strtol_l.isra.0+0x9c>
 800721c:	45a2      	cmp	sl, r4
 800721e:	db11      	blt.n	8007244 <_strtol_l.isra.0+0xc0>
 8007220:	fb00 4003 	mla	r0, r0, r3, r4
 8007224:	2201      	movs	r2, #1
 8007226:	f815 4b01 	ldrb.w	r4, [r5], #1
 800722a:	e7eb      	b.n	8007204 <_strtol_l.isra.0+0x80>
 800722c:	f1a4 0741 	sub.w	r7, r4, #65	@ 0x41
 8007230:	2f19      	cmp	r7, #25
 8007232:	d801      	bhi.n	8007238 <_strtol_l.isra.0+0xb4>
 8007234:	3c37      	subs	r4, #55	@ 0x37
 8007236:	e7ea      	b.n	800720e <_strtol_l.isra.0+0x8a>
 8007238:	f1a4 0761 	sub.w	r7, r4, #97	@ 0x61
 800723c:	2f19      	cmp	r7, #25
 800723e:	d804      	bhi.n	800724a <_strtol_l.isra.0+0xc6>
 8007240:	3c57      	subs	r4, #87	@ 0x57
 8007242:	e7e4      	b.n	800720e <_strtol_l.isra.0+0x8a>
 8007244:	f04f 32ff 	mov.w	r2, #4294967295
 8007248:	e7ed      	b.n	8007226 <_strtol_l.isra.0+0xa2>
 800724a:	1c53      	adds	r3, r2, #1
 800724c:	d108      	bne.n	8007260 <_strtol_l.isra.0+0xdc>
 800724e:	2322      	movs	r3, #34	@ 0x22
 8007250:	f8ce 3000 	str.w	r3, [lr]
 8007254:	4660      	mov	r0, ip
 8007256:	f1b8 0f00 	cmp.w	r8, #0
 800725a:	d0a0      	beq.n	800719e <_strtol_l.isra.0+0x1a>
 800725c:	1e69      	subs	r1, r5, #1
 800725e:	e006      	b.n	800726e <_strtol_l.isra.0+0xea>
 8007260:	b106      	cbz	r6, 8007264 <_strtol_l.isra.0+0xe0>
 8007262:	4240      	negs	r0, r0
 8007264:	f1b8 0f00 	cmp.w	r8, #0
 8007268:	d099      	beq.n	800719e <_strtol_l.isra.0+0x1a>
 800726a:	2a00      	cmp	r2, #0
 800726c:	d1f6      	bne.n	800725c <_strtol_l.isra.0+0xd8>
 800726e:	f8c8 1000 	str.w	r1, [r8]
 8007272:	e794      	b.n	800719e <_strtol_l.isra.0+0x1a>
 8007274:	08008799 	.word	0x08008799

08007278 <_strtol_r>:
 8007278:	f7ff bf84 	b.w	8007184 <_strtol_l.isra.0>

0800727c <__ssputs_r>:
 800727c:	e92d 47f0 	stmdb	sp!, {r4, r5, r6, r7, r8, r9, sl, lr}
 8007280:	688e      	ldr	r6, [r1, #8]
 8007282:	461f      	mov	r7, r3
 8007284:	42be      	cmp	r6, r7
 8007286:	680b      	ldr	r3, [r1, #0]
 8007288:	4682      	mov	sl, r0
 800728a:	460c      	mov	r4, r1
 800728c:	4690      	mov	r8, r2
 800728e:	d82d      	bhi.n	80072ec <__ssputs_r+0x70>
 8007290:	f9b1 200c 	ldrsh.w	r2, [r1, #12]
 8007294:	f412 6f90 	tst.w	r2, #1152	@ 0x480
 8007298:	d026      	beq.n	80072e8 <__ssputs_r+0x6c>
 800729a:	6965      	ldr	r5, [r4, #20]
 800729c:	6909      	ldr	r1, [r1, #16]
 800729e:	eb05 0545 	add.w	r5, r5, r5, lsl #1
 80072a2:	eba3 0901 	sub.w	r9, r3, r1
 80072a6:	eb05 75d5 	add.w	r5, r5, r5, lsr #31
 80072aa:	1c7b      	adds	r3, r7, #1
 80072ac:	444b      	add	r3, r9
 80072ae:	106d      	asrs	r5, r5, #1
 80072b0:	429d      	cmp	r5, r3
 80072b2:	bf38      	it	cc
 80072b4:	461d      	movcc	r5, r3
 80072b6:	0553      	lsls	r3, r2, #21
 80072b8:	d527      	bpl.n	800730a <__ssputs_r+0x8e>
 80072ba:	4629      	mov	r1, r5
 80072bc:	f7fe fc24 	bl	8005b08 <_malloc_r>
 80072c0:	4606      	mov	r6, r0
 80072c2:	b360      	cbz	r0, 800731e <__ssputs_r+0xa2>
 80072c4:	6921      	ldr	r1, [r4, #16]
 80072c6:	464a      	mov	r2, r9
 80072c8:	f000 fa18 	bl	80076fc <memcpy>
 80072cc:	89a3      	ldrh	r3, [r4, #12]
 80072ce:	f423 6390 	bic.w	r3, r3, #1152	@ 0x480
 80072d2:	f043 0380 	orr.w	r3, r3, #128	@ 0x80
 80072d6:	81a3      	strh	r3, [r4, #12]
 80072d8:	6126      	str	r6, [r4, #16]
 80072da:	6165      	str	r5, [r4, #20]
 80072dc:	444e      	add	r6, r9
 80072de:	eba5 0509 	sub.w	r5, r5, r9
 80072e2:	6026      	str	r6, [r4, #0]
 80072e4:	60a5      	str	r5, [r4, #8]
 80072e6:	463e      	mov	r6, r7
 80072e8:	42be      	cmp	r6, r7
 80072ea:	d900      	bls.n	80072ee <__ssputs_r+0x72>
 80072ec:	463e      	mov	r6, r7
 80072ee:	6820      	ldr	r0, [r4, #0]
 80072f0:	4632      	mov	r2, r6
 80072f2:	4641      	mov	r1, r8
 80072f4:	f000 f9c6 	bl	8007684 <memmove>
 80072f8:	68a3      	ldr	r3, [r4, #8]
 80072fa:	1b9b      	subs	r3, r3, r6
 80072fc:	60a3      	str	r3, [r4, #8]
 80072fe:	6823      	ldr	r3, [r4, #0]
 8007300:	4433      	add	r3, r6
 8007302:	6023      	str	r3, [r4, #0]
 8007304:	2000      	movs	r0, #0
 8007306:	e8bd 87f0 	ldmia.w	sp!, {r4, r5, r6, r7, r8, r9, sl, pc}
 800730a:	462a      	mov	r2, r5
 800730c:	f000 fd89 	bl	8007e22 <_realloc_r>
 8007310:	4606      	mov	r6, r0
 8007312:	2800      	cmp	r0, #0
 8007314:	d1e0      	bne.n	80072d8 <__ssputs_r+0x5c>
 8007316:	6921      	ldr	r1, [r4, #16]
 8007318:	4650      	mov	r0, sl
 800731a:	f7fe fb81 	bl	8005a20 <_free_r>
 800731e:	230c      	movs	r3, #12
 8007320:	f8ca 3000 	str.w	r3, [sl]
 8007324:	89a3      	ldrh	r3, [r4, #12]
 8007326:	f043 0340 	orr.w	r3, r3, #64	@ 0x40
 800732a:	81a3      	strh	r3, [r4, #12]
 800732c:	f04f 30ff 	mov.w	r0, #4294967295
 8007330:	e7e9      	b.n	8007306 <__ssputs_r+0x8a>
	...

08007334 <_svfiprintf_r>:
 8007334:	e92d 4ff0 	stmdb	sp!, {r4, r5, r6, r7, r8, r9, sl, fp, lr}
 8007338:	4698      	mov	r8, r3
 800733a:	898b      	ldrh	r3, [r1, #12]
 800733c:	061b      	lsls	r3, r3, #24
 800733e:	b09d      	sub	sp, #116	@ 0x74
 8007340:	4607      	mov	r7, r0
 8007342:	460d      	mov	r5, r1
 8007344:	4614      	mov	r4, r2
 8007346:	d510      	bpl.n	800736a <_svfiprintf_r+0x36>
 8007348:	690b      	ldr	r3, [r1, #16]
 800734a:	b973      	cbnz	r3, 800736a <_svfiprintf_r+0x36>
 800734c:	2140      	movs	r1, #64	@ 0x40
 800734e:	f7fe fbdb 	bl	8005b08 <_malloc_r>
 8007352:	6028      	str	r0, [r5, #0]
 8007354:	6128      	str	r0, [r5, #16]
 8007356:	b930      	cbnz	r0, 8007366 <_svfiprintf_r+0x32>
 8007358:	230c      	movs	r3, #12
 800735a:	603b      	str	r3, [r7, #0]
 800735c:	f04f 30ff 	mov.w	r0, #4294967295
 8007360:	b01d      	add	sp, #116	@ 0x74
 8007362:	e8bd 8ff0 	ldmia.w	sp!, {r4, r5, r6, r7, r8, r9, sl, fp, pc}
 8007366:	2340      	movs	r3, #64	@ 0x40
 8007368:	616b      	str	r3, [r5, #20]
 800736a:	2300      	movs	r3, #0
 800736c:	9309      	str	r3, [sp, #36]	@ 0x24
 800736e:	2320      	movs	r3, #32
 8007370:	f88d 3029 	strb.w	r3, [sp, #41]	@ 0x29
 8007374:	f8cd 800c 	str.w	r8, [sp, #12]
 8007378:	2330      	movs	r3, #48	@ 0x30
 800737a:	f8df 819c 	ldr.w	r8, [pc, #412]	@ 8007518 <_svfiprintf_r+0x1e4>
 800737e:	f88d 302a 	strb.w	r3, [sp, #42]	@ 0x2a
 8007382:	f04f 0901 	mov.w	r9, #1
 8007386:	4623      	mov	r3, r4
 8007388:	469a      	mov	sl, r3
 800738a:	f813 2b01 	ldrb.w	r2, [r3], #1
 800738e:	b10a      	cbz	r2, 8007394 <_svfiprintf_r+0x60>
 8007390:	2a25      	cmp	r2, #37	@ 0x25
 8007392:	d1f9      	bne.n	8007388 <_svfiprintf_r+0x54>
 8007394:	ebba 0b04 	subs.w	fp, sl, r4
 8007398:	d00b      	beq.n	80073b2 <_svfiprintf_r+0x7e>
 800739a:	465b      	mov	r3, fp
 800739c:	4622      	mov	r2, r4
 800739e:	4629      	mov	r1, r5
 80073a0:	4638      	mov	r0, r7
 80073a2:	f7ff ff6b 	bl	800727c <__ssputs_r>
 80073a6:	3001      	adds	r0, #1
 80073a8:	f000 80a7 	beq.w	80074fa <_svfiprintf_r+0x1c6>
 80073ac:	9a09      	ldr	r2, [sp, #36]	@ 0x24
 80073ae:	445a      	add	r2, fp
 80073b0:	9209      	str	r2, [sp, #36]	@ 0x24
 80073b2:	f89a 3000 	ldrb.w	r3, [sl]
 80073b6:	2b00      	cmp	r3, #0
 80073b8:	f000 809f 	beq.w	80074fa <_svfiprintf_r+0x1c6>
 80073bc:	2300      	movs	r3, #0
 80073be:	f04f 32ff 	mov.w	r2, #4294967295
 80073c2:	e9cd 2305 	strd	r2, r3, [sp, #20]
 80073c6:	f10a 0a01 	add.w	sl, sl, #1
 80073ca:	9304      	str	r3, [sp, #16]
 80073cc:	9307      	str	r3, [sp, #28]
 80073ce:	f88d 3053 	strb.w	r3, [sp, #83]	@ 0x53
 80073d2:	931a      	str	r3, [sp, #104]	@ 0x68
 80073d4:	4654      	mov	r4, sl
 80073d6:	2205      	movs	r2, #5
 80073d8:	f814 1b01 	ldrb.w	r1, [r4], #1
 80073dc:	484e      	ldr	r0, [pc, #312]	@ (8007518 <_svfiprintf_r+0x1e4>)
 80073de:	f7f8 ff1f 	bl	8000220 <memchr>
 80073e2:	9a04      	ldr	r2, [sp, #16]
 80073e4:	b9d8      	cbnz	r0, 800741e <_svfiprintf_r+0xea>
 80073e6:	06d0      	lsls	r0, r2, #27
 80073e8:	bf44      	itt	mi
 80073ea:	2320      	movmi	r3, #32
 80073ec:	f88d 3053 	strbmi.w	r3, [sp, #83]	@ 0x53
 80073f0:	0711      	lsls	r1, r2, #28
 80073f2:	bf44      	itt	mi
 80073f4:	232b      	movmi	r3, #43	@ 0x2b
 80073f6:	f88d 3053 	strbmi.w	r3, [sp, #83]	@ 0x53
 80073fa:	f89a 3000 	ldrb.w	r3, [sl]
 80073fe:	2b2a      	cmp	r3, #42	@ 0x2a
 8007400:	d015      	beq.n	800742e <_svfiprintf_r+0xfa>
 8007402:	9a07      	ldr	r2, [sp, #28]
 8007404:	4654      	mov	r4, sl
 8007406:	2000      	movs	r0, #0
 8007408:	f04f 0c0a 	mov.w	ip, #10
 800740c:	4621      	mov	r1, r4
 800740e:	f811 3b01 	ldrb.w	r3, [r1], #1
 8007412:	3b30      	subs	r3, #48	@ 0x30
 8007414:	2b09      	cmp	r3, #9
 8007416:	d94b      	bls.n	80074b0 <_svfiprintf_r+0x17c>
 8007418:	b1b0      	cbz	r0, 8007448 <_svfiprintf_r+0x114>
 800741a:	9207      	str	r2, [sp, #28]
 800741c:	e014      	b.n	8007448 <_svfiprintf_r+0x114>
 800741e:	eba0 0308 	sub.w	r3, r0, r8
 8007422:	fa09 f303 	lsl.w	r3, r9, r3
 8007426:	4313      	orrs	r3, r2
 8007428:	9304      	str	r3, [sp, #16]
 800742a:	46a2      	mov	sl, r4
 800742c:	e7d2      	b.n	80073d4 <_svfiprintf_r+0xa0>
 800742e:	9b03      	ldr	r3, [sp, #12]
 8007430:	1d19      	adds	r1, r3, #4
 8007432:	681b      	ldr	r3, [r3, #0]
 8007434:	9103      	str	r1, [sp, #12]
 8007436:	2b00      	cmp	r3, #0
 8007438:	bfbb      	ittet	lt
 800743a:	425b      	neglt	r3, r3
 800743c:	f042 0202 	orrlt.w	r2, r2, #2
 8007440:	9307      	strge	r3, [sp, #28]
 8007442:	9307      	strlt	r3, [sp, #28]
 8007444:	bfb8      	it	lt
 8007446:	9204      	strlt	r2, [sp, #16]
 8007448:	7823      	ldrb	r3, [r4, #0]
 800744a:	2b2e      	cmp	r3, #46	@ 0x2e
 800744c:	d10a      	bne.n	8007464 <_svfiprintf_r+0x130>
 800744e:	7863      	ldrb	r3, [r4, #1]
 8007450:	2b2a      	cmp	r3, #42	@ 0x2a
 8007452:	d132      	bne.n	80074ba <_svfiprintf_r+0x186>
 8007454:	9b03      	ldr	r3, [sp, #12]
 8007456:	1d1a      	adds	r2, r3, #4
 8007458:	681b      	ldr	r3, [r3, #0]
 800745a:	9203      	str	r2, [sp, #12]
 800745c:	ea43 73e3 	orr.w	r3, r3, r3, asr #31
 8007460:	3402      	adds	r4, #2
 8007462:	9305      	str	r3, [sp, #20]
 8007464:	f8df a0c0 	ldr.w	sl, [pc, #192]	@ 8007528 <_svfiprintf_r+0x1f4>
 8007468:	7821      	ldrb	r1, [r4, #0]
 800746a:	2203      	movs	r2, #3
 800746c:	4650      	mov	r0, sl
 800746e:	f7f8 fed7 	bl	8000220 <memchr>
 8007472:	b138      	cbz	r0, 8007484 <_svfiprintf_r+0x150>
 8007474:	9b04      	ldr	r3, [sp, #16]
 8007476:	eba0 000a 	sub.w	r0, r0, sl
 800747a:	2240      	movs	r2, #64	@ 0x40
 800747c:	4082      	lsls	r2, r0
 800747e:	4313      	orrs	r3, r2
 8007480:	3401      	adds	r4, #1
 8007482:	9304      	str	r3, [sp, #16]
 8007484:	f814 1b01 	ldrb.w	r1, [r4], #1
 8007488:	4824      	ldr	r0, [pc, #144]	@ (800751c <_svfiprintf_r+0x1e8>)
 800748a:	f88d 1028 	strb.w	r1, [sp, #40]	@ 0x28
 800748e:	2206      	movs	r2, #6
 8007490:	f7f8 fec6 	bl	8000220 <memchr>
 8007494:	2800      	cmp	r0, #0
 8007496:	d036      	beq.n	8007506 <_svfiprintf_r+0x1d2>
 8007498:	4b21      	ldr	r3, [pc, #132]	@ (8007520 <_svfiprintf_r+0x1ec>)
 800749a:	bb1b      	cbnz	r3, 80074e4 <_svfiprintf_r+0x1b0>
 800749c:	9b03      	ldr	r3, [sp, #12]
 800749e:	3307      	adds	r3, #7
 80074a0:	f023 0307 	bic.w	r3, r3, #7
 80074a4:	3308      	adds	r3, #8
 80074a6:	9303      	str	r3, [sp, #12]
 80074a8:	9b09      	ldr	r3, [sp, #36]	@ 0x24
 80074aa:	4433      	add	r3, r6
 80074ac:	9309      	str	r3, [sp, #36]	@ 0x24
 80074ae:	e76a      	b.n	8007386 <_svfiprintf_r+0x52>
 80074b0:	fb0c 3202 	mla	r2, ip, r2, r3
 80074b4:	460c      	mov	r4, r1
 80074b6:	2001      	movs	r0, #1
 80074b8:	e7a8      	b.n	800740c <_svfiprintf_r+0xd8>
 80074ba:	2300      	movs	r3, #0
 80074bc:	3401      	adds	r4, #1
 80074be:	9305      	str	r3, [sp, #20]
 80074c0:	4619      	mov	r1, r3
 80074c2:	f04f 0c0a 	mov.w	ip, #10
 80074c6:	4620      	mov	r0, r4
 80074c8:	f810 2b01 	ldrb.w	r2, [r0], #1
 80074cc:	3a30      	subs	r2, #48	@ 0x30
 80074ce:	2a09      	cmp	r2, #9
 80074d0:	d903      	bls.n	80074da <_svfiprintf_r+0x1a6>
 80074d2:	2b00      	cmp	r3, #0
 80074d4:	d0c6      	beq.n	8007464 <_svfiprintf_r+0x130>
 80074d6:	9105      	str	r1, [sp, #20]
 80074d8:	e7c4      	b.n	8007464 <_svfiprintf_r+0x130>
 80074da:	fb0c 2101 	mla	r1, ip, r1, r2
 80074de:	4604      	mov	r4, r0
 80074e0:	2301      	movs	r3, #1
 80074e2:	e7f0      	b.n	80074c6 <_svfiprintf_r+0x192>
 80074e4:	ab03      	add	r3, sp, #12
 80074e6:	9300      	str	r3, [sp, #0]
 80074e8:	462a      	mov	r2, r5
 80074ea:	4b0e      	ldr	r3, [pc, #56]	@ (8007524 <_svfiprintf_r+0x1f0>)
 80074ec:	a904      	add	r1, sp, #16
 80074ee:	4638      	mov	r0, r7
 80074f0:	f7fc fccc 	bl	8003e8c <_printf_float>
 80074f4:	1c42      	adds	r2, r0, #1
 80074f6:	4606      	mov	r6, r0
 80074f8:	d1d6      	bne.n	80074a8 <_svfiprintf_r+0x174>
 80074fa:	89ab      	ldrh	r3, [r5, #12]
 80074fc:	065b      	lsls	r3, r3, #25
 80074fe:	f53f af2d 	bmi.w	800735c <_svfiprintf_r+0x28>
 8007502:	9809      	ldr	r0, [sp, #36]	@ 0x24
 8007504:	e72c      	b.n	8007360 <_svfiprintf_r+0x2c>
 8007506:	ab03      	add	r3, sp, #12
 8007508:	9300      	str	r3, [sp, #0]
 800750a:	462a      	mov	r2, r5
 800750c:	4b05      	ldr	r3, [pc, #20]	@ (8007524 <_svfiprintf_r+0x1f0>)
 800750e:	a904      	add	r1, sp, #16
 8007510:	4638      	mov	r0, r7
 8007512:	f7fc ff53 	bl	80043bc <_printf_i>
 8007516:	e7ed      	b.n	80074f4 <_svfiprintf_r+0x1c0>
 8007518:	08008591 	.word	0x08008591
 800751c:	0800859b 	.word	0x0800859b
 8007520:	08003e8d 	.word	0x08003e8d
 8007524:	0800727d 	.word	0x0800727d
 8007528:	08008597 	.word	0x08008597

0800752c <__sflush_r>:
 800752c:	f9b1 200c 	ldrsh.w	r2, [r1, #12]
 8007530:	e92d 41f0 	stmdb	sp!, {r4, r5, r6, r7, r8, lr}
 8007534:	0716      	lsls	r6, r2, #28
 8007536:	4605      	mov	r5, r0
 8007538:	460c      	mov	r4, r1
 800753a:	d454      	bmi.n	80075e6 <__sflush_r+0xba>
 800753c:	684b      	ldr	r3, [r1, #4]
 800753e:	2b00      	cmp	r3, #0
 8007540:	dc02      	bgt.n	8007548 <__sflush_r+0x1c>
 8007542:	6c0b      	ldr	r3, [r1, #64]	@ 0x40
 8007544:	2b00      	cmp	r3, #0
 8007546:	dd48      	ble.n	80075da <__sflush_r+0xae>
 8007548:	6ae6      	ldr	r6, [r4, #44]	@ 0x2c
 800754a:	2e00      	cmp	r6, #0
 800754c:	d045      	beq.n	80075da <__sflush_r+0xae>
 800754e:	2300      	movs	r3, #0
 8007550:	f412 5280 	ands.w	r2, r2, #4096	@ 0x1000
 8007554:	682f      	ldr	r7, [r5, #0]
 8007556:	6a21      	ldr	r1, [r4, #32]
 8007558:	602b      	str	r3, [r5, #0]
 800755a:	d030      	beq.n	80075be <__sflush_r+0x92>
 800755c:	6d62      	ldr	r2, [r4, #84]	@ 0x54
 800755e:	89a3      	ldrh	r3, [r4, #12]
 8007560:	0759      	lsls	r1, r3, #29
 8007562:	d505      	bpl.n	8007570 <__sflush_r+0x44>
 8007564:	6863      	ldr	r3, [r4, #4]
 8007566:	1ad2      	subs	r2, r2, r3
 8007568:	6b63      	ldr	r3, [r4, #52]	@ 0x34
 800756a:	b10b      	cbz	r3, 8007570 <__sflush_r+0x44>
 800756c:	6c23      	ldr	r3, [r4, #64]	@ 0x40
 800756e:	1ad2      	subs	r2, r2, r3
 8007570:	2300      	movs	r3, #0
 8007572:	6ae6      	ldr	r6, [r4, #44]	@ 0x2c
 8007574:	6a21      	ldr	r1, [r4, #32]
 8007576:	4628      	mov	r0, r5
 8007578:	47b0      	blx	r6
 800757a:	1c43      	adds	r3, r0, #1
 800757c:	89a3      	ldrh	r3, [r4, #12]
 800757e:	d106      	bne.n	800758e <__sflush_r+0x62>
 8007580:	6829      	ldr	r1, [r5, #0]
 8007582:	291d      	cmp	r1, #29
 8007584:	d82b      	bhi.n	80075de <__sflush_r+0xb2>
 8007586:	4a2a      	ldr	r2, [pc, #168]	@ (8007630 <__sflush_r+0x104>)
 8007588:	40ca      	lsrs	r2, r1
 800758a:	07d6      	lsls	r6, r2, #31
 800758c:	d527      	bpl.n	80075de <__sflush_r+0xb2>
 800758e:	2200      	movs	r2, #0
 8007590:	6062      	str	r2, [r4, #4]
 8007592:	04d9      	lsls	r1, r3, #19
 8007594:	6922      	ldr	r2, [r4, #16]
 8007596:	6022      	str	r2, [r4, #0]
 8007598:	d504      	bpl.n	80075a4 <__sflush_r+0x78>
 800759a:	1c42      	adds	r2, r0, #1
 800759c:	d101      	bne.n	80075a2 <__sflush_r+0x76>
 800759e:	682b      	ldr	r3, [r5, #0]
 80075a0:	b903      	cbnz	r3, 80075a4 <__sflush_r+0x78>
 80075a2:	6560      	str	r0, [r4, #84]	@ 0x54
 80075a4:	6b61      	ldr	r1, [r4, #52]	@ 0x34
 80075a6:	602f      	str	r7, [r5, #0]
 80075a8:	b1b9      	cbz	r1, 80075da <__sflush_r+0xae>
 80075aa:	f104 0344 	add.w	r3, r4, #68	@ 0x44
 80075ae:	4299      	cmp	r1, r3
 80075b0:	d002      	beq.n	80075b8 <__sflush_r+0x8c>
 80075b2:	4628      	mov	r0, r5
 80075b4:	f7fe fa34 	bl	8005a20 <_free_r>
 80075b8:	2300      	movs	r3, #0
 80075ba:	6363      	str	r3, [r4, #52]	@ 0x34
 80075bc:	e00d      	b.n	80075da <__sflush_r+0xae>
 80075be:	2301      	movs	r3, #1
 80075c0:	4628      	mov	r0, r5
 80075c2:	47b0      	blx	r6
 80075c4:	4602      	mov	r2, r0
 80075c6:	1c50      	adds	r0, r2, #1
 80075c8:	d1c9      	bne.n	800755e <__sflush_r+0x32>
 80075ca:	682b      	ldr	r3, [r5, #0]
 80075cc:	2b00      	cmp	r3, #0
 80075ce:	d0c6      	beq.n	800755e <__sflush_r+0x32>
 80075d0:	2b1d      	cmp	r3, #29
 80075d2:	d001      	beq.n	80075d8 <__sflush_r+0xac>
 80075d4:	2b16      	cmp	r3, #22
 80075d6:	d11e      	bne.n	8007616 <__sflush_r+0xea>
 80075d8:	602f      	str	r7, [r5, #0]
 80075da:	2000      	movs	r0, #0
 80075dc:	e022      	b.n	8007624 <__sflush_r+0xf8>
 80075de:	f043 0340 	orr.w	r3, r3, #64	@ 0x40
 80075e2:	b21b      	sxth	r3, r3
 80075e4:	e01b      	b.n	800761e <__sflush_r+0xf2>
 80075e6:	690f      	ldr	r7, [r1, #16]
 80075e8:	2f00      	cmp	r7, #0
 80075ea:	d0f6      	beq.n	80075da <__sflush_r+0xae>
 80075ec:	0793      	lsls	r3, r2, #30
 80075ee:	680e      	ldr	r6, [r1, #0]
 80075f0:	bf08      	it	eq
 80075f2:	694b      	ldreq	r3, [r1, #20]
 80075f4:	600f      	str	r7, [r1, #0]
 80075f6:	bf18      	it	ne
 80075f8:	2300      	movne	r3, #0
 80075fa:	eba6 0807 	sub.w	r8, r6, r7
 80075fe:	608b      	str	r3, [r1, #8]
 8007600:	f1b8 0f00 	cmp.w	r8, #0
 8007604:	dde9      	ble.n	80075da <__sflush_r+0xae>
 8007606:	6a21      	ldr	r1, [r4, #32]
 8007608:	6aa6      	ldr	r6, [r4, #40]	@ 0x28
 800760a:	4643      	mov	r3, r8
 800760c:	463a      	mov	r2, r7
 800760e:	4628      	mov	r0, r5
 8007610:	47b0      	blx	r6
 8007612:	2800      	cmp	r0, #0
 8007614:	dc08      	bgt.n	8007628 <__sflush_r+0xfc>
 8007616:	f9b4 300c 	ldrsh.w	r3, [r4, #12]
 800761a:	f043 0340 	orr.w	r3, r3, #64	@ 0x40
 800761e:	81a3      	strh	r3, [r4, #12]
 8007620:	f04f 30ff 	mov.w	r0, #4294967295
 8007624:	e8bd 81f0 	ldmia.w	sp!, {r4, r5, r6, r7, r8, pc}
 8007628:	4407      	add	r7, r0
 800762a:	eba8 0800 	sub.w	r8, r8, r0
 800762e:	e7e7      	b.n	8007600 <__sflush_r+0xd4>
 8007630:	20400001 	.word	0x20400001

08007634 <_fflush_r>:
 8007634:	b538      	push	{r3, r4, r5, lr}
 8007636:	690b      	ldr	r3, [r1, #16]
 8007638:	4605      	mov	r5, r0
 800763a:	460c      	mov	r4, r1
 800763c:	b913      	cbnz	r3, 8007644 <_fflush_r+0x10>
 800763e:	2500      	movs	r5, #0
 8007640:	4628      	mov	r0, r5
 8007642:	bd38      	pop	{r3, r4, r5, pc}
 8007644:	b118      	cbz	r0, 800764e <_fflush_r+0x1a>
 8007646:	6a03      	ldr	r3, [r0, #32]
 8007648:	b90b      	cbnz	r3, 800764e <_fflush_r+0x1a>
 800764a:	f7fd fa6f 	bl	8004b2c <__sinit>
 800764e:	f9b4 300c 	ldrsh.w	r3, [r4, #12]
 8007652:	2b00      	cmp	r3, #0
 8007654:	d0f3      	beq.n	800763e <_fflush_r+0xa>
 8007656:	6e62      	ldr	r2, [r4, #100]	@ 0x64
 8007658:	07d0      	lsls	r0, r2, #31
 800765a:	d404      	bmi.n	8007666 <_fflush_r+0x32>
 800765c:	0599      	lsls	r1, r3, #22
 800765e:	d402      	bmi.n	8007666 <_fflush_r+0x32>
 8007660:	6da0      	ldr	r0, [r4, #88]	@ 0x58
 8007662:	f7fd fb7c 	bl	8004d5e <__retarget_lock_acquire_recursive>
 8007666:	4628      	mov	r0, r5
 8007668:	4621      	mov	r1, r4
 800766a:	f7ff ff5f 	bl	800752c <__sflush_r>
 800766e:	6e63      	ldr	r3, [r4, #100]	@ 0x64
 8007670:	07da      	lsls	r2, r3, #31
 8007672:	4605      	mov	r5, r0
 8007674:	d4e4      	bmi.n	8007640 <_fflush_r+0xc>
 8007676:	89a3      	ldrh	r3, [r4, #12]
 8007678:	059b      	lsls	r3, r3, #22
 800767a:	d4e1      	bmi.n	8007640 <_fflush_r+0xc>
 800767c:	6da0      	ldr	r0, [r4, #88]	@ 0x58
 800767e:	f7fd fb6f 	bl	8004d60 <__retarget_lock_release_recursive>
 8007682:	e7dd      	b.n	8007640 <_fflush_r+0xc>

08007684 <memmove>:
 8007684:	4288      	cmp	r0, r1
 8007686:	b510      	push	{r4, lr}
 8007688:	eb01 0402 	add.w	r4, r1, r2
 800768c:	d902      	bls.n	8007694 <memmove+0x10>
 800768e:	4284      	cmp	r4, r0
 8007690:	4623      	mov	r3, r4
 8007692:	d807      	bhi.n	80076a4 <memmove+0x20>
 8007694:	1e43      	subs	r3, r0, #1
 8007696:	42a1      	cmp	r1, r4
 8007698:	d008      	beq.n	80076ac <memmove+0x28>
 800769a:	f811 2b01 	ldrb.w	r2, [r1], #1
 800769e:	f803 2f01 	strb.w	r2, [r3, #1]!
 80076a2:	e7f8      	b.n	8007696 <memmove+0x12>
 80076a4:	4402      	add	r2, r0
 80076a6:	4601      	mov	r1, r0
 80076a8:	428a      	cmp	r2, r1
 80076aa:	d100      	bne.n	80076ae <memmove+0x2a>
 80076ac:	bd10      	pop	{r4, pc}
 80076ae:	f813 4d01 	ldrb.w	r4, [r3, #-1]!
 80076b2:	f802 4d01 	strb.w	r4, [r2, #-1]!
 80076b6:	e7f7      	b.n	80076a8 <memmove+0x24>

080076b8 <strncmp>:
 80076b8:	b510      	push	{r4, lr}
 80076ba:	b16a      	cbz	r2, 80076d8 <strncmp+0x20>
 80076bc:	3901      	subs	r1, #1
 80076be:	1884      	adds	r4, r0, r2
 80076c0:	f810 2b01 	ldrb.w	r2, [r0], #1
 80076c4:	f811 3f01 	ldrb.w	r3, [r1, #1]!
 80076c8:	429a      	cmp	r2, r3
 80076ca:	d103      	bne.n	80076d4 <strncmp+0x1c>
 80076cc:	42a0      	cmp	r0, r4
 80076ce:	d001      	beq.n	80076d4 <strncmp+0x1c>
 80076d0:	2a00      	cmp	r2, #0
 80076d2:	d1f5      	bne.n	80076c0 <strncmp+0x8>
 80076d4:	1ad0      	subs	r0, r2, r3
 80076d6:	bd10      	pop	{r4, pc}
 80076d8:	4610      	mov	r0, r2
 80076da:	e7fc      	b.n	80076d6 <strncmp+0x1e>

080076dc <_sbrk_r>:
 80076dc:	b538      	push	{r3, r4, r5, lr}
 80076de:	4d06      	ldr	r5, [pc, #24]	@ (80076f8 <_sbrk_r+0x1c>)
 80076e0:	2300      	movs	r3, #0
 80076e2:	4604      	mov	r4, r0
 80076e4:	4608      	mov	r0, r1
 80076e6:	602b      	str	r3, [r5, #0]
 80076e8:	f7f9 ffa0 	bl	800162c <_sbrk>
 80076ec:	1c43      	adds	r3, r0, #1
 80076ee:	d102      	bne.n	80076f6 <_sbrk_r+0x1a>
 80076f0:	682b      	ldr	r3, [r5, #0]
 80076f2:	b103      	cbz	r3, 80076f6 <_sbrk_r+0x1a>
 80076f4:	6023      	str	r3, [r4, #0]
 80076f6:	bd38      	pop	{r3, r4, r5, pc}
 80076f8:	20000a30 	.word	0x20000a30

080076fc <memcpy>:
 80076fc:	440a      	add	r2, r1
 80076fe:	4291      	cmp	r1, r2
 8007700:	f100 33ff 	add.w	r3, r0, #4294967295
 8007704:	d100      	bne.n	8007708 <memcpy+0xc>
 8007706:	4770      	bx	lr
 8007708:	b510      	push	{r4, lr}
 800770a:	f811 4b01 	ldrb.w	r4, [r1], #1
 800770e:	f803 4f01 	strb.w	r4, [r3, #1]!
 8007712:	4291      	cmp	r1, r2
 8007714:	d1f9      	bne.n	800770a <memcpy+0xe>
 8007716:	bd10      	pop	{r4, pc}

08007718 <nan>:
 8007718:	ed9f 0b01 	vldr	d0, [pc, #4]	@ 8007720 <nan+0x8>
 800771c:	4770      	bx	lr
 800771e:	bf00      	nop
 8007720:	00000000 	.word	0x00000000
 8007724:	7ff80000 	.word	0x7ff80000

08007728 <__assert_func>:
 8007728:	b51f      	push	{r0, r1, r2, r3, r4, lr}
 800772a:	4614      	mov	r4, r2
 800772c:	461a      	mov	r2, r3
 800772e:	4b09      	ldr	r3, [pc, #36]	@ (8007754 <__assert_func+0x2c>)
 8007730:	681b      	ldr	r3, [r3, #0]
 8007732:	4605      	mov	r5, r0
 8007734:	68d8      	ldr	r0, [r3, #12]
 8007736:	b14c      	cbz	r4, 800774c <__assert_func+0x24>
 8007738:	4b07      	ldr	r3, [pc, #28]	@ (8007758 <__assert_func+0x30>)
 800773a:	9100      	str	r1, [sp, #0]
 800773c:	e9cd 3401 	strd	r3, r4, [sp, #4]
 8007740:	4906      	ldr	r1, [pc, #24]	@ (800775c <__assert_func+0x34>)
 8007742:	462b      	mov	r3, r5
 8007744:	f000 fba8 	bl	8007e98 <fiprintf>
 8007748:	f000 fbb8 	bl	8007ebc <abort>
 800774c:	4b04      	ldr	r3, [pc, #16]	@ (8007760 <__assert_func+0x38>)
 800774e:	461c      	mov	r4, r3
 8007750:	e7f3      	b.n	800773a <__assert_func+0x12>
 8007752:	bf00      	nop
 8007754:	20000018 	.word	0x20000018
 8007758:	080085aa 	.word	0x080085aa
 800775c:	080085b7 	.word	0x080085b7
 8007760:	080085e5 	.word	0x080085e5

08007764 <_calloc_r>:
 8007764:	b570      	push	{r4, r5, r6, lr}
 8007766:	fba1 5402 	umull	r5, r4, r1, r2
 800776a:	b934      	cbnz	r4, 800777a <_calloc_r+0x16>
 800776c:	4629      	mov	r1, r5
 800776e:	f7fe f9cb 	bl	8005b08 <_malloc_r>
 8007772:	4606      	mov	r6, r0
 8007774:	b928      	cbnz	r0, 8007782 <_calloc_r+0x1e>
 8007776:	4630      	mov	r0, r6
 8007778:	bd70      	pop	{r4, r5, r6, pc}
 800777a:	220c      	movs	r2, #12
 800777c:	6002      	str	r2, [r0, #0]
 800777e:	2600      	movs	r6, #0
 8007780:	e7f9      	b.n	8007776 <_calloc_r+0x12>
 8007782:	462a      	mov	r2, r5
 8007784:	4621      	mov	r1, r4
 8007786:	f7fd fa6c 	bl	8004c62 <memset>
 800778a:	e7f4      	b.n	8007776 <_calloc_r+0x12>

0800778c <rshift>:
 800778c:	6903      	ldr	r3, [r0, #16]
 800778e:	ebb3 1f61 	cmp.w	r3, r1, asr #5
 8007792:	e92d 43f0 	stmdb	sp!, {r4, r5, r6, r7, r8, r9, lr}
 8007796:	ea4f 1261 	mov.w	r2, r1, asr #5
 800779a:	f100 0414 	add.w	r4, r0, #20
 800779e:	dd45      	ble.n	800782c <rshift+0xa0>
 80077a0:	f011 011f 	ands.w	r1, r1, #31
 80077a4:	eb04 0683 	add.w	r6, r4, r3, lsl #2
 80077a8:	eb04 0582 	add.w	r5, r4, r2, lsl #2
 80077ac:	d10c      	bne.n	80077c8 <rshift+0x3c>
 80077ae:	f100 0710 	add.w	r7, r0, #16
 80077b2:	4629      	mov	r1, r5
 80077b4:	42b1      	cmp	r1, r6
 80077b6:	d334      	bcc.n	8007822 <rshift+0x96>
 80077b8:	1a9b      	subs	r3, r3, r2
 80077ba:	009b      	lsls	r3, r3, #2
 80077bc:	1eea      	subs	r2, r5, #3
 80077be:	4296      	cmp	r6, r2
 80077c0:	bf38      	it	cc
 80077c2:	2300      	movcc	r3, #0
 80077c4:	4423      	add	r3, r4
 80077c6:	e015      	b.n	80077f4 <rshift+0x68>
 80077c8:	f854 7022 	ldr.w	r7, [r4, r2, lsl #2]
 80077cc:	f1c1 0820 	rsb	r8, r1, #32
 80077d0:	40cf      	lsrs	r7, r1
 80077d2:	f105 0e04 	add.w	lr, r5, #4
 80077d6:	46a1      	mov	r9, r4
 80077d8:	4576      	cmp	r6, lr
 80077da:	46f4      	mov	ip, lr
 80077dc:	d815      	bhi.n	800780a <rshift+0x7e>
 80077de:	1a9a      	subs	r2, r3, r2
 80077e0:	0092      	lsls	r2, r2, #2
 80077e2:	3a04      	subs	r2, #4
 80077e4:	3501      	adds	r5, #1
 80077e6:	42ae      	cmp	r6, r5
 80077e8:	bf38      	it	cc
 80077ea:	2200      	movcc	r2, #0
 80077ec:	18a3      	adds	r3, r4, r2
 80077ee:	50a7      	str	r7, [r4, r2]
 80077f0:	b107      	cbz	r7, 80077f4 <rshift+0x68>
 80077f2:	3304      	adds	r3, #4
 80077f4:	1b1a      	subs	r2, r3, r4
 80077f6:	42a3      	cmp	r3, r4
 80077f8:	ea4f 02a2 	mov.w	r2, r2, asr #2
 80077fc:	bf08      	it	eq
 80077fe:	2300      	moveq	r3, #0
 8007800:	6102      	str	r2, [r0, #16]
 8007802:	bf08      	it	eq
 8007804:	6143      	streq	r3, [r0, #20]
 8007806:	e8bd 83f0 	ldmia.w	sp!, {r4, r5, r6, r7, r8, r9, pc}
 800780a:	f8dc c000 	ldr.w	ip, [ip]
 800780e:	fa0c fc08 	lsl.w	ip, ip, r8
 8007812:	ea4c 0707 	orr.w	r7, ip, r7
 8007816:	f849 7b04 	str.w	r7, [r9], #4
 800781a:	f85e 7b04 	ldr.w	r7, [lr], #4
 800781e:	40cf      	lsrs	r7, r1
 8007820:	e7da      	b.n	80077d8 <rshift+0x4c>
 8007822:	f851 cb04 	ldr.w	ip, [r1], #4
 8007826:	f847 cf04 	str.w	ip, [r7, #4]!
 800782a:	e7c3      	b.n	80077b4 <rshift+0x28>
 800782c:	4623      	mov	r3, r4
 800782e:	e7e1      	b.n	80077f4 <rshift+0x68>

08007830 <__hexdig_fun>:
 8007830:	f1a0 0330 	sub.w	r3, r0, #48	@ 0x30
 8007834:	2b09      	cmp	r3, #9
 8007836:	d802      	bhi.n	800783e <__hexdig_fun+0xe>
 8007838:	3820      	subs	r0, #32
 800783a:	b2c0      	uxtb	r0, r0
 800783c:	4770      	bx	lr
 800783e:	f1a0 0361 	sub.w	r3, r0, #97	@ 0x61
 8007842:	2b05      	cmp	r3, #5
 8007844:	d801      	bhi.n	800784a <__hexdig_fun+0x1a>
 8007846:	3847      	subs	r0, #71	@ 0x47
 8007848:	e7f7      	b.n	800783a <__hexdig_fun+0xa>
 800784a:	f1a0 0341 	sub.w	r3, r0, #65	@ 0x41
 800784e:	2b05      	cmp	r3, #5
 8007850:	d801      	bhi.n	8007856 <__hexdig_fun+0x26>
 8007852:	3827      	subs	r0, #39	@ 0x27
 8007854:	e7f1      	b.n	800783a <__hexdig_fun+0xa>
 8007856:	2000      	movs	r0, #0
 8007858:	4770      	bx	lr
	...

0800785c <__gethex>:
 800785c:	e92d 4ff0 	stmdb	sp!, {r4, r5, r6, r7, r8, r9, sl, fp, lr}
 8007860:	b085      	sub	sp, #20
 8007862:	468a      	mov	sl, r1
 8007864:	9302      	str	r3, [sp, #8]
 8007866:	680b      	ldr	r3, [r1, #0]
 8007868:	9001      	str	r0, [sp, #4]
 800786a:	4690      	mov	r8, r2
 800786c:	1c9c      	adds	r4, r3, #2
 800786e:	46a1      	mov	r9, r4
 8007870:	f814 0b01 	ldrb.w	r0, [r4], #1
 8007874:	2830      	cmp	r0, #48	@ 0x30
 8007876:	d0fa      	beq.n	800786e <__gethex+0x12>
 8007878:	eba9 0303 	sub.w	r3, r9, r3
 800787c:	f1a3 0b02 	sub.w	fp, r3, #2
 8007880:	f7ff ffd6 	bl	8007830 <__hexdig_fun>
 8007884:	4605      	mov	r5, r0
 8007886:	2800      	cmp	r0, #0
 8007888:	d168      	bne.n	800795c <__gethex+0x100>
 800788a:	49a0      	ldr	r1, [pc, #640]	@ (8007b0c <__gethex+0x2b0>)
 800788c:	2201      	movs	r2, #1
 800788e:	4648      	mov	r0, r9
 8007890:	f7ff ff12 	bl	80076b8 <strncmp>
 8007894:	4607      	mov	r7, r0
 8007896:	2800      	cmp	r0, #0
 8007898:	d167      	bne.n	800796a <__gethex+0x10e>
 800789a:	f899 0001 	ldrb.w	r0, [r9, #1]
 800789e:	4626      	mov	r6, r4
 80078a0:	f7ff ffc6 	bl	8007830 <__hexdig_fun>
 80078a4:	2800      	cmp	r0, #0
 80078a6:	d062      	beq.n	800796e <__gethex+0x112>
 80078a8:	4623      	mov	r3, r4
 80078aa:	7818      	ldrb	r0, [r3, #0]
 80078ac:	2830      	cmp	r0, #48	@ 0x30
 80078ae:	4699      	mov	r9, r3
 80078b0:	f103 0301 	add.w	r3, r3, #1
 80078b4:	d0f9      	beq.n	80078aa <__gethex+0x4e>
 80078b6:	f7ff ffbb 	bl	8007830 <__hexdig_fun>
 80078ba:	fab0 f580 	clz	r5, r0
 80078be:	096d      	lsrs	r5, r5, #5
 80078c0:	f04f 0b01 	mov.w	fp, #1
 80078c4:	464a      	mov	r2, r9
 80078c6:	4616      	mov	r6, r2
 80078c8:	3201      	adds	r2, #1
 80078ca:	7830      	ldrb	r0, [r6, #0]
 80078cc:	f7ff ffb0 	bl	8007830 <__hexdig_fun>
 80078d0:	2800      	cmp	r0, #0
 80078d2:	d1f8      	bne.n	80078c6 <__gethex+0x6a>
 80078d4:	498d      	ldr	r1, [pc, #564]	@ (8007b0c <__gethex+0x2b0>)
 80078d6:	2201      	movs	r2, #1
 80078d8:	4630      	mov	r0, r6
 80078da:	f7ff feed 	bl	80076b8 <strncmp>
 80078de:	2800      	cmp	r0, #0
 80078e0:	d13f      	bne.n	8007962 <__gethex+0x106>
 80078e2:	b944      	cbnz	r4, 80078f6 <__gethex+0x9a>
 80078e4:	1c74      	adds	r4, r6, #1
 80078e6:	4622      	mov	r2, r4
 80078e8:	4616      	mov	r6, r2
 80078ea:	3201      	adds	r2, #1
 80078ec:	7830      	ldrb	r0, [r6, #0]
 80078ee:	f7ff ff9f 	bl	8007830 <__hexdig_fun>
 80078f2:	2800      	cmp	r0, #0
 80078f4:	d1f8      	bne.n	80078e8 <__gethex+0x8c>
 80078f6:	1ba4      	subs	r4, r4, r6
 80078f8:	00a7      	lsls	r7, r4, #2
 80078fa:	7833      	ldrb	r3, [r6, #0]
 80078fc:	f003 03df 	and.w	r3, r3, #223	@ 0xdf
 8007900:	2b50      	cmp	r3, #80	@ 0x50
 8007902:	d13e      	bne.n	8007982 <__gethex+0x126>
 8007904:	7873      	ldrb	r3, [r6, #1]
 8007906:	2b2b      	cmp	r3, #43	@ 0x2b
 8007908:	d033      	beq.n	8007972 <__gethex+0x116>
 800790a:	2b2d      	cmp	r3, #45	@ 0x2d
 800790c:	d034      	beq.n	8007978 <__gethex+0x11c>
 800790e:	1c71      	adds	r1, r6, #1
 8007910:	2400      	movs	r4, #0
 8007912:	7808      	ldrb	r0, [r1, #0]
 8007914:	f7ff ff8c 	bl	8007830 <__hexdig_fun>
 8007918:	1e43      	subs	r3, r0, #1
 800791a:	b2db      	uxtb	r3, r3
 800791c:	2b18      	cmp	r3, #24
 800791e:	d830      	bhi.n	8007982 <__gethex+0x126>
 8007920:	f1a0 0210 	sub.w	r2, r0, #16
 8007924:	f811 0f01 	ldrb.w	r0, [r1, #1]!
 8007928:	f7ff ff82 	bl	8007830 <__hexdig_fun>
 800792c:	f100 3cff 	add.w	ip, r0, #4294967295
 8007930:	fa5f fc8c 	uxtb.w	ip, ip
 8007934:	f1bc 0f18 	cmp.w	ip, #24
 8007938:	f04f 030a 	mov.w	r3, #10
 800793c:	d91e      	bls.n	800797c <__gethex+0x120>
 800793e:	b104      	cbz	r4, 8007942 <__gethex+0xe6>
 8007940:	4252      	negs	r2, r2
 8007942:	4417      	add	r7, r2
 8007944:	f8ca 1000 	str.w	r1, [sl]
 8007948:	b1ed      	cbz	r5, 8007986 <__gethex+0x12a>
 800794a:	f1bb 0f00 	cmp.w	fp, #0
 800794e:	bf0c      	ite	eq
 8007950:	2506      	moveq	r5, #6
 8007952:	2500      	movne	r5, #0
 8007954:	4628      	mov	r0, r5
 8007956:	b005      	add	sp, #20
 8007958:	e8bd 8ff0 	ldmia.w	sp!, {r4, r5, r6, r7, r8, r9, sl, fp, pc}
 800795c:	2500      	movs	r5, #0
 800795e:	462c      	mov	r4, r5
 8007960:	e7b0      	b.n	80078c4 <__gethex+0x68>
 8007962:	2c00      	cmp	r4, #0
 8007964:	d1c7      	bne.n	80078f6 <__gethex+0x9a>
 8007966:	4627      	mov	r7, r4
 8007968:	e7c7      	b.n	80078fa <__gethex+0x9e>
 800796a:	464e      	mov	r6, r9
 800796c:	462f      	mov	r7, r5
 800796e:	2501      	movs	r5, #1
 8007970:	e7c3      	b.n	80078fa <__gethex+0x9e>
 8007972:	2400      	movs	r4, #0
 8007974:	1cb1      	adds	r1, r6, #2
 8007976:	e7cc      	b.n	8007912 <__gethex+0xb6>
 8007978:	2401      	movs	r4, #1
 800797a:	e7fb      	b.n	8007974 <__gethex+0x118>
 800797c:	fb03 0002 	mla	r0, r3, r2, r0
 8007980:	e7ce      	b.n	8007920 <__gethex+0xc4>
 8007982:	4631      	mov	r1, r6
 8007984:	e7de      	b.n	8007944 <__gethex+0xe8>
 8007986:	eba6 0309 	sub.w	r3, r6, r9
 800798a:	3b01      	subs	r3, #1
 800798c:	4629      	mov	r1, r5
 800798e:	2b07      	cmp	r3, #7
 8007990:	dc0a      	bgt.n	80079a8 <__gethex+0x14c>
 8007992:	9801      	ldr	r0, [sp, #4]
 8007994:	f7fe f944 	bl	8005c20 <_Balloc>
 8007998:	4604      	mov	r4, r0
 800799a:	b940      	cbnz	r0, 80079ae <__gethex+0x152>
 800799c:	4b5c      	ldr	r3, [pc, #368]	@ (8007b10 <__gethex+0x2b4>)
 800799e:	4602      	mov	r2, r0
 80079a0:	21e4      	movs	r1, #228	@ 0xe4
 80079a2:	485c      	ldr	r0, [pc, #368]	@ (8007b14 <__gethex+0x2b8>)
 80079a4:	f7ff fec0 	bl	8007728 <__assert_func>
 80079a8:	3101      	adds	r1, #1
 80079aa:	105b      	asrs	r3, r3, #1
 80079ac:	e7ef      	b.n	800798e <__gethex+0x132>
 80079ae:	f100 0a14 	add.w	sl, r0, #20
 80079b2:	2300      	movs	r3, #0
 80079b4:	4655      	mov	r5, sl
 80079b6:	469b      	mov	fp, r3
 80079b8:	45b1      	cmp	r9, r6
 80079ba:	d337      	bcc.n	8007a2c <__gethex+0x1d0>
 80079bc:	f845 bb04 	str.w	fp, [r5], #4
 80079c0:	eba5 050a 	sub.w	r5, r5, sl
 80079c4:	10ad      	asrs	r5, r5, #2
 80079c6:	6125      	str	r5, [r4, #16]
 80079c8:	4658      	mov	r0, fp
 80079ca:	f7fe fa1b 	bl	8005e04 <__hi0bits>
 80079ce:	016d      	lsls	r5, r5, #5
 80079d0:	f8d8 6000 	ldr.w	r6, [r8]
 80079d4:	1a2d      	subs	r5, r5, r0
 80079d6:	42b5      	cmp	r5, r6
 80079d8:	dd54      	ble.n	8007a84 <__gethex+0x228>
 80079da:	1bad      	subs	r5, r5, r6
 80079dc:	4629      	mov	r1, r5
 80079de:	4620      	mov	r0, r4
 80079e0:	f7fe fda7 	bl	8006532 <__any_on>
 80079e4:	4681      	mov	r9, r0
 80079e6:	b178      	cbz	r0, 8007a08 <__gethex+0x1ac>
 80079e8:	1e6b      	subs	r3, r5, #1
 80079ea:	1159      	asrs	r1, r3, #5
 80079ec:	f003 021f 	and.w	r2, r3, #31
 80079f0:	f85a 1021 	ldr.w	r1, [sl, r1, lsl #2]
 80079f4:	f04f 0901 	mov.w	r9, #1
 80079f8:	fa09 f202 	lsl.w	r2, r9, r2
 80079fc:	420a      	tst	r2, r1
 80079fe:	d003      	beq.n	8007a08 <__gethex+0x1ac>
 8007a00:	454b      	cmp	r3, r9
 8007a02:	dc36      	bgt.n	8007a72 <__gethex+0x216>
 8007a04:	f04f 0902 	mov.w	r9, #2
 8007a08:	4629      	mov	r1, r5
 8007a0a:	4620      	mov	r0, r4
 8007a0c:	f7ff febe 	bl	800778c <rshift>
 8007a10:	442f      	add	r7, r5
 8007a12:	f8d8 3008 	ldr.w	r3, [r8, #8]
 8007a16:	42bb      	cmp	r3, r7
 8007a18:	da42      	bge.n	8007aa0 <__gethex+0x244>
 8007a1a:	9801      	ldr	r0, [sp, #4]
 8007a1c:	4621      	mov	r1, r4
 8007a1e:	f7fe f93f 	bl	8005ca0 <_Bfree>
 8007a22:	9a0e      	ldr	r2, [sp, #56]	@ 0x38
 8007a24:	2300      	movs	r3, #0
 8007a26:	6013      	str	r3, [r2, #0]
 8007a28:	25a3      	movs	r5, #163	@ 0xa3
 8007a2a:	e793      	b.n	8007954 <__gethex+0xf8>
 8007a2c:	f816 2d01 	ldrb.w	r2, [r6, #-1]!
 8007a30:	2a2e      	cmp	r2, #46	@ 0x2e
 8007a32:	d012      	beq.n	8007a5a <__gethex+0x1fe>
 8007a34:	2b20      	cmp	r3, #32
 8007a36:	d104      	bne.n	8007a42 <__gethex+0x1e6>
 8007a38:	f845 bb04 	str.w	fp, [r5], #4
 8007a3c:	f04f 0b00 	mov.w	fp, #0
 8007a40:	465b      	mov	r3, fp
 8007a42:	7830      	ldrb	r0, [r6, #0]
 8007a44:	9303      	str	r3, [sp, #12]
 8007a46:	f7ff fef3 	bl	8007830 <__hexdig_fun>
 8007a4a:	9b03      	ldr	r3, [sp, #12]
 8007a4c:	f000 000f 	and.w	r0, r0, #15
 8007a50:	4098      	lsls	r0, r3
 8007a52:	ea4b 0b00 	orr.w	fp, fp, r0
 8007a56:	3304      	adds	r3, #4
 8007a58:	e7ae      	b.n	80079b8 <__gethex+0x15c>
 8007a5a:	45b1      	cmp	r9, r6
 8007a5c:	d8ea      	bhi.n	8007a34 <__gethex+0x1d8>
 8007a5e:	492b      	ldr	r1, [pc, #172]	@ (8007b0c <__gethex+0x2b0>)
 8007a60:	9303      	str	r3, [sp, #12]
 8007a62:	2201      	movs	r2, #1
 8007a64:	4630      	mov	r0, r6
 8007a66:	f7ff fe27 	bl	80076b8 <strncmp>
 8007a6a:	9b03      	ldr	r3, [sp, #12]
 8007a6c:	2800      	cmp	r0, #0
 8007a6e:	d1e1      	bne.n	8007a34 <__gethex+0x1d8>
 8007a70:	e7a2      	b.n	80079b8 <__gethex+0x15c>
 8007a72:	1ea9      	subs	r1, r5, #2
 8007a74:	4620      	mov	r0, r4
 8007a76:	f7fe fd5c 	bl	8006532 <__any_on>
 8007a7a:	2800      	cmp	r0, #0
 8007a7c:	d0c2      	beq.n	8007a04 <__gethex+0x1a8>
 8007a7e:	f04f 0903 	mov.w	r9, #3
 8007a82:	e7c1      	b.n	8007a08 <__gethex+0x1ac>
 8007a84:	da09      	bge.n	8007a9a <__gethex+0x23e>
 8007a86:	1b75      	subs	r5, r6, r5
 8007a88:	4621      	mov	r1, r4
 8007a8a:	9801      	ldr	r0, [sp, #4]
 8007a8c:	462a      	mov	r2, r5
 8007a8e:	f7fe fb17 	bl	80060c0 <__lshift>
 8007a92:	1b7f      	subs	r7, r7, r5
 8007a94:	4604      	mov	r4, r0
 8007a96:	f100 0a14 	add.w	sl, r0, #20
 8007a9a:	f04f 0900 	mov.w	r9, #0
 8007a9e:	e7b8      	b.n	8007a12 <__gethex+0x1b6>
 8007aa0:	f8d8 5004 	ldr.w	r5, [r8, #4]
 8007aa4:	42bd      	cmp	r5, r7
 8007aa6:	dd6f      	ble.n	8007b88 <__gethex+0x32c>
 8007aa8:	1bed      	subs	r5, r5, r7
 8007aaa:	42ae      	cmp	r6, r5
 8007aac:	dc34      	bgt.n	8007b18 <__gethex+0x2bc>
 8007aae:	f8d8 300c 	ldr.w	r3, [r8, #12]
 8007ab2:	2b02      	cmp	r3, #2
 8007ab4:	d022      	beq.n	8007afc <__gethex+0x2a0>
 8007ab6:	2b03      	cmp	r3, #3
 8007ab8:	d024      	beq.n	8007b04 <__gethex+0x2a8>
 8007aba:	2b01      	cmp	r3, #1
 8007abc:	d115      	bne.n	8007aea <__gethex+0x28e>
 8007abe:	42ae      	cmp	r6, r5
 8007ac0:	d113      	bne.n	8007aea <__gethex+0x28e>
 8007ac2:	2e01      	cmp	r6, #1
 8007ac4:	d10b      	bne.n	8007ade <__gethex+0x282>
 8007ac6:	9a02      	ldr	r2, [sp, #8]
 8007ac8:	f8d8 3004 	ldr.w	r3, [r8, #4]
 8007acc:	6013      	str	r3, [r2, #0]
 8007ace:	2301      	movs	r3, #1
 8007ad0:	6123      	str	r3, [r4, #16]
 8007ad2:	f8ca 3000 	str.w	r3, [sl]
 8007ad6:	9b0e      	ldr	r3, [sp, #56]	@ 0x38
 8007ad8:	2562      	movs	r5, #98	@ 0x62
 8007ada:	601c      	str	r4, [r3, #0]
 8007adc:	e73a      	b.n	8007954 <__gethex+0xf8>
 8007ade:	1e71      	subs	r1, r6, #1
 8007ae0:	4620      	mov	r0, r4
 8007ae2:	f7fe fd26 	bl	8006532 <__any_on>
 8007ae6:	2800      	cmp	r0, #0
 8007ae8:	d1ed      	bne.n	8007ac6 <__gethex+0x26a>
 8007aea:	9801      	ldr	r0, [sp, #4]
 8007aec:	4621      	mov	r1, r4
 8007aee:	f7fe f8d7 	bl	8005ca0 <_Bfree>
 8007af2:	9a0e      	ldr	r2, [sp, #56]	@ 0x38
 8007af4:	2300      	movs	r3, #0
 8007af6:	6013      	str	r3, [r2, #0]
 8007af8:	2550      	movs	r5, #80	@ 0x50
 8007afa:	e72b      	b.n	8007954 <__gethex+0xf8>
 8007afc:	9b0f      	ldr	r3, [sp, #60]	@ 0x3c
 8007afe:	2b00      	cmp	r3, #0
 8007b00:	d1f3      	bne.n	8007aea <__gethex+0x28e>
 8007b02:	e7e0      	b.n	8007ac6 <__gethex+0x26a>
 8007b04:	9b0f      	ldr	r3, [sp, #60]	@ 0x3c
 8007b06:	2b00      	cmp	r3, #0
 8007b08:	d1dd      	bne.n	8007ac6 <__gethex+0x26a>
 8007b0a:	e7ee      	b.n	8007aea <__gethex+0x28e>
 8007b0c:	0800858f 	.word	0x0800858f
 8007b10:	08008525 	.word	0x08008525
 8007b14:	080085e6 	.word	0x080085e6
 8007b18:	1e6f      	subs	r7, r5, #1
 8007b1a:	f1b9 0f00 	cmp.w	r9, #0
 8007b1e:	d130      	bne.n	8007b82 <__gethex+0x326>
 8007b20:	b127      	cbz	r7, 8007b2c <__gethex+0x2d0>
 8007b22:	4639      	mov	r1, r7
 8007b24:	4620      	mov	r0, r4
 8007b26:	f7fe fd04 	bl	8006532 <__any_on>
 8007b2a:	4681      	mov	r9, r0
 8007b2c:	117a      	asrs	r2, r7, #5
 8007b2e:	2301      	movs	r3, #1
 8007b30:	f85a 2022 	ldr.w	r2, [sl, r2, lsl #2]
 8007b34:	f007 071f 	and.w	r7, r7, #31
 8007b38:	40bb      	lsls	r3, r7
 8007b3a:	4213      	tst	r3, r2
 8007b3c:	4629      	mov	r1, r5
 8007b3e:	4620      	mov	r0, r4
 8007b40:	bf18      	it	ne
 8007b42:	f049 0902 	orrne.w	r9, r9, #2
 8007b46:	f7ff fe21 	bl	800778c <rshift>
 8007b4a:	f8d8 7004 	ldr.w	r7, [r8, #4]
 8007b4e:	1b76      	subs	r6, r6, r5
 8007b50:	2502      	movs	r5, #2
 8007b52:	f1b9 0f00 	cmp.w	r9, #0
 8007b56:	d047      	beq.n	8007be8 <__gethex+0x38c>
 8007b58:	f8d8 300c 	ldr.w	r3, [r8, #12]
 8007b5c:	2b02      	cmp	r3, #2
 8007b5e:	d015      	beq.n	8007b8c <__gethex+0x330>
 8007b60:	2b03      	cmp	r3, #3
 8007b62:	d017      	beq.n	8007b94 <__gethex+0x338>
 8007b64:	2b01      	cmp	r3, #1
 8007b66:	d109      	bne.n	8007b7c <__gethex+0x320>
 8007b68:	f019 0f02 	tst.w	r9, #2
 8007b6c:	d006      	beq.n	8007b7c <__gethex+0x320>
 8007b6e:	f8da 3000 	ldr.w	r3, [sl]
 8007b72:	ea49 0903 	orr.w	r9, r9, r3
 8007b76:	f019 0f01 	tst.w	r9, #1
 8007b7a:	d10e      	bne.n	8007b9a <__gethex+0x33e>
 8007b7c:	f045 0510 	orr.w	r5, r5, #16
 8007b80:	e032      	b.n	8007be8 <__gethex+0x38c>
 8007b82:	f04f 0901 	mov.w	r9, #1
 8007b86:	e7d1      	b.n	8007b2c <__gethex+0x2d0>
 8007b88:	2501      	movs	r5, #1
 8007b8a:	e7e2      	b.n	8007b52 <__gethex+0x2f6>
 8007b8c:	9b0f      	ldr	r3, [sp, #60]	@ 0x3c
 8007b8e:	f1c3 0301 	rsb	r3, r3, #1
 8007b92:	930f      	str	r3, [sp, #60]	@ 0x3c
 8007b94:	9b0f      	ldr	r3, [sp, #60]	@ 0x3c
 8007b96:	2b00      	cmp	r3, #0
 8007b98:	d0f0      	beq.n	8007b7c <__gethex+0x320>
 8007b9a:	f8d4 b010 	ldr.w	fp, [r4, #16]
 8007b9e:	f104 0314 	add.w	r3, r4, #20
 8007ba2:	ea4f 0a8b 	mov.w	sl, fp, lsl #2
 8007ba6:	eb03 018b 	add.w	r1, r3, fp, lsl #2
 8007baa:	f04f 0c00 	mov.w	ip, #0
 8007bae:	4618      	mov	r0, r3
 8007bb0:	f853 2b04 	ldr.w	r2, [r3], #4
 8007bb4:	f1b2 3fff 	cmp.w	r2, #4294967295
 8007bb8:	d01b      	beq.n	8007bf2 <__gethex+0x396>
 8007bba:	3201      	adds	r2, #1
 8007bbc:	6002      	str	r2, [r0, #0]
 8007bbe:	2d02      	cmp	r5, #2
 8007bc0:	f104 0314 	add.w	r3, r4, #20
 8007bc4:	d13c      	bne.n	8007c40 <__gethex+0x3e4>
 8007bc6:	f8d8 2000 	ldr.w	r2, [r8]
 8007bca:	3a01      	subs	r2, #1
 8007bcc:	42b2      	cmp	r2, r6
 8007bce:	d109      	bne.n	8007be4 <__gethex+0x388>
 8007bd0:	1171      	asrs	r1, r6, #5
 8007bd2:	2201      	movs	r2, #1
 8007bd4:	f853 3021 	ldr.w	r3, [r3, r1, lsl #2]
 8007bd8:	f006 061f 	and.w	r6, r6, #31
 8007bdc:	fa02 f606 	lsl.w	r6, r2, r6
 8007be0:	421e      	tst	r6, r3
 8007be2:	d13a      	bne.n	8007c5a <__gethex+0x3fe>
 8007be4:	f045 0520 	orr.w	r5, r5, #32
 8007be8:	9b0e      	ldr	r3, [sp, #56]	@ 0x38
 8007bea:	601c      	str	r4, [r3, #0]
 8007bec:	9b02      	ldr	r3, [sp, #8]
 8007bee:	601f      	str	r7, [r3, #0]
 8007bf0:	e6b0      	b.n	8007954 <__gethex+0xf8>
 8007bf2:	4299      	cmp	r1, r3
 8007bf4:	f843 cc04 	str.w	ip, [r3, #-4]
 8007bf8:	d8d9      	bhi.n	8007bae <__gethex+0x352>
 8007bfa:	68a3      	ldr	r3, [r4, #8]
 8007bfc:	459b      	cmp	fp, r3
 8007bfe:	db17      	blt.n	8007c30 <__gethex+0x3d4>
 8007c00:	6861      	ldr	r1, [r4, #4]
 8007c02:	9801      	ldr	r0, [sp, #4]
 8007c04:	3101      	adds	r1, #1
 8007c06:	f7fe f80b 	bl	8005c20 <_Balloc>
 8007c0a:	4681      	mov	r9, r0
 8007c0c:	b918      	cbnz	r0, 8007c16 <__gethex+0x3ba>
 8007c0e:	4b1a      	ldr	r3, [pc, #104]	@ (8007c78 <__gethex+0x41c>)
 8007c10:	4602      	mov	r2, r0
 8007c12:	2184      	movs	r1, #132	@ 0x84
 8007c14:	e6c5      	b.n	80079a2 <__gethex+0x146>
 8007c16:	6922      	ldr	r2, [r4, #16]
 8007c18:	3202      	adds	r2, #2
 8007c1a:	f104 010c 	add.w	r1, r4, #12
 8007c1e:	0092      	lsls	r2, r2, #2
 8007c20:	300c      	adds	r0, #12
 8007c22:	f7ff fd6b 	bl	80076fc <memcpy>
 8007c26:	4621      	mov	r1, r4
 8007c28:	9801      	ldr	r0, [sp, #4]
 8007c2a:	f7fe f839 	bl	8005ca0 <_Bfree>
 8007c2e:	464c      	mov	r4, r9
 8007c30:	6923      	ldr	r3, [r4, #16]
 8007c32:	1c5a      	adds	r2, r3, #1
 8007c34:	eb04 0383 	add.w	r3, r4, r3, lsl #2
 8007c38:	6122      	str	r2, [r4, #16]
 8007c3a:	2201      	movs	r2, #1
 8007c3c:	615a      	str	r2, [r3, #20]
 8007c3e:	e7be      	b.n	8007bbe <__gethex+0x362>
 8007c40:	6922      	ldr	r2, [r4, #16]
 8007c42:	455a      	cmp	r2, fp
 8007c44:	dd0b      	ble.n	8007c5e <__gethex+0x402>
 8007c46:	2101      	movs	r1, #1
 8007c48:	4620      	mov	r0, r4
 8007c4a:	f7ff fd9f 	bl	800778c <rshift>
 8007c4e:	f8d8 3008 	ldr.w	r3, [r8, #8]
 8007c52:	3701      	adds	r7, #1
 8007c54:	42bb      	cmp	r3, r7
 8007c56:	f6ff aee0 	blt.w	8007a1a <__gethex+0x1be>
 8007c5a:	2501      	movs	r5, #1
 8007c5c:	e7c2      	b.n	8007be4 <__gethex+0x388>
 8007c5e:	f016 061f 	ands.w	r6, r6, #31
 8007c62:	d0fa      	beq.n	8007c5a <__gethex+0x3fe>
 8007c64:	4453      	add	r3, sl
 8007c66:	f1c6 0620 	rsb	r6, r6, #32
 8007c6a:	f853 0c04 	ldr.w	r0, [r3, #-4]
 8007c6e:	f7fe f8c9 	bl	8005e04 <__hi0bits>
 8007c72:	42b0      	cmp	r0, r6
 8007c74:	dbe7      	blt.n	8007c46 <__gethex+0x3ea>
 8007c76:	e7f0      	b.n	8007c5a <__gethex+0x3fe>
 8007c78:	08008525 	.word	0x08008525

08007c7c <L_shift>:
 8007c7c:	f1c2 0208 	rsb	r2, r2, #8
 8007c80:	0092      	lsls	r2, r2, #2
 8007c82:	b570      	push	{r4, r5, r6, lr}
 8007c84:	f1c2 0620 	rsb	r6, r2, #32
 8007c88:	6843      	ldr	r3, [r0, #4]
 8007c8a:	6804      	ldr	r4, [r0, #0]
 8007c8c:	fa03 f506 	lsl.w	r5, r3, r6
 8007c90:	432c      	orrs	r4, r5
 8007c92:	40d3      	lsrs	r3, r2
 8007c94:	6004      	str	r4, [r0, #0]
 8007c96:	f840 3f04 	str.w	r3, [r0, #4]!
 8007c9a:	4288      	cmp	r0, r1
 8007c9c:	d3f4      	bcc.n	8007c88 <L_shift+0xc>
 8007c9e:	bd70      	pop	{r4, r5, r6, pc}

08007ca0 <__match>:
 8007ca0:	b530      	push	{r4, r5, lr}
 8007ca2:	6803      	ldr	r3, [r0, #0]
 8007ca4:	3301      	adds	r3, #1
 8007ca6:	f811 4b01 	ldrb.w	r4, [r1], #1
 8007caa:	b914      	cbnz	r4, 8007cb2 <__match+0x12>
 8007cac:	6003      	str	r3, [r0, #0]
 8007cae:	2001      	movs	r0, #1
 8007cb0:	bd30      	pop	{r4, r5, pc}
 8007cb2:	f813 2b01 	ldrb.w	r2, [r3], #1
 8007cb6:	f1a2 0541 	sub.w	r5, r2, #65	@ 0x41
 8007cba:	2d19      	cmp	r5, #25
 8007cbc:	bf98      	it	ls
 8007cbe:	3220      	addls	r2, #32
 8007cc0:	42a2      	cmp	r2, r4
 8007cc2:	d0f0      	beq.n	8007ca6 <__match+0x6>
 8007cc4:	2000      	movs	r0, #0
 8007cc6:	e7f3      	b.n	8007cb0 <__match+0x10>

08007cc8 <__hexnan>:
 8007cc8:	e92d 4ff0 	stmdb	sp!, {r4, r5, r6, r7, r8, r9, sl, fp, lr}
 8007ccc:	680b      	ldr	r3, [r1, #0]
 8007cce:	6801      	ldr	r1, [r0, #0]
 8007cd0:	115e      	asrs	r6, r3, #5
 8007cd2:	eb02 0686 	add.w	r6, r2, r6, lsl #2
 8007cd6:	f013 031f 	ands.w	r3, r3, #31
 8007cda:	b087      	sub	sp, #28
 8007cdc:	bf18      	it	ne
 8007cde:	3604      	addne	r6, #4
 8007ce0:	2500      	movs	r5, #0
 8007ce2:	1f37      	subs	r7, r6, #4
 8007ce4:	4682      	mov	sl, r0
 8007ce6:	4690      	mov	r8, r2
 8007ce8:	9301      	str	r3, [sp, #4]
 8007cea:	f846 5c04 	str.w	r5, [r6, #-4]
 8007cee:	46b9      	mov	r9, r7
 8007cf0:	463c      	mov	r4, r7
 8007cf2:	9502      	str	r5, [sp, #8]
 8007cf4:	46ab      	mov	fp, r5
 8007cf6:	784a      	ldrb	r2, [r1, #1]
 8007cf8:	1c4b      	adds	r3, r1, #1
 8007cfa:	9303      	str	r3, [sp, #12]
 8007cfc:	b342      	cbz	r2, 8007d50 <__hexnan+0x88>
 8007cfe:	4610      	mov	r0, r2
 8007d00:	9105      	str	r1, [sp, #20]
 8007d02:	9204      	str	r2, [sp, #16]
 8007d04:	f7ff fd94 	bl	8007830 <__hexdig_fun>
 8007d08:	2800      	cmp	r0, #0
 8007d0a:	d151      	bne.n	8007db0 <__hexnan+0xe8>
 8007d0c:	9a04      	ldr	r2, [sp, #16]
 8007d0e:	9905      	ldr	r1, [sp, #20]
 8007d10:	2a20      	cmp	r2, #32
 8007d12:	d818      	bhi.n	8007d46 <__hexnan+0x7e>
 8007d14:	9b02      	ldr	r3, [sp, #8]
 8007d16:	459b      	cmp	fp, r3
 8007d18:	dd13      	ble.n	8007d42 <__hexnan+0x7a>
 8007d1a:	454c      	cmp	r4, r9
 8007d1c:	d206      	bcs.n	8007d2c <__hexnan+0x64>
 8007d1e:	2d07      	cmp	r5, #7
 8007d20:	dc04      	bgt.n	8007d2c <__hexnan+0x64>
 8007d22:	462a      	mov	r2, r5
 8007d24:	4649      	mov	r1, r9
 8007d26:	4620      	mov	r0, r4
 8007d28:	f7ff ffa8 	bl	8007c7c <L_shift>
 8007d2c:	4544      	cmp	r4, r8
 8007d2e:	d952      	bls.n	8007dd6 <__hexnan+0x10e>
 8007d30:	2300      	movs	r3, #0
 8007d32:	f1a4 0904 	sub.w	r9, r4, #4
 8007d36:	f844 3c04 	str.w	r3, [r4, #-4]
 8007d3a:	f8cd b008 	str.w	fp, [sp, #8]
 8007d3e:	464c      	mov	r4, r9
 8007d40:	461d      	mov	r5, r3
 8007d42:	9903      	ldr	r1, [sp, #12]
 8007d44:	e7d7      	b.n	8007cf6 <__hexnan+0x2e>
 8007d46:	2a29      	cmp	r2, #41	@ 0x29
 8007d48:	d157      	bne.n	8007dfa <__hexnan+0x132>
 8007d4a:	3102      	adds	r1, #2
 8007d4c:	f8ca 1000 	str.w	r1, [sl]
 8007d50:	f1bb 0f00 	cmp.w	fp, #0
 8007d54:	d051      	beq.n	8007dfa <__hexnan+0x132>
 8007d56:	454c      	cmp	r4, r9
 8007d58:	d206      	bcs.n	8007d68 <__hexnan+0xa0>
 8007d5a:	2d07      	cmp	r5, #7
 8007d5c:	dc04      	bgt.n	8007d68 <__hexnan+0xa0>
 8007d5e:	462a      	mov	r2, r5
 8007d60:	4649      	mov	r1, r9
 8007d62:	4620      	mov	r0, r4
 8007d64:	f7ff ff8a 	bl	8007c7c <L_shift>
 8007d68:	4544      	cmp	r4, r8
 8007d6a:	d936      	bls.n	8007dda <__hexnan+0x112>
 8007d6c:	f1a8 0204 	sub.w	r2, r8, #4
 8007d70:	4623      	mov	r3, r4
 8007d72:	f853 1b04 	ldr.w	r1, [r3], #4
 8007d76:	f842 1f04 	str.w	r1, [r2, #4]!
 8007d7a:	429f      	cmp	r7, r3
 8007d7c:	d2f9      	bcs.n	8007d72 <__hexnan+0xaa>
 8007d7e:	1b3b      	subs	r3, r7, r4
 8007d80:	f023 0303 	bic.w	r3, r3, #3
 8007d84:	3304      	adds	r3, #4
 8007d86:	3401      	adds	r4, #1
 8007d88:	3e03      	subs	r6, #3
 8007d8a:	42b4      	cmp	r4, r6
 8007d8c:	bf88      	it	hi
 8007d8e:	2304      	movhi	r3, #4
 8007d90:	4443      	add	r3, r8
 8007d92:	2200      	movs	r2, #0
 8007d94:	f843 2b04 	str.w	r2, [r3], #4
 8007d98:	429f      	cmp	r7, r3
 8007d9a:	d2fb      	bcs.n	8007d94 <__hexnan+0xcc>
 8007d9c:	683b      	ldr	r3, [r7, #0]
 8007d9e:	b91b      	cbnz	r3, 8007da8 <__hexnan+0xe0>
 8007da0:	4547      	cmp	r7, r8
 8007da2:	d128      	bne.n	8007df6 <__hexnan+0x12e>
 8007da4:	2301      	movs	r3, #1
 8007da6:	603b      	str	r3, [r7, #0]
 8007da8:	2005      	movs	r0, #5
 8007daa:	b007      	add	sp, #28
 8007dac:	e8bd 8ff0 	ldmia.w	sp!, {r4, r5, r6, r7, r8, r9, sl, fp, pc}
 8007db0:	3501      	adds	r5, #1
 8007db2:	2d08      	cmp	r5, #8
 8007db4:	f10b 0b01 	add.w	fp, fp, #1
 8007db8:	dd06      	ble.n	8007dc8 <__hexnan+0x100>
 8007dba:	4544      	cmp	r4, r8
 8007dbc:	d9c1      	bls.n	8007d42 <__hexnan+0x7a>
 8007dbe:	2300      	movs	r3, #0
 8007dc0:	f844 3c04 	str.w	r3, [r4, #-4]
 8007dc4:	2501      	movs	r5, #1
 8007dc6:	3c04      	subs	r4, #4
 8007dc8:	6822      	ldr	r2, [r4, #0]
 8007dca:	f000 000f 	and.w	r0, r0, #15
 8007dce:	ea40 1002 	orr.w	r0, r0, r2, lsl #4
 8007dd2:	6020      	str	r0, [r4, #0]
 8007dd4:	e7b5      	b.n	8007d42 <__hexnan+0x7a>
 8007dd6:	2508      	movs	r5, #8
 8007dd8:	e7b3      	b.n	8007d42 <__hexnan+0x7a>
 8007dda:	9b01      	ldr	r3, [sp, #4]
 8007ddc:	2b00      	cmp	r3, #0
 8007dde:	d0dd      	beq.n	8007d9c <__hexnan+0xd4>
 8007de0:	f1c3 0320 	rsb	r3, r3, #32
 8007de4:	f04f 32ff 	mov.w	r2, #4294967295
 8007de8:	40da      	lsrs	r2, r3
 8007dea:	f856 3c04 	ldr.w	r3, [r6, #-4]
 8007dee:	4013      	ands	r3, r2
 8007df0:	f846 3c04 	str.w	r3, [r6, #-4]
 8007df4:	e7d2      	b.n	8007d9c <__hexnan+0xd4>
 8007df6:	3f04      	subs	r7, #4
 8007df8:	e7d0      	b.n	8007d9c <__hexnan+0xd4>
 8007dfa:	2004      	movs	r0, #4
 8007dfc:	e7d5      	b.n	8007daa <__hexnan+0xe2>

08007dfe <__ascii_mbtowc>:
 8007dfe:	b082      	sub	sp, #8
 8007e00:	b901      	cbnz	r1, 8007e04 <__ascii_mbtowc+0x6>
 8007e02:	a901      	add	r1, sp, #4
 8007e04:	b142      	cbz	r2, 8007e18 <__ascii_mbtowc+0x1a>
 8007e06:	b14b      	cbz	r3, 8007e1c <__ascii_mbtowc+0x1e>
 8007e08:	7813      	ldrb	r3, [r2, #0]
 8007e0a:	600b      	str	r3, [r1, #0]
 8007e0c:	7812      	ldrb	r2, [r2, #0]
 8007e0e:	1e10      	subs	r0, r2, #0
 8007e10:	bf18      	it	ne
 8007e12:	2001      	movne	r0, #1
 8007e14:	b002      	add	sp, #8
 8007e16:	4770      	bx	lr
 8007e18:	4610      	mov	r0, r2
 8007e1a:	e7fb      	b.n	8007e14 <__ascii_mbtowc+0x16>
 8007e1c:	f06f 0001 	mvn.w	r0, #1
 8007e20:	e7f8      	b.n	8007e14 <__ascii_mbtowc+0x16>

08007e22 <_realloc_r>:
 8007e22:	e92d 41f0 	stmdb	sp!, {r4, r5, r6, r7, r8, lr}
 8007e26:	4607      	mov	r7, r0
 8007e28:	4614      	mov	r4, r2
 8007e2a:	460d      	mov	r5, r1
 8007e2c:	b921      	cbnz	r1, 8007e38 <_realloc_r+0x16>
 8007e2e:	e8bd 41f0 	ldmia.w	sp!, {r4, r5, r6, r7, r8, lr}
 8007e32:	4611      	mov	r1, r2
 8007e34:	f7fd be68 	b.w	8005b08 <_malloc_r>
 8007e38:	b92a      	cbnz	r2, 8007e46 <_realloc_r+0x24>
 8007e3a:	f7fd fdf1 	bl	8005a20 <_free_r>
 8007e3e:	4625      	mov	r5, r4
 8007e40:	4628      	mov	r0, r5
 8007e42:	e8bd 81f0 	ldmia.w	sp!, {r4, r5, r6, r7, r8, pc}
 8007e46:	f000 f840 	bl	8007eca <_malloc_usable_size_r>
 8007e4a:	4284      	cmp	r4, r0
 8007e4c:	4606      	mov	r6, r0
 8007e4e:	d802      	bhi.n	8007e56 <_realloc_r+0x34>
 8007e50:	ebb4 0f50 	cmp.w	r4, r0, lsr #1
 8007e54:	d8f4      	bhi.n	8007e40 <_realloc_r+0x1e>
 8007e56:	4621      	mov	r1, r4
 8007e58:	4638      	mov	r0, r7
 8007e5a:	f7fd fe55 	bl	8005b08 <_malloc_r>
 8007e5e:	4680      	mov	r8, r0
 8007e60:	b908      	cbnz	r0, 8007e66 <_realloc_r+0x44>
 8007e62:	4645      	mov	r5, r8
 8007e64:	e7ec      	b.n	8007e40 <_realloc_r+0x1e>
 8007e66:	42b4      	cmp	r4, r6
 8007e68:	4622      	mov	r2, r4
 8007e6a:	4629      	mov	r1, r5
 8007e6c:	bf28      	it	cs
 8007e6e:	4632      	movcs	r2, r6
 8007e70:	f7ff fc44 	bl	80076fc <memcpy>
 8007e74:	4629      	mov	r1, r5
 8007e76:	4638      	mov	r0, r7
 8007e78:	f7fd fdd2 	bl	8005a20 <_free_r>
 8007e7c:	e7f1      	b.n	8007e62 <_realloc_r+0x40>

08007e7e <__ascii_wctomb>:
 8007e7e:	4603      	mov	r3, r0
 8007e80:	4608      	mov	r0, r1
 8007e82:	b141      	cbz	r1, 8007e96 <__ascii_wctomb+0x18>
 8007e84:	2aff      	cmp	r2, #255	@ 0xff
 8007e86:	d904      	bls.n	8007e92 <__ascii_wctomb+0x14>
 8007e88:	228a      	movs	r2, #138	@ 0x8a
 8007e8a:	601a      	str	r2, [r3, #0]
 8007e8c:	f04f 30ff 	mov.w	r0, #4294967295
 8007e90:	4770      	bx	lr
 8007e92:	700a      	strb	r2, [r1, #0]
 8007e94:	2001      	movs	r0, #1
 8007e96:	4770      	bx	lr

08007e98 <fiprintf>:
 8007e98:	b40e      	push	{r1, r2, r3}
 8007e9a:	b503      	push	{r0, r1, lr}
 8007e9c:	4601      	mov	r1, r0
 8007e9e:	ab03      	add	r3, sp, #12
 8007ea0:	4805      	ldr	r0, [pc, #20]	@ (8007eb8 <fiprintf+0x20>)
 8007ea2:	f853 2b04 	ldr.w	r2, [r3], #4
 8007ea6:	6800      	ldr	r0, [r0, #0]
 8007ea8:	9301      	str	r3, [sp, #4]
 8007eaa:	f000 f83f 	bl	8007f2c <_vfiprintf_r>
 8007eae:	b002      	add	sp, #8
 8007eb0:	f85d eb04 	ldr.w	lr, [sp], #4
 8007eb4:	b003      	add	sp, #12
 8007eb6:	4770      	bx	lr
 8007eb8:	20000018 	.word	0x20000018

08007ebc <abort>:
 8007ebc:	b508      	push	{r3, lr}
 8007ebe:	2006      	movs	r0, #6
 8007ec0:	f000 fa08 	bl	80082d4 <raise>
 8007ec4:	2001      	movs	r0, #1
 8007ec6:	f7f9 fb83 	bl	80015d0 <_exit>

08007eca <_malloc_usable_size_r>:
 8007eca:	f851 3c04 	ldr.w	r3, [r1, #-4]
 8007ece:	1f18      	subs	r0, r3, #4
 8007ed0:	2b00      	cmp	r3, #0
 8007ed2:	bfbc      	itt	lt
 8007ed4:	580b      	ldrlt	r3, [r1, r0]
 8007ed6:	18c0      	addlt	r0, r0, r3
 8007ed8:	4770      	bx	lr

08007eda <__sfputc_r>:
 8007eda:	6893      	ldr	r3, [r2, #8]
 8007edc:	3b01      	subs	r3, #1
 8007ede:	2b00      	cmp	r3, #0
 8007ee0:	b410      	push	{r4}
 8007ee2:	6093      	str	r3, [r2, #8]
 8007ee4:	da08      	bge.n	8007ef8 <__sfputc_r+0x1e>
 8007ee6:	6994      	ldr	r4, [r2, #24]
 8007ee8:	42a3      	cmp	r3, r4
 8007eea:	db01      	blt.n	8007ef0 <__sfputc_r+0x16>
 8007eec:	290a      	cmp	r1, #10
 8007eee:	d103      	bne.n	8007ef8 <__sfputc_r+0x1e>
 8007ef0:	f85d 4b04 	ldr.w	r4, [sp], #4
 8007ef4:	f000 b932 	b.w	800815c <__swbuf_r>
 8007ef8:	6813      	ldr	r3, [r2, #0]
 8007efa:	1c58      	adds	r0, r3, #1
 8007efc:	6010      	str	r0, [r2, #0]
 8007efe:	7019      	strb	r1, [r3, #0]
 8007f00:	4608      	mov	r0, r1
 8007f02:	f85d 4b04 	ldr.w	r4, [sp], #4
 8007f06:	4770      	bx	lr

08007f08 <__sfputs_r>:
 8007f08:	b5f8      	push	{r3, r4, r5, r6, r7, lr}
 8007f0a:	4606      	mov	r6, r0
 8007f0c:	460f      	mov	r7, r1
 8007f0e:	4614      	mov	r4, r2
 8007f10:	18d5      	adds	r5, r2, r3
 8007f12:	42ac      	cmp	r4, r5
 8007f14:	d101      	bne.n	8007f1a <__sfputs_r+0x12>
 8007f16:	2000      	movs	r0, #0
 8007f18:	e007      	b.n	8007f2a <__sfputs_r+0x22>
 8007f1a:	f814 1b01 	ldrb.w	r1, [r4], #1
 8007f1e:	463a      	mov	r2, r7
 8007f20:	4630      	mov	r0, r6
 8007f22:	f7ff ffda 	bl	8007eda <__sfputc_r>
 8007f26:	1c43      	adds	r3, r0, #1
 8007f28:	d1f3      	bne.n	8007f12 <__sfputs_r+0xa>
 8007f2a:	bdf8      	pop	{r3, r4, r5, r6, r7, pc}

08007f2c <_vfiprintf_r>:
 8007f2c:	e92d 4ff0 	stmdb	sp!, {r4, r5, r6, r7, r8, r9, sl, fp, lr}
 8007f30:	460d      	mov	r5, r1
 8007f32:	b09d      	sub	sp, #116	@ 0x74
 8007f34:	4614      	mov	r4, r2
 8007f36:	4698      	mov	r8, r3
 8007f38:	4606      	mov	r6, r0
 8007f3a:	b118      	cbz	r0, 8007f44 <_vfiprintf_r+0x18>
 8007f3c:	6a03      	ldr	r3, [r0, #32]
 8007f3e:	b90b      	cbnz	r3, 8007f44 <_vfiprintf_r+0x18>
 8007f40:	f7fc fdf4 	bl	8004b2c <__sinit>
 8007f44:	6e6b      	ldr	r3, [r5, #100]	@ 0x64
 8007f46:	07d9      	lsls	r1, r3, #31
 8007f48:	d405      	bmi.n	8007f56 <_vfiprintf_r+0x2a>
 8007f4a:	89ab      	ldrh	r3, [r5, #12]
 8007f4c:	059a      	lsls	r2, r3, #22
 8007f4e:	d402      	bmi.n	8007f56 <_vfiprintf_r+0x2a>
 8007f50:	6da8      	ldr	r0, [r5, #88]	@ 0x58
 8007f52:	f7fc ff04 	bl	8004d5e <__retarget_lock_acquire_recursive>
 8007f56:	89ab      	ldrh	r3, [r5, #12]
 8007f58:	071b      	lsls	r3, r3, #28
 8007f5a:	d501      	bpl.n	8007f60 <_vfiprintf_r+0x34>
 8007f5c:	692b      	ldr	r3, [r5, #16]
 8007f5e:	b99b      	cbnz	r3, 8007f88 <_vfiprintf_r+0x5c>
 8007f60:	4629      	mov	r1, r5
 8007f62:	4630      	mov	r0, r6
 8007f64:	f000 f938 	bl	80081d8 <__swsetup_r>
 8007f68:	b170      	cbz	r0, 8007f88 <_vfiprintf_r+0x5c>
 8007f6a:	6e6b      	ldr	r3, [r5, #100]	@ 0x64
 8007f6c:	07dc      	lsls	r4, r3, #31
 8007f6e:	d504      	bpl.n	8007f7a <_vfiprintf_r+0x4e>
 8007f70:	f04f 30ff 	mov.w	r0, #4294967295
 8007f74:	b01d      	add	sp, #116	@ 0x74
 8007f76:	e8bd 8ff0 	ldmia.w	sp!, {r4, r5, r6, r7, r8, r9, sl, fp, pc}
 8007f7a:	89ab      	ldrh	r3, [r5, #12]
 8007f7c:	0598      	lsls	r0, r3, #22
 8007f7e:	d4f7      	bmi.n	8007f70 <_vfiprintf_r+0x44>
 8007f80:	6da8      	ldr	r0, [r5, #88]	@ 0x58
 8007f82:	f7fc feed 	bl	8004d60 <__retarget_lock_release_recursive>
 8007f86:	e7f3      	b.n	8007f70 <_vfiprintf_r+0x44>
 8007f88:	2300      	movs	r3, #0
 8007f8a:	9309      	str	r3, [sp, #36]	@ 0x24
 8007f8c:	2320      	movs	r3, #32
 8007f8e:	f88d 3029 	strb.w	r3, [sp, #41]	@ 0x29
 8007f92:	f8cd 800c 	str.w	r8, [sp, #12]
 8007f96:	2330      	movs	r3, #48	@ 0x30
 8007f98:	f8df 81ac 	ldr.w	r8, [pc, #428]	@ 8008148 <_vfiprintf_r+0x21c>
 8007f9c:	f88d 302a 	strb.w	r3, [sp, #42]	@ 0x2a
 8007fa0:	f04f 0901 	mov.w	r9, #1
 8007fa4:	4623      	mov	r3, r4
 8007fa6:	469a      	mov	sl, r3
 8007fa8:	f813 2b01 	ldrb.w	r2, [r3], #1
 8007fac:	b10a      	cbz	r2, 8007fb2 <_vfiprintf_r+0x86>
 8007fae:	2a25      	cmp	r2, #37	@ 0x25
 8007fb0:	d1f9      	bne.n	8007fa6 <_vfiprintf_r+0x7a>
 8007fb2:	ebba 0b04 	subs.w	fp, sl, r4
 8007fb6:	d00b      	beq.n	8007fd0 <_vfiprintf_r+0xa4>
 8007fb8:	465b      	mov	r3, fp
 8007fba:	4622      	mov	r2, r4
 8007fbc:	4629      	mov	r1, r5
 8007fbe:	4630      	mov	r0, r6
 8007fc0:	f7ff ffa2 	bl	8007f08 <__sfputs_r>
 8007fc4:	3001      	adds	r0, #1
 8007fc6:	f000 80a7 	beq.w	8008118 <_vfiprintf_r+0x1ec>
 8007fca:	9a09      	ldr	r2, [sp, #36]	@ 0x24
 8007fcc:	445a      	add	r2, fp
 8007fce:	9209      	str	r2, [sp, #36]	@ 0x24
 8007fd0:	f89a 3000 	ldrb.w	r3, [sl]
 8007fd4:	2b00      	cmp	r3, #0
 8007fd6:	f000 809f 	beq.w	8008118 <_vfiprintf_r+0x1ec>
 8007fda:	2300      	movs	r3, #0
 8007fdc:	f04f 32ff 	mov.w	r2, #4294967295
 8007fe0:	e9cd 2305 	strd	r2, r3, [sp, #20]
 8007fe4:	f10a 0a01 	add.w	sl, sl, #1
 8007fe8:	9304      	str	r3, [sp, #16]
 8007fea:	9307      	str	r3, [sp, #28]
 8007fec:	f88d 3053 	strb.w	r3, [sp, #83]	@ 0x53
 8007ff0:	931a      	str	r3, [sp, #104]	@ 0x68
 8007ff2:	4654      	mov	r4, sl
 8007ff4:	2205      	movs	r2, #5
 8007ff6:	f814 1b01 	ldrb.w	r1, [r4], #1
 8007ffa:	4853      	ldr	r0, [pc, #332]	@ (8008148 <_vfiprintf_r+0x21c>)
 8007ffc:	f7f8 f910 	bl	8000220 <memchr>
 8008000:	9a04      	ldr	r2, [sp, #16]
 8008002:	b9d8      	cbnz	r0, 800803c <_vfiprintf_r+0x110>
 8008004:	06d1      	lsls	r1, r2, #27
 8008006:	bf44      	itt	mi
 8008008:	2320      	movmi	r3, #32
 800800a:	f88d 3053 	strbmi.w	r3, [sp, #83]	@ 0x53
 800800e:	0713      	lsls	r3, r2, #28
 8008010:	bf44      	itt	mi
 8008012:	232b      	movmi	r3, #43	@ 0x2b
 8008014:	f88d 3053 	strbmi.w	r3, [sp, #83]	@ 0x53
 8008018:	f89a 3000 	ldrb.w	r3, [sl]
 800801c:	2b2a      	cmp	r3, #42	@ 0x2a
 800801e:	d015      	beq.n	800804c <_vfiprintf_r+0x120>
 8008020:	9a07      	ldr	r2, [sp, #28]
 8008022:	4654      	mov	r4, sl
 8008024:	2000      	movs	r0, #0
 8008026:	f04f 0c0a 	mov.w	ip, #10
 800802a:	4621      	mov	r1, r4
 800802c:	f811 3b01 	ldrb.w	r3, [r1], #1
 8008030:	3b30      	subs	r3, #48	@ 0x30
 8008032:	2b09      	cmp	r3, #9
 8008034:	d94b      	bls.n	80080ce <_vfiprintf_r+0x1a2>
 8008036:	b1b0      	cbz	r0, 8008066 <_vfiprintf_r+0x13a>
 8008038:	9207      	str	r2, [sp, #28]
 800803a:	e014      	b.n	8008066 <_vfiprintf_r+0x13a>
 800803c:	eba0 0308 	sub.w	r3, r0, r8
 8008040:	fa09 f303 	lsl.w	r3, r9, r3
 8008044:	4313      	orrs	r3, r2
 8008046:	9304      	str	r3, [sp, #16]
 8008048:	46a2      	mov	sl, r4
 800804a:	e7d2      	b.n	8007ff2 <_vfiprintf_r+0xc6>
 800804c:	9b03      	ldr	r3, [sp, #12]
 800804e:	1d19      	adds	r1, r3, #4
 8008050:	681b      	ldr	r3, [r3, #0]
 8008052:	9103      	str	r1, [sp, #12]
 8008054:	2b00      	cmp	r3, #0
 8008056:	bfbb      	ittet	lt
 8008058:	425b      	neglt	r3, r3
 800805a:	f042 0202 	orrlt.w	r2, r2, #2
 800805e:	9307      	strge	r3, [sp, #28]
 8008060:	9307      	strlt	r3, [sp, #28]
 8008062:	bfb8      	it	lt
 8008064:	9204      	strlt	r2, [sp, #16]
 8008066:	7823      	ldrb	r3, [r4, #0]
 8008068:	2b2e      	cmp	r3, #46	@ 0x2e
 800806a:	d10a      	bne.n	8008082 <_vfiprintf_r+0x156>
 800806c:	7863      	ldrb	r3, [r4, #1]
 800806e:	2b2a      	cmp	r3, #42	@ 0x2a
 8008070:	d132      	bne.n	80080d8 <_vfiprintf_r+0x1ac>
 8008072:	9b03      	ldr	r3, [sp, #12]
 8008074:	1d1a      	adds	r2, r3, #4
 8008076:	681b      	ldr	r3, [r3, #0]
 8008078:	9203      	str	r2, [sp, #12]
 800807a:	ea43 73e3 	orr.w	r3, r3, r3, asr #31
 800807e:	3402      	adds	r4, #2
 8008080:	9305      	str	r3, [sp, #20]
 8008082:	f8df a0d4 	ldr.w	sl, [pc, #212]	@ 8008158 <_vfiprintf_r+0x22c>
 8008086:	7821      	ldrb	r1, [r4, #0]
 8008088:	2203      	movs	r2, #3
 800808a:	4650      	mov	r0, sl
 800808c:	f7f8 f8c8 	bl	8000220 <memchr>
 8008090:	b138      	cbz	r0, 80080a2 <_vfiprintf_r+0x176>
 8008092:	9b04      	ldr	r3, [sp, #16]
 8008094:	eba0 000a 	sub.w	r0, r0, sl
 8008098:	2240      	movs	r2, #64	@ 0x40
 800809a:	4082      	lsls	r2, r0
 800809c:	4313      	orrs	r3, r2
 800809e:	3401      	adds	r4, #1
 80080a0:	9304      	str	r3, [sp, #16]
 80080a2:	f814 1b01 	ldrb.w	r1, [r4], #1
 80080a6:	4829      	ldr	r0, [pc, #164]	@ (800814c <_vfiprintf_r+0x220>)
 80080a8:	f88d 1028 	strb.w	r1, [sp, #40]	@ 0x28
 80080ac:	2206      	movs	r2, #6
 80080ae:	f7f8 f8b7 	bl	8000220 <memchr>
 80080b2:	2800      	cmp	r0, #0
 80080b4:	d03f      	beq.n	8008136 <_vfiprintf_r+0x20a>
 80080b6:	4b26      	ldr	r3, [pc, #152]	@ (8008150 <_vfiprintf_r+0x224>)
 80080b8:	bb1b      	cbnz	r3, 8008102 <_vfiprintf_r+0x1d6>
 80080ba:	9b03      	ldr	r3, [sp, #12]
 80080bc:	3307      	adds	r3, #7
 80080be:	f023 0307 	bic.w	r3, r3, #7
 80080c2:	3308      	adds	r3, #8
 80080c4:	9303      	str	r3, [sp, #12]
 80080c6:	9b09      	ldr	r3, [sp, #36]	@ 0x24
 80080c8:	443b      	add	r3, r7
 80080ca:	9309      	str	r3, [sp, #36]	@ 0x24
 80080cc:	e76a      	b.n	8007fa4 <_vfiprintf_r+0x78>
 80080ce:	fb0c 3202 	mla	r2, ip, r2, r3
 80080d2:	460c      	mov	r4, r1
 80080d4:	2001      	movs	r0, #1
 80080d6:	e7a8      	b.n	800802a <_vfiprintf_r+0xfe>
 80080d8:	2300      	movs	r3, #0
 80080da:	3401      	adds	r4, #1
 80080dc:	9305      	str	r3, [sp, #20]
 80080de:	4619      	mov	r1, r3
 80080e0:	f04f 0c0a 	mov.w	ip, #10
 80080e4:	4620      	mov	r0, r4
 80080e6:	f810 2b01 	ldrb.w	r2, [r0], #1
 80080ea:	3a30      	subs	r2, #48	@ 0x30
 80080ec:	2a09      	cmp	r2, #9
 80080ee:	d903      	bls.n	80080f8 <_vfiprintf_r+0x1cc>
 80080f0:	2b00      	cmp	r3, #0
 80080f2:	d0c6      	beq.n	8008082 <_vfiprintf_r+0x156>
 80080f4:	9105      	str	r1, [sp, #20]
 80080f6:	e7c4      	b.n	8008082 <_vfiprintf_r+0x156>
 80080f8:	fb0c 2101 	mla	r1, ip, r1, r2
 80080fc:	4604      	mov	r4, r0
 80080fe:	2301      	movs	r3, #1
 8008100:	e7f0      	b.n	80080e4 <_vfiprintf_r+0x1b8>
 8008102:	ab03      	add	r3, sp, #12
 8008104:	9300      	str	r3, [sp, #0]
 8008106:	462a      	mov	r2, r5
 8008108:	4b12      	ldr	r3, [pc, #72]	@ (8008154 <_vfiprintf_r+0x228>)
 800810a:	a904      	add	r1, sp, #16
 800810c:	4630      	mov	r0, r6
 800810e:	f7fb febd 	bl	8003e8c <_printf_float>
 8008112:	4607      	mov	r7, r0
 8008114:	1c78      	adds	r0, r7, #1
 8008116:	d1d6      	bne.n	80080c6 <_vfiprintf_r+0x19a>
 8008118:	6e6b      	ldr	r3, [r5, #100]	@ 0x64
 800811a:	07d9      	lsls	r1, r3, #31
 800811c:	d405      	bmi.n	800812a <_vfiprintf_r+0x1fe>
 800811e:	89ab      	ldrh	r3, [r5, #12]
 8008120:	059a      	lsls	r2, r3, #22
 8008122:	d402      	bmi.n	800812a <_vfiprintf_r+0x1fe>
 8008124:	6da8      	ldr	r0, [r5, #88]	@ 0x58
 8008126:	f7fc fe1b 	bl	8004d60 <__retarget_lock_release_recursive>
 800812a:	89ab      	ldrh	r3, [r5, #12]
 800812c:	065b      	lsls	r3, r3, #25
 800812e:	f53f af1f 	bmi.w	8007f70 <_vfiprintf_r+0x44>
 8008132:	9809      	ldr	r0, [sp, #36]	@ 0x24
 8008134:	e71e      	b.n	8007f74 <_vfiprintf_r+0x48>
 8008136:	ab03      	add	r3, sp, #12
 8008138:	9300      	str	r3, [sp, #0]
 800813a:	462a      	mov	r2, r5
 800813c:	4b05      	ldr	r3, [pc, #20]	@ (8008154 <_vfiprintf_r+0x228>)
 800813e:	a904      	add	r1, sp, #16
 8008140:	4630      	mov	r0, r6
 8008142:	f7fc f93b 	bl	80043bc <_printf_i>
 8008146:	e7e4      	b.n	8008112 <_vfiprintf_r+0x1e6>
 8008148:	08008591 	.word	0x08008591
 800814c:	0800859b 	.word	0x0800859b
 8008150:	08003e8d 	.word	0x08003e8d
 8008154:	08007f09 	.word	0x08007f09
 8008158:	08008597 	.word	0x08008597

0800815c <__swbuf_r>:
 800815c:	b5f8      	push	{r3, r4, r5, r6, r7, lr}
 800815e:	460e      	mov	r6, r1
 8008160:	4614      	mov	r4, r2
 8008162:	4605      	mov	r5, r0
 8008164:	b118      	cbz	r0, 800816e <__swbuf_r+0x12>
 8008166:	6a03      	ldr	r3, [r0, #32]
 8008168:	b90b      	cbnz	r3, 800816e <__swbuf_r+0x12>
 800816a:	f7fc fcdf 	bl	8004b2c <__sinit>
 800816e:	69a3      	ldr	r3, [r4, #24]
 8008170:	60a3      	str	r3, [r4, #8]
 8008172:	89a3      	ldrh	r3, [r4, #12]
 8008174:	071a      	lsls	r2, r3, #28
 8008176:	d501      	bpl.n	800817c <__swbuf_r+0x20>
 8008178:	6923      	ldr	r3, [r4, #16]
 800817a:	b943      	cbnz	r3, 800818e <__swbuf_r+0x32>
 800817c:	4621      	mov	r1, r4
 800817e:	4628      	mov	r0, r5
 8008180:	f000 f82a 	bl	80081d8 <__swsetup_r>
 8008184:	b118      	cbz	r0, 800818e <__swbuf_r+0x32>
 8008186:	f04f 37ff 	mov.w	r7, #4294967295
 800818a:	4638      	mov	r0, r7
 800818c:	bdf8      	pop	{r3, r4, r5, r6, r7, pc}
 800818e:	6823      	ldr	r3, [r4, #0]
 8008190:	6922      	ldr	r2, [r4, #16]
 8008192:	1a98      	subs	r0, r3, r2
 8008194:	6963      	ldr	r3, [r4, #20]
 8008196:	b2f6      	uxtb	r6, r6
 8008198:	4283      	cmp	r3, r0
 800819a:	4637      	mov	r7, r6
 800819c:	dc05      	bgt.n	80081aa <__swbuf_r+0x4e>
 800819e:	4621      	mov	r1, r4
 80081a0:	4628      	mov	r0, r5
 80081a2:	f7ff fa47 	bl	8007634 <_fflush_r>
 80081a6:	2800      	cmp	r0, #0
 80081a8:	d1ed      	bne.n	8008186 <__swbuf_r+0x2a>
 80081aa:	68a3      	ldr	r3, [r4, #8]
 80081ac:	3b01      	subs	r3, #1
 80081ae:	60a3      	str	r3, [r4, #8]
 80081b0:	6823      	ldr	r3, [r4, #0]
 80081b2:	1c5a      	adds	r2, r3, #1
 80081b4:	6022      	str	r2, [r4, #0]
 80081b6:	701e      	strb	r6, [r3, #0]
 80081b8:	6962      	ldr	r2, [r4, #20]
 80081ba:	1c43      	adds	r3, r0, #1
 80081bc:	429a      	cmp	r2, r3
 80081be:	d004      	beq.n	80081ca <__swbuf_r+0x6e>
 80081c0:	89a3      	ldrh	r3, [r4, #12]
 80081c2:	07db      	lsls	r3, r3, #31
 80081c4:	d5e1      	bpl.n	800818a <__swbuf_r+0x2e>
 80081c6:	2e0a      	cmp	r6, #10
 80081c8:	d1df      	bne.n	800818a <__swbuf_r+0x2e>
 80081ca:	4621      	mov	r1, r4
 80081cc:	4628      	mov	r0, r5
 80081ce:	f7ff fa31 	bl	8007634 <_fflush_r>
 80081d2:	2800      	cmp	r0, #0
 80081d4:	d0d9      	beq.n	800818a <__swbuf_r+0x2e>
 80081d6:	e7d6      	b.n	8008186 <__swbuf_r+0x2a>

080081d8 <__swsetup_r>:
 80081d8:	b538      	push	{r3, r4, r5, lr}
 80081da:	4b29      	ldr	r3, [pc, #164]	@ (8008280 <__swsetup_r+0xa8>)
 80081dc:	4605      	mov	r5, r0
 80081de:	6818      	ldr	r0, [r3, #0]
 80081e0:	460c      	mov	r4, r1
 80081e2:	b118      	cbz	r0, 80081ec <__swsetup_r+0x14>
 80081e4:	6a03      	ldr	r3, [r0, #32]
 80081e6:	b90b      	cbnz	r3, 80081ec <__swsetup_r+0x14>
 80081e8:	f7fc fca0 	bl	8004b2c <__sinit>
 80081ec:	f9b4 300c 	ldrsh.w	r3, [r4, #12]
 80081f0:	0719      	lsls	r1, r3, #28
 80081f2:	d422      	bmi.n	800823a <__swsetup_r+0x62>
 80081f4:	06da      	lsls	r2, r3, #27
 80081f6:	d407      	bmi.n	8008208 <__swsetup_r+0x30>
 80081f8:	2209      	movs	r2, #9
 80081fa:	602a      	str	r2, [r5, #0]
 80081fc:	f043 0340 	orr.w	r3, r3, #64	@ 0x40
 8008200:	81a3      	strh	r3, [r4, #12]
 8008202:	f04f 30ff 	mov.w	r0, #4294967295
 8008206:	e033      	b.n	8008270 <__swsetup_r+0x98>
 8008208:	0758      	lsls	r0, r3, #29
 800820a:	d512      	bpl.n	8008232 <__swsetup_r+0x5a>
 800820c:	6b61      	ldr	r1, [r4, #52]	@ 0x34
 800820e:	b141      	cbz	r1, 8008222 <__swsetup_r+0x4a>
 8008210:	f104 0344 	add.w	r3, r4, #68	@ 0x44
 8008214:	4299      	cmp	r1, r3
 8008216:	d002      	beq.n	800821e <__swsetup_r+0x46>
 8008218:	4628      	mov	r0, r5
 800821a:	f7fd fc01 	bl	8005a20 <_free_r>
 800821e:	2300      	movs	r3, #0
 8008220:	6363      	str	r3, [r4, #52]	@ 0x34
 8008222:	89a3      	ldrh	r3, [r4, #12]
 8008224:	f023 0324 	bic.w	r3, r3, #36	@ 0x24
 8008228:	81a3      	strh	r3, [r4, #12]
 800822a:	2300      	movs	r3, #0
 800822c:	6063      	str	r3, [r4, #4]
 800822e:	6923      	ldr	r3, [r4, #16]
 8008230:	6023      	str	r3, [r4, #0]
 8008232:	89a3      	ldrh	r3, [r4, #12]
 8008234:	f043 0308 	orr.w	r3, r3, #8
 8008238:	81a3      	strh	r3, [r4, #12]
 800823a:	6923      	ldr	r3, [r4, #16]
 800823c:	b94b      	cbnz	r3, 8008252 <__swsetup_r+0x7a>
 800823e:	89a3      	ldrh	r3, [r4, #12]
 8008240:	f403 7320 	and.w	r3, r3, #640	@ 0x280
 8008244:	f5b3 7f00 	cmp.w	r3, #512	@ 0x200
 8008248:	d003      	beq.n	8008252 <__swsetup_r+0x7a>
 800824a:	4621      	mov	r1, r4
 800824c:	4628      	mov	r0, r5
 800824e:	f000 f883 	bl	8008358 <__smakebuf_r>
 8008252:	f9b4 300c 	ldrsh.w	r3, [r4, #12]
 8008256:	f013 0201 	ands.w	r2, r3, #1
 800825a:	d00a      	beq.n	8008272 <__swsetup_r+0x9a>
 800825c:	2200      	movs	r2, #0
 800825e:	60a2      	str	r2, [r4, #8]
 8008260:	6962      	ldr	r2, [r4, #20]
 8008262:	4252      	negs	r2, r2
 8008264:	61a2      	str	r2, [r4, #24]
 8008266:	6922      	ldr	r2, [r4, #16]
 8008268:	b942      	cbnz	r2, 800827c <__swsetup_r+0xa4>
 800826a:	f013 0080 	ands.w	r0, r3, #128	@ 0x80
 800826e:	d1c5      	bne.n	80081fc <__swsetup_r+0x24>
 8008270:	bd38      	pop	{r3, r4, r5, pc}
 8008272:	0799      	lsls	r1, r3, #30
 8008274:	bf58      	it	pl
 8008276:	6962      	ldrpl	r2, [r4, #20]
 8008278:	60a2      	str	r2, [r4, #8]
 800827a:	e7f4      	b.n	8008266 <__swsetup_r+0x8e>
 800827c:	2000      	movs	r0, #0
 800827e:	e7f7      	b.n	8008270 <__swsetup_r+0x98>
 8008280:	20000018 	.word	0x20000018

08008284 <_raise_r>:
 8008284:	291f      	cmp	r1, #31
 8008286:	b538      	push	{r3, r4, r5, lr}
 8008288:	4605      	mov	r5, r0
 800828a:	460c      	mov	r4, r1
 800828c:	d904      	bls.n	8008298 <_raise_r+0x14>
 800828e:	2316      	movs	r3, #22
 8008290:	6003      	str	r3, [r0, #0]
 8008292:	f04f 30ff 	mov.w	r0, #4294967295
 8008296:	bd38      	pop	{r3, r4, r5, pc}
 8008298:	6bc2      	ldr	r2, [r0, #60]	@ 0x3c
 800829a:	b112      	cbz	r2, 80082a2 <_raise_r+0x1e>
 800829c:	f852 3021 	ldr.w	r3, [r2, r1, lsl #2]
 80082a0:	b94b      	cbnz	r3, 80082b6 <_raise_r+0x32>
 80082a2:	4628      	mov	r0, r5
 80082a4:	f000 f830 	bl	8008308 <_getpid_r>
 80082a8:	4622      	mov	r2, r4
 80082aa:	4601      	mov	r1, r0
 80082ac:	4628      	mov	r0, r5
 80082ae:	e8bd 4038 	ldmia.w	sp!, {r3, r4, r5, lr}
 80082b2:	f000 b817 	b.w	80082e4 <_kill_r>
 80082b6:	2b01      	cmp	r3, #1
 80082b8:	d00a      	beq.n	80082d0 <_raise_r+0x4c>
 80082ba:	1c59      	adds	r1, r3, #1
 80082bc:	d103      	bne.n	80082c6 <_raise_r+0x42>
 80082be:	2316      	movs	r3, #22
 80082c0:	6003      	str	r3, [r0, #0]
 80082c2:	2001      	movs	r0, #1
 80082c4:	e7e7      	b.n	8008296 <_raise_r+0x12>
 80082c6:	2100      	movs	r1, #0
 80082c8:	f842 1024 	str.w	r1, [r2, r4, lsl #2]
 80082cc:	4620      	mov	r0, r4
 80082ce:	4798      	blx	r3
 80082d0:	2000      	movs	r0, #0
 80082d2:	e7e0      	b.n	8008296 <_raise_r+0x12>

080082d4 <raise>:
 80082d4:	4b02      	ldr	r3, [pc, #8]	@ (80082e0 <raise+0xc>)
 80082d6:	4601      	mov	r1, r0
 80082d8:	6818      	ldr	r0, [r3, #0]
 80082da:	f7ff bfd3 	b.w	8008284 <_raise_r>
 80082de:	bf00      	nop
 80082e0:	20000018 	.word	0x20000018

080082e4 <_kill_r>:
 80082e4:	b538      	push	{r3, r4, r5, lr}
 80082e6:	4d07      	ldr	r5, [pc, #28]	@ (8008304 <_kill_r+0x20>)
 80082e8:	2300      	movs	r3, #0
 80082ea:	4604      	mov	r4, r0
 80082ec:	4608      	mov	r0, r1
 80082ee:	4611      	mov	r1, r2
 80082f0:	602b      	str	r3, [r5, #0]
 80082f2:	f7f9 f965 	bl	80015c0 <_kill>
 80082f6:	1c43      	adds	r3, r0, #1
 80082f8:	d102      	bne.n	8008300 <_kill_r+0x1c>
 80082fa:	682b      	ldr	r3, [r5, #0]
 80082fc:	b103      	cbz	r3, 8008300 <_kill_r+0x1c>
 80082fe:	6023      	str	r3, [r4, #0]
 8008300:	bd38      	pop	{r3, r4, r5, pc}
 8008302:	bf00      	nop
 8008304:	20000a30 	.word	0x20000a30

08008308 <_getpid_r>:
 8008308:	f7f9 b958 	b.w	80015bc <_getpid>

0800830c <__swhatbuf_r>:
 800830c:	b570      	push	{r4, r5, r6, lr}
 800830e:	460c      	mov	r4, r1
 8008310:	f9b1 100e 	ldrsh.w	r1, [r1, #14]
 8008314:	2900      	cmp	r1, #0
 8008316:	b096      	sub	sp, #88	@ 0x58
 8008318:	4615      	mov	r5, r2
 800831a:	461e      	mov	r6, r3
 800831c:	da0d      	bge.n	800833a <__swhatbuf_r+0x2e>
 800831e:	89a3      	ldrh	r3, [r4, #12]
 8008320:	f013 0f80 	tst.w	r3, #128	@ 0x80
 8008324:	f04f 0100 	mov.w	r1, #0
 8008328:	bf14      	ite	ne
 800832a:	2340      	movne	r3, #64	@ 0x40
 800832c:	f44f 6380 	moveq.w	r3, #1024	@ 0x400
 8008330:	2000      	movs	r0, #0
 8008332:	6031      	str	r1, [r6, #0]
 8008334:	602b      	str	r3, [r5, #0]
 8008336:	b016      	add	sp, #88	@ 0x58
 8008338:	bd70      	pop	{r4, r5, r6, pc}
 800833a:	466a      	mov	r2, sp
 800833c:	f000 f848 	bl	80083d0 <_fstat_r>
 8008340:	2800      	cmp	r0, #0
 8008342:	dbec      	blt.n	800831e <__swhatbuf_r+0x12>
 8008344:	9901      	ldr	r1, [sp, #4]
 8008346:	f401 4170 	and.w	r1, r1, #61440	@ 0xf000
 800834a:	f5a1 5300 	sub.w	r3, r1, #8192	@ 0x2000
 800834e:	4259      	negs	r1, r3
 8008350:	41