
STM32G431C8T6.elf:     file format elf32-littlearm

Sections:
Idx Name          Size      VMA       LMA       File off  Algn
  0 .isr_vector   000001d8  08000000  08000000  00001000  2**0
                  CONTENTS, ALLOC, LOAD, READONLY, DATA
  1 .text         000078d4  080001e0  080001e0  000011e0  2**4
                  CONTENTS, ALLOC, LOAD, READONLY, CODE
  2 .rodata       0000046c  08007ab8  08007ab8  00008ab8  2**3
                  CONTENTS, ALLOC, LOAD, READONLY, DATA
  3 .ARM.extab    00000000  08007f24  08007f24  000091d4  2**0
                  CONTENTS, READONLY
  4 .ARM          00000008  08007f24  08007f24  00008f24  2**2
                  CONTENTS, ALLOC, LOAD, READONLY, DATA
  5 .preinit_array 00000000  08007f2c  08007f2c  000091d4  2**0
                  CONTENTS, ALLOC, LOAD, DATA
  6 .init_array   00000004  08007f2c  08007f2c  00008f2c  2**2
                  CONTENTS, ALLOC, LOAD, READONLY, DATA
  7 .fini_array   00000004  08007f30  08007f30  00008f30  2**2
                  CONTENTS, ALLOC, LOAD, READONLY, DATA
  8 .data         000001d4  20000000  08007f34  00009000  2**2
                  CONTENTS, ALLOC, LOAD, DATA
  9 .bss          000005d4  200001d4  08008108  000091d4  2**2
                  ALLOC
 10 ._user_heap_stack 00000600  200007a8  08008108  000097a8  2**0
                  ALLOC
 11 .ARM.attributes 00000030  00000000  00000000  000091d4  2**0
                  CONTENTS, READONLY
 12 .debug_info   00011fd7  00000000  00000000  00009204  2**0
                  CONTENTS, READONLY, DEBUGGING, OCTETS
 13 .debug_abbrev 00002ffe  00000000  00000000  0001b1db  2**0
                  CONTENTS, READONLY, DEBUGGING, OCTETS
 14 .debug_aranges 00000b50  00000000  00000000  0001e1e0  2**3
                  CONTENTS, READONLY, DEBUGGING, OCTETS
 15 .debug_rnglists 00000a2d  00000000  00000000  0001ed30  2**0
                  CONTENTS, READONLY, DEBUGGING, OCTETS
 16 .debug_macro  00003d44  00000000  00000000  0001f75d  2**0
                  CONTENTS, READONLY, DEBUGGING, OCTETS
 17 .debug_line   000143c5  00000000  00000000  000234a1  2**0
                  CONTENTS, READONLY, DEBUGGING, OCTETS
 18 .debug_str    000b8a92  00000000  00000000  00037866  2**0
                  CONTENTS, READONLY, DEBUGGING, OCTETS
 19 .comment      00000043  00000000  00000000  000f02f8  2**0
                  CONTENTS, READONLY
 20 .debug_frame  00002fc4  00000000  00000000  000f033c  2**2
                  CONTENTS, READONLY, DEBUGGING, OCTETS
 21 .debug_loclists 00006554  00000000  00000000  000f3300  2**0
                  CONTENTS, READONLY, DEBUGGING, OCTETS
 22 .debug_line_str 0000004d  00000000  00000000  000f9854  2**0
                  CONTENTS, READONLY, DEBUGGING, OCTETS

Disassembly of section .text:

080001e0 <__do_global_dtors_aux>:
 80001e0:	b510      	push	{r4, lr}
 80001e2:	4c05      	ldr	r4, [pc, #20]	@ (80001f8 <__do_global_dtors_aux+0x18>)
 80001e4:	7823      	ldrb	r3, [r4, #0]
 80001e6:	b933      	cbnz	r3, 80001f6 <__do_global_dtors_aux+0x16>
 80001e8:	4b04      	ldr	r3, [pc, #16]	@ (80001fc <__do_global_dtors_aux+0x1c>)
 80001ea:	b113      	cbz	r3, 80001f2 <__do_global_dtors_aux+0x12>
 80001ec:	4804      	ldr	r0, [pc, #16]	@ (8000200 <__do_global_dtors_aux+0x20>)
 80001ee:	f3af 8000 	nop.w
 80001f2:	2301      	movs	r3, #1
 80001f4:	7023      	strb	r3, [r4, #0]
 80001f6:	bd10      	pop	{r4, pc}
 80001f8:	200001d4 	.word	0x200001d4
 80001fc:	00000000 	.word	0x00000000
 8000200:	08007a9c 	.word	0x08007a9c

08000204 <frame_dummy>:
 8000204:	b508      	push	{r3, lr}
 8000206:	4b03      	ldr	r3, [pc, #12]	@ (8000214 <frame_dummy+0x10>)
 8000208:	b11b      	cbz	r3, 8000212 <frame_dummy+0xe>
 800020a:	4903      	ldr	r1, [pc, #12]	@ (8000218 <frame_dummy+0x14>)
 800020c:	4803      	ldr	r0, [pc, #12]	@ (800021c <frame_dummy+0x18>)
 800020e:	f3af 8000 	nop.w
 8000212:	bd08      	pop	{r3, pc}
 8000214:	00000000 	.word	0x00000000
 8000218:	200001d8 	.word	0x200001d8
 800021c:	08007a9c 	.word	0x08007a9c

08000220 <memchr>:
 8000220:	f001 01ff 	and.w	r1, r1, #255	@ 0xff
 8000224:	2a10      	cmp	r2, #16
 8000226:	db2b      	blt.n	8000280 <memchr+0x60>
 8000228:	f010 0f07 	tst.w	r0, #7
 800022c:	d008      	beq.n	8000240 <memchr+0x20>
 800022e:	f810 3b01 	ldrb.w	r3, [r0], #1
 8000232:	3a01      	subs	r2, #1
 8000234:	428b      	cmp	r3, r1
 8000236:	d02d      	beq.n	8000294 <memchr+0x74>
 8000238:	f010 0f07 	tst.w	r0, #7
 800023c:	b342      	cbz	r2, 8000290 <memchr+0x70>
 800023e:	d1f6      	bne.n	800022e <memchr+0xe>
 8000240:	b4f0      	push	{r4, r5, r6, r7}
 8000242:	ea41 2101 	orr.w	r1, r1, r1, lsl #8
 8000246:	ea41 4101 	orr.w	r1, r1, r1, lsl #16
 800024a:	f022 0407 	bic.w	r4, r2, #7
 800024e:	f07f 0700 	mvns.w	r7, #0
 8000252:	2300      	movs	r3, #0
 8000254:	e8f0 5602 	ldrd	r5, r6, [r0], #8
 8000258:	3c08      	subs	r4, #8
 800025a:	ea85 0501 	eor.w	r5, r5, r1
 800025e:	ea86 0601 	eor.w	r6, r6, r1
 8000262:	fa85 f547 	uadd8	r5, r5, r7
 8000266:	faa3 f587 	sel	r5, r3, r7
 800026a:	fa86 f647 	uadd8	r6, r6, r7
 800026e:	faa5 f687 	sel	r6, r5, r7
 8000272:	b98e      	cbnz	r6, 8000298 <memchr+0x78>
 8000274:	d1ee      	bne.n	8000254 <memchr+0x34>
 8000276:	bcf0      	pop	{r4, r5, r6, r7}
 8000278:	f001 01ff 	and.w	r1, r1, #255	@ 0xff
 800027c:	f002 0207 	and.w	r2, r2, #7
 8000280:	b132      	cbz	r2, 8000290 <memchr+0x70>
 8000282:	f810 3b01 	ldrb.w	r3, [r0], #1
 8000286:	3a01      	subs	r2, #1
 8000288:	ea83 0301 	eor.w	r3, r3, r1
 800028c:	b113      	cbz	r3, 8000294 <memchr+0x74>
 800028e:	d1f8      	bne.n	8000282 <memchr+0x62>
 8000290:	2000      	movs	r0, #0
 8000292:	4770      	bx	lr
 8000294:	3801      	subs	r0, #1
 8000296:	4770      	bx	lr
 8000298:	2d00      	cmp	r5, #0
 800029a:	bf06      	itte	eq
 800029c:	4635      	moveq	r5, r6
 800029e:	3803      	subeq	r0, #3
 80002a0:	3807      	subne	r0, #7
 80002a2:	f015 0f01 	tst.w	r5, #1
 80002a6:	d107      	bne.n	80002b8 <memchr+0x98>
 80002a8:	3001      	adds	r0, #1
 80002aa:	f415 7f80 	tst.w	r5, #256	@ 0x100
 80002ae:	bf02      	ittt	eq
 80002b0:	3001      	addeq	r0, #1
 80002b2:	f415 3fc0 	tsteq.w	r5, #98304	@ 0x18000
 80002b6:	3001      	addeq	r0, #1
 80002b8:	bcf0      	pop	{r4, r5, r6, r7}
 80002ba:	3801      	subs	r0, #1
 80002bc:	4770      	bx	lr
 80002be:	bf00      	nop

080002c0 <strlen>:
 80002c0:	4603      	mov	r3, r0
 80002c2:	f813 2b01 	ldrb.w	r2, [r3], #1
 80002c6:	2a00      	cmp	r2, #0
 80002c8:	d1fb      	bne.n	80002c2 <strlen+0x2>
 80002ca:	1a18      	subs	r0, r3, r0
 80002cc:	3801      	subs	r0, #1
 80002ce:	4770      	bx	lr

080002d0 <__aeabi_drsub>:
 80002d0:	f081 4100 	eor.w	r1, r1, #2147483648	@ 0x80000000
 80002d4:	e002      	b.n	80002dc <__adddf3>
 80002d6:	bf00      	nop

080002d8 <__aeabi_dsub>:
 80002d8:	f083 4300 	eor.w	r3, r3, #2147483648	@ 0x80000000

080002dc <__adddf3>:
 80002dc:	b530      	push	{r4, r5, lr}
 80002de:	ea4f 0441 	mov.w	r4, r1, lsl #1
 80002e2:	ea4f 0543 	mov.w	r5, r3, lsl #1
 80002e6:	ea94 0f05 	teq	r4, r5
 80002ea:	bf08      	it	eq
 80002ec:	ea90 0f02 	teqeq	r0, r2
 80002f0:	bf1f      	itttt	ne
 80002f2:	ea54 0c00 	orrsne.w	ip, r4, r0
 80002f6:	ea55 0c02 	orrsne.w	ip, r5, r2
 80002fa:	ea7f 5c64 	mvnsne.w	ip, r4, asr #21
 80002fe:	ea7f 5c65 	mvnsne.w	ip, r5, asr #21
 8000302:	f000 80e2 	beq.w	80004ca <__adddf3+0x1ee>
 8000306:	ea4f 5454 	mov.w	r4, r4, lsr #21
 800030a:	ebd4 5555 	rsbs	r5, r4, r5, lsr #21
 800030e:	bfb8      	it	lt
 8000310:	426d      	neglt	r5, r5
 8000312:	dd0c      	ble.n	800032e <__adddf3+0x52>
 8000314:	442c      	add	r4, r5
 8000316:	ea80 0202 	eor.w	r2, r0, r2
 800031a:	ea81 0303 	eor.w	r3, r1, r3
 800031e:	ea82 0000 	eor.w	r0, r2, r0
 8000322:	ea83 0101 	eor.w	r1, r3, r1
 8000326:	ea80 0202 	eor.w	r2, r0, r2
 800032a:	ea81 0303 	eor.w	r3, r1, r3
 800032e:	2d36      	cmp	r5, #54	@ 0x36
 8000330:	bf88      	it	hi
 8000332:	bd30      	pophi	{r4, r5, pc}
 8000334:	f011 4f00 	tst.w	r1, #2147483648	@ 0x80000000
 8000338:	ea4f 3101 	mov.w	r1, r1, lsl #12
 800033c:	f44f 1c80 	mov.w	ip, #1048576	@ 0x100000
 8000340:	ea4c 3111 	orr.w	r1, ip, r1, lsr #12
 8000344:	d002      	beq.n	800034c <__adddf3+0x70>
 8000346:	4240      	negs	r0, r0
 8000348:	eb61 0141 	sbc.w	r1, r1, r1, lsl #1
 800034c:	f013 4f00 	tst.w	r3, #2147483648	@ 0x80000000
 8000350:	ea4f 3303 	mov.w	r3, r3, lsl #12
 8000354:	ea4c 3313 	orr.w	r3, ip, r3, lsr #12
 8000358:	d002      	beq.n	8000360 <__adddf3+0x84>
 800035a:	4252      	negs	r2, r2
 800035c:	eb63 0343 	sbc.w	r3, r3, r3, lsl #1
 8000360:	ea94 0f05 	teq	r4, r5
 8000364:	f000 80a7 	beq.w	80004b6 <__adddf3+0x1da>
 8000368:	f1a4 0401 	sub.w	r4, r4, #1
 800036c:	f1d5 0e20 	rsbs	lr, r5, #32
 8000370:	db0d      	blt.n	800038e <__adddf3+0xb2>
 8000372:	fa02 fc0e 	lsl.w	ip, r2, lr
 8000376:	fa22 f205 	lsr.w	r2, r2, r5
 800037a:	1880      	adds	r0, r0, r2
 800037c:	f141 0100 	adc.w	r1, r1, #0
 8000380:	fa03 f20e 	lsl.w	r2, r3, lr
 8000384:	1880      	adds	r0, r0, r2
 8000386:	fa43 f305 	asr.w	r3, r3, r5
 800038a:	4159      	adcs	r1, r3
 800038c:	e00e      	b.n	80003ac <__adddf3+0xd0>
 800038e:	f1a5 0520 	sub.w	r5, r5, #32
 8000392:	f10e 0e20 	add.w	lr, lr, #32
 8000396:	2a01      	cmp	r2, #1
 8000398:	fa03 fc0e 	lsl.w	ip, r3, lr
 800039c:	bf28      	it	cs
 800039e:	f04c 0c02 	orrcs.w	ip, ip, #2
 80003a2:	fa43 f305 	asr.w	r3, r3, r5
 80003a6:	18c0      	adds	r0, r0, r3
 80003a8:	eb51 71e3 	adcs.w	r1, r1, r3, asr #31
 80003ac:	f001 4500 	and.w	r5, r1, #2147483648	@ 0x80000000
 80003b0:	d507      	bpl.n	80003c2 <__adddf3+0xe6>
 80003b2:	f04f 0e00 	mov.w	lr, #0
 80003b6:	f1dc 0c00 	rsbs	ip, ip, #0
 80003ba:	eb7e 0000 	sbcs.w	r0, lr, r0
 80003be:	eb6e 0101 	sbc.w	r1, lr, r1
 80003c2:	f5b1 1f80 	cmp.w	r1, #1048576	@ 0x100000
 80003c6:	d31b      	bcc.n	8000400 <__adddf3+0x124>
 80003c8:	f5b1 1f00 	cmp.w	r1, #2097152	@ 0x200000
 80003cc:	d30c      	bcc.n	80003e8 <__adddf3+0x10c>
 80003ce:	0849      	lsrs	r1, r1, #1
 80003d0:	ea5f 0030 	movs.w	r0, r0, rrx
 80003d4:	ea4f 0c3c 	mov.w	ip, ip, rrx
 80003d8:	f104 0401 	add.w	r4, r4, #1
 80003dc:	ea4f 5244 	mov.w	r2, r4, lsl #21
 80003e0:	f512 0f80 	cmn.w	r2, #4194304	@ 0x400000
 80003e4:	f080 809a 	bcs.w	800051c <__adddf3+0x240>
 80003e8:	f1bc 4f00 	cmp.w	ip, #2147483648	@ 0x80000000
 80003ec:	bf08      	it	eq
 80003ee:	ea5f 0c50 	movseq.w	ip, r0, lsr #1
 80003f2:	f150 0000 	adcs.w	r0, r0, #0
 80003f6:	eb41 5104 	adc.w	r1, r1, r4, lsl #20
 80003fa:	ea41 0105 	orr.w	r1, r1, r5
 80003fe:	bd30      	pop	{r4, r5, pc}
 8000400:	ea5f 0c4c 	movs.w	ip, ip, lsl #1
 8000404:	4140      	adcs	r0, r0
 8000406:	eb41 0101 	adc.w	r1, r1, r1
 800040a:	3c01      	subs	r4, #1
 800040c:	bf28      	it	cs
 800040e:	f5b1 1f80 	cmpcs.w	r1, #1048576	@ 0x100000
 8000412:	d2e9      	bcs.n	80003e8 <__adddf3+0x10c>
 8000414:	f091 0f00 	teq	r1, #0
 8000418:	bf04      	itt	eq
 800041a:	4601      	moveq	r1, r0
 800041c:	2000      	moveq	r0, #0
 800041e:	fab1 f381 	clz	r3, r1
 8000422:	bf08      	it	eq
 8000424:	3320      	addeq	r3, #32
 8000426:	f1a3 030b 	sub.w	r3, r3, #11
 800042a:	f1b3 0220 	subs.w	r2, r3, #32
 800042e:	da0c      	bge.n	800044a <__adddf3+0x16e>
 8000430:	320c      	adds	r2, #12
 8000432:	dd08      	ble.n	8000446 <__adddf3+0x16a>
 8000434:	f102 0c14 	add.w	ip, r2, #20
 8000438:	f1c2 020c 	rsb	r2, r2, #12
 800043c:	fa01 f00c 	lsl.w	r0, r1, ip
 8000440:	fa21 f102 	lsr.w	r1, r1, r2
 8000444:	e00c      	b.n	8000460 <__adddf3+0x184>
 8000446:	f102 0214 	add.w	r2, r2, #20
 800044a:	bfd8      	it	le
 800044c:	f1c2 0c20 	rsble	ip, r2, #32
 8000450:	fa01 f102 	lsl.w	r1, r1, r2
 8000454:	fa20 fc0c 	lsr.w	ip, r0, ip
 8000458:	bfdc      	itt	le
 800045a:	ea41 010c 	orrle.w	r1, r1, ip
 800045e:	4090      	lslle	r0, r2
 8000460:	1ae4      	subs	r4, r4, r3
 8000462:	bfa2      	ittt	ge
 8000464:	eb01 5104 	addge.w	r1, r1, r4, lsl #20
 8000468:	4329      	orrge	r1, r5
 800046a:	bd30      	popge	{r4, r5, pc}
 800046c:	ea6f 0404 	mvn.w	r4, r4
 8000470:	3c1f      	subs	r4, #31
 8000472:	da1c      	bge.n	80004ae <__adddf3+0x1d2>
 8000474:	340c      	adds	r4, #12
 8000476:	dc0e      	bgt.n	8000496 <__adddf3+0x1ba>
 8000478:	f104 0414 	add.w	r4, r4, #20
 800047c:	f1c4 0220 	rsb	r2, r4, #32
 8000480:	fa20 f004 	lsr.w	r0, r0, r4
 8000484:	fa01 f302 	lsl.w	r3, r1, r2
 8000488:	ea40 0003 	orr.w	r0, r0, r3
 800048c:	fa21 f304 	lsr.w	r3, r1, r4
 8000490:	ea45 0103 	orr.w	r1, r5, r3
 8000494:	bd30      	pop	{r4, r5, pc}
 8000496:	f1c4 040c 	rsb	r4, r4, #12
 800049a:	f1c4 0220 	rsb	r2, r4, #32
 800049e:	fa20 f002 	lsr.w	r0, r0, r2
 80004a2:	fa01 f304 	lsl.w	r3, r1, r4
 80004a6:	ea40 0003 	orr.w	r0, r0, r3
 80004aa:	4629      	mov	r1, r5
 80004ac:	bd30      	pop	{r4, r5, pc}
 80004ae:	fa21 f004 	lsr.w	r0, r1, r4
 80004b2:	4629      	mov	r1, r5
 80004b4:	bd30      	pop	{r4, r5, pc}
 80004b6:	f094 0f00 	teq	r4, #0
 80004ba:	f483 1380 	eor.w	r3, r3, #1048576	@ 0x100000
 80004be:	bf06      	itte	eq
 80004c0:	f481 1180 	eoreq.w	r1, r1, #1048576	@ 0x100000
 80004c4:	3401      	addeq	r4, #1
 80004c6:	3d01      	subne	r5, #1
 80004c8:	e74e      	b.n	8000368 <__adddf3+0x8c>
 80004ca:	ea7f 5c64 	mvns.w	ip, r4, asr #21
 80004ce:	bf18      	it	ne
 80004d0:	ea7f 5c65 	mvnsne.w	ip, r5, asr #21
 80004d4:	d029      	beq.n	800052a <__adddf3+0x24e>
 80004d6:	ea94 0f05 	teq	r4, r5
 80004da:	bf08      	it	eq
 80004dc:	ea90 0f02 	teqeq	r0, r2
 80004e0:	d005      	beq.n	80004ee <__adddf3+0x212>
 80004e2:	ea54 0c00 	orrs.w	ip, r4, r0
 80004e6:	bf04      	itt	eq
 80004e8:	4619      	moveq	r1, r3
 80004ea:	4610      	moveq	r0, r2
 80004ec:	bd30      	pop	{r4, r5, pc}
 80004ee:	ea91 0f03 	teq	r1, r3
 80004f2:	bf1e      	ittt	ne
 80004f4:	2100      	movne	r1, #0
 80004f6:	2000      	movne	r0, #0
 80004f8:	bd30      	popne	{r4, r5, pc}
 80004fa:	ea5f 5c54 	movs.w	ip, r4, lsr #21
 80004fe:	d105      	bne.n	800050c <__adddf3+0x230>
 8000500:	0040      	lsls	r0, r0, #1
 8000502:	4149      	adcs	r1, r1
 8000504:	bf28      	it	cs
 8000506:	f041 4100 	orrcs.w	r1, r1, #2147483648	@ 0x80000000
 800050a:	bd30      	pop	{r4, r5, pc}
 800050c:	f514 0480 	adds.w	r4, r4, #4194304	@ 0x400000
 8000510:	bf3c      	itt	cc
 8000512:	f501 1180 	addcc.w	r1, r1, #1048576	@ 0x100000
 8000516:	bd30      	popcc	{r4, r5, pc}
 8000518:	f001 4500 	and.w	r5, r1, #2147483648	@ 0x80000000
 800051c:	f045 41fe 	orr.w	r1, r5, #2130706432	@ 0x7f000000
 8000520:	f441 0170 	orr.w	r1, r1, #15728640	@ 0xf00000
 8000524:	f04f 0000 	mov.w	r0, #0
 8000528:	bd30      	pop	{r4, r5, pc}
 800052a:	ea7f 5c64 	mvns.w	ip, r4, asr #21
 800052e:	bf1a      	itte	ne
 8000530:	4619      	movne	r1, r3
 8000532:	4610      	movne	r0, r2
 8000534:	ea7f 5c65 	mvnseq.w	ip, r5, asr #21
 8000538:	bf1c      	itt	ne
 800053a:	460b      	movne	r3, r1
 800053c:	4602      	movne	r2, r0
 800053e:	ea50 3401 	orrs.w	r4, r0, r1, lsl #12
 8000542:	bf06      	itte	eq
 8000544:	ea52 3503 	orrseq.w	r5, r2, r3, lsl #12
 8000548:	ea91 0f03 	teqeq	r1, r3
 800054c:	f441 2100 	orrne.w	r1, r1, #524288	@ 0x80000
 8000550:	bd30      	pop	{r4, r5, pc}
 8000552:	bf00      	nop

08000554 <__aeabi_ui2d>:
 8000554:	f090 0f00 	teq	r0, #0
 8000558:	bf04      	itt	eq
 800055a:	2100      	moveq	r1, #0
 800055c:	4770      	bxeq	lr
 800055e:	b530      	push	{r4, r5, lr}
 8000560:	f44f 6480 	mov.w	r4, #1024	@ 0x400
 8000564:	f104 0432 	add.w	r4, r4, #50	@ 0x32
 8000568:	f04f 0500 	mov.w	r5, #0
 800056c:	f04f 0100 	mov.w	r1, #0
 8000570:	e750      	b.n	8000414 <__adddf3+0x138>
 8000572:	bf00      	nop

08000574 <__aeabi_i2d>:
 8000574:	f090 0f00 	teq	r0, #0
 8000578:	bf04      	itt	eq
 800057a:	2100      	moveq	r1, #0
 800057c:	4770      	bxeq	lr
 800057e:	b530      	push	{r4, r5, lr}
 8000580:	f44f 6480 	mov.w	r4, #1024	@ 0x400
 8000584:	f104 0432 	add.w	r4, r4, #50	@ 0x32
 8000588:	f010 4500 	ands.w	r5, r0, #2147483648	@ 0x80000000
 800058c:	bf48      	it	mi
 800058e:	4240      	negmi	r0, r0
 8000590:	f04f 0100 	mov.w	r1, #0
 8000594:	e73e      	b.n	8000414 <__adddf3+0x138>
 8000596:	bf00      	nop

08000598 <__aeabi_f2d>:
 8000598:	0042      	lsls	r2, r0, #1
 800059a:	ea4f 01e2 	mov.w	r1, r2, asr #3
 800059e:	ea4f 0131 	mov.w	r1, r1, rrx
 80005a2:	ea4f 7002 	mov.w	r0, r2, lsl #28
 80005a6:	bf1f      	itttt	ne
 80005a8:	f012 437f 	andsne.w	r3, r2, #4278190080	@ 0xff000000
 80005ac:	f093 4f7f 	teqne	r3, #4278190080	@ 0xff000000
 80005b0:	f081 5160 	eorne.w	r1, r1, #939524096	@ 0x38000000
 80005b4:	4770      	bxne	lr
 80005b6:	f032 427f 	bics.w	r2, r2, #4278190080	@ 0xff000000
 80005ba:	bf08      	it	eq
 80005bc:	4770      	bxeq	lr
 80005be:	f093 4f7f 	teq	r3, #4278190080	@ 0xff000000
 80005c2:	bf04      	itt	eq
 80005c4:	f441 2100 	orreq.w	r1, r1, #524288	@ 0x80000
 80005c8:	4770      	bxeq	lr
 80005ca:	b530      	push	{r4, r5, lr}
 80005cc:	f44f 7460 	mov.w	r4, #896	@ 0x380
 80005d0:	f001 4500 	and.w	r5, r1, #2147483648	@ 0x80000000
 80005d4:	f021 4100 	bic.w	r1, r1, #2147483648	@ 0x80000000
 80005d8:	e71c      	b.n	8000414 <__adddf3+0x138>
 80005da:	bf00      	nop

080005dc <__aeabi_ul2d>:
 80005dc:	ea50 0201 	orrs.w	r2, r0, r1
 80005e0:	bf08      	it	eq
 80005e2:	4770      	bxeq	lr
 80005e4:	b530      	push	{r4, r5, lr}
 80005e6:	f04f 0500 	mov.w	r5, #0
 80005ea:	e00a      	b.n	8000602 <__aeabi_l2d+0x16>

080005ec <__aeabi_l2d>:
 80005ec:	ea50 0201 	orrs.w	r2, r0, r1
 80005f0:	bf08      	it	eq
 80005f2:	4770      	bxeq	lr
 80005f4:	b530      	push	{r4, r5, lr}
 80005f6:	f011 4500 	ands.w	r5, r1, #2147483648	@ 0x80000000
 80005fa:	d502      	bpl.n	8000602 <__aeabi_l2d+0x16>
 80005fc:	4240      	negs	r0, r0
 80005fe:	eb61 0141 	sbc.w	r1, r1, r1, lsl #1
 8000602:	f44f 6480 	mov.w	r4, #1024	@ 0x400
 8000606:	f104 0432 	add.w	r4, r4, #50	@ 0x32
 800060a:	ea5f 5c91 	movs.w	ip, r1, lsr #22
 800060e:	f43f aed8 	beq.w	80003c2 <__adddf3+0xe6>
 8000612:	f04f 0203 	mov.w	r2, #3
 8000616:	ea5f 0cdc 	movs.w	ip, ip, lsr #3
 800061a:	bf18      	it	ne
 800061c:	3203      	addne	r2, #3
 800061e:	ea5f 0cdc 	movs.w	ip, ip, lsr #3
 8000622:	bf18      	it	ne
 8000624:	3203      	addne	r2, #3
 8000626:	eb02 02dc 	add.w	r2, r2, ip, lsr #3
 800062a:	f1c2 0320 	rsb	r3, r2, #32
 800062e:	fa00 fc03 	lsl.w	ip, r0, r3
 8000632:	fa20 f002 	lsr.w	r0, r0, r2
 8000636:	fa01 fe03 	lsl.w	lr, r1, r3
 800063a:	ea40 000e 	orr.w	r0, r0, lr
 800063e:	fa21 f102 	lsr.w	r1, r1, r2
 8000642:	4414      	add	r4, r2
 8000644:	e6bd      	b.n	80003c2 <__adddf3+0xe6>
 8000646:	bf00      	nop

08000648 <__aeabi_dmul>:
 8000648:	b570      	push	{r4, r5, r6, lr}
 800064a:	f04f 0cff 	mov.w	ip, #255	@ 0xff
 800064e:	f44c 6ce0 	orr.w	ip, ip, #1792	@ 0x700
 8000652:	ea1c 5411 	ands.w	r4, ip, r1, lsr #20
 8000656:	bf1d      	ittte	ne
 8000658:	ea1c 5513 	andsne.w	r5, ip, r3, lsr #20
 800065c:	ea94 0f0c 	teqne	r4, ip
 8000660:	ea95 0f0c 	teqne	r5, ip
 8000664:	f000 f8de 	bleq	8000824 <__aeabi_dmul+0x1dc>
 8000668:	442c      	add	r4, r5
 800066a:	ea81 0603 	eor.w	r6, r1, r3
 800066e:	ea21 514c 	bic.w	r1, r1, ip, lsl #21
 8000672:	ea23 534c 	bic.w	r3, r3, ip, lsl #21
 8000676:	ea50 3501 	orrs.w	r5, r0, r1, lsl #12
 800067a:	bf18      	it	ne
 800067c:	ea52 3503 	orrsne.w	r5, r2, r3, lsl #12
 8000680:	f441 1180 	orr.w	r1, r1, #1048576	@ 0x100000
 8000684:	f443 1380 	orr.w	r3, r3, #1048576	@ 0x100000
 8000688:	d038      	beq.n	80006fc <__aeabi_dmul+0xb4>
 800068a:	fba0 ce02 	umull	ip, lr, r0, r2
 800068e:	f04f 0500 	mov.w	r5, #0
 8000692:	fbe1 e502 	umlal	lr, r5, r1, r2
 8000696:	f006 4200 	and.w	r2, r6, #2147483648	@ 0x80000000
 800069a:	fbe0 e503 	umlal	lr, r5, r0, r3
 800069e:	f04f 0600 	mov.w	r6, #0
 80006a2:	fbe1 5603 	umlal	r5, r6, r1, r3
 80006a6:	f09c 0f00 	teq	ip, #0
 80006aa:	bf18      	it	ne
 80006ac:	f04e 0e01 	orrne.w	lr, lr, #1
 80006b0:	f1a4 04ff 	sub.w	r4, r4, #255	@ 0xff
 80006b4:	f5b6 7f00 	cmp.w	r6, #512	@ 0x200
 80006b8:	f564 7440 	sbc.w	r4, r4, #768	@ 0x300
 80006bc:	d204      	bcs.n	80006c8 <__aeabi_dmul+0x80>
 80006be:	ea5f 0e4e 	movs.w	lr, lr, lsl #1
 80006c2:	416d      	adcs	r5, r5
 80006c4:	eb46 0606 	adc.w	r6, r6, r6
 80006c8:	ea42 21c6 	orr.w	r1, r2, r6, lsl #11
 80006cc:	ea41 5155 	orr.w	r1, r1, r5, lsr #21
 80006d0:	ea4f 20c5 	mov.w	r0, r5, lsl #11
 80006d4:	ea40 505e 	orr.w	r0, r0, lr, lsr #21
 80006d8:	ea4f 2ece 	mov.w	lr, lr, lsl #11
 80006dc:	f1b4 0cfd 	subs.w	ip, r4, #253	@ 0xfd
 80006e0:	bf88      	it	hi
 80006e2:	f5bc 6fe0 	cmphi.w	ip, #1792	@ 0x700
 80006e6:	d81e      	bhi.n	8000726 <__aeabi_dmul+0xde>
 80006e8:	f1be 4f00 	cmp.w	lr, #2147483648	@ 0x80000000
 80006ec:	bf08      	it	eq
 80006ee:	ea5f 0e50 	movseq.w	lr, r0, lsr #1
 80006f2:	f150 0000 	adcs.w	r0, r0, #0
 80006f6:	eb41 5104 	adc.w	r1, r1, r4, lsl #20
 80006fa:	bd70      	pop	{r4, r5, r6, pc}
 80006fc:	f006 4600 	and.w	r6, r6, #2147483648	@ 0x80000000
 8000700:	ea46 0101 	orr.w	r1, r6, r1
 8000704:	ea40 0002 	orr.w	r0, r0, r2
 8000708:	ea81 0103 	eor.w	r1, r1, r3
 800070c:	ebb4 045c 	subs.w	r4, r4, ip, lsr #1
 8000710:	bfc2      	ittt	gt
 8000712:	ebd4 050c 	rsbsgt	r5, r4, ip
 8000716:	ea41 5104 	orrgt.w	r1, r1, r4, lsl #20
 800071a:	bd70      	popgt	{r4, r5, r6, pc}
 800071c:	f441 1180 	orr.w	r1, r1, #1048576	@ 0x100000
 8000720:	f04f 0e00 	mov.w	lr, #0
 8000724:	3c01      	subs	r4, #1
 8000726:	f300 80ab 	bgt.w	8000880 <__aeabi_dmul+0x238>
 800072a:	f114 0f36 	cmn.w	r4, #54	@ 0x36
 800072e:	bfde      	ittt	le
 8000730:	2000      	movle	r0, #0
 8000732:	f001 4100 	andle.w	r1, r1, #2147483648	@ 0x80000000
 8000736:	bd70      	pople	{r4, r5, r6, pc}
 8000738:	f1c4 0400 	rsb	r4, r4, #0
 800073c:	3c20      	subs	r4, #32
 800073e:	da35      	bge.n	80007ac <__aeabi_dmul+0x164>
 8000740:	340c      	adds	r4, #12
 8000742:	dc1b      	bgt.n	800077c <__aeabi_dmul+0x134>
 8000744:	f104 0414 	add.w	r4, r4, #20
 8000748:	f1c4 0520 	rsb	r5, r4, #32
 800074c:	fa00 f305 	lsl.w	r3, r0, r5
 8000750:	fa20 f004 	lsr.w	r0, r0, r4
 8000754:	fa01 f205 	lsl.w	r2, r1, r5
 8000758:	ea40 0002 	orr.w	r0, r0, r2
 800075c:	f001 4200 	and.w	r2, r1, #2147483648	@ 0x80000000
 8000760:	f021 4100 	bic.w	r1, r1, #2147483648	@ 0x80000000
 8000764:	eb10 70d3 	adds.w	r0, r0, r3, lsr #31
 8000768:	fa21 f604 	lsr.w	r6, r1, r4
 800076c:	eb42 0106 	adc.w	r1, r2, r6
 8000770:	ea5e 0e43 	orrs.w	lr, lr, r3, lsl #1
 8000774:	bf08      	it	eq
 8000776:	ea20 70d3 	biceq.w	r0, r0, r3, lsr #31
 800077a:	bd70      	pop	{r4, r5, r6, pc}
 800077c:	f1c4 040c 	rsb	r4, r4, #12
 8000780:	f1c4 0520 	rsb	r5, r4, #32
 8000784:	fa00 f304 	lsl.w	r3, r0, r4
 8000788:	fa20 f005 	lsr.w	r0, r0, r5
 800078c:	fa01 f204 	lsl.w	r2, r1, r4
 8000790:	ea40 0002 	orr.w	r0, r0, r2
 8000794:	f001 4100 	and.w	r1, r1, #2147483648	@ 0x80000000
 8000798:	eb10 70d3 	adds.w	r0, r0, r3, lsr #31
 800079c:	f141 0100 	adc.w	r1, r1, #0
 80007a0:	ea5e 0e43 	orrs.w	lr, lr, r3, lsl #1
 80007a4:	bf08      	it	eq
 80007a6:	ea20 70d3 	biceq.w	r0, r0, r3, lsr #31
 80007aa:	bd70      	pop	{r4, r5, r6, pc}
 80007ac:	f1c4 0520 	rsb	r5, r4, #32
 80007b0:	fa00 f205 	lsl.w	r2, r0, r5
 80007b4:	ea4e 0e02 	orr.w	lr, lr, r2
 80007b8:	fa20 f304 	lsr.w	r3, r0, r4
 80007bc:	fa01 f205 	lsl.w	r2, r1, r5
 80007c0:	ea43 0302 	orr.w	r3, r3, r2
 80007c4:	fa21 f004 	lsr.w	r0, r1, r4
 80007c8:	f001 4100 	and.w	r1, r1, #2147483648	@ 0x80000000
 80007cc:	fa21 f204 	lsr.w	r2, r1, r4
 80007d0:	ea20 0002 	bic.w	r0, r0, r2
 80007d4:	eb00 70d3 	add.w	r0, r0, r3, lsr #31
 80007d8:	ea5e 0e43 	orrs.w	lr, lr, r3, lsl #1
 80007dc:	bf08      	it	eq
 80007de:	ea20 70d3 	biceq.w	r0, r0, r3, lsr #31
 80007e2:	bd70      	pop	{r4, r5, r6, pc}
 80007e4:	f094 0f00 	teq	r4, #0
 80007e8:	d10f      	bne.n	800080a <__aeabi_dmul+0x1c2>
 80007ea:	f001 4600 	and.w	r6, r1, #2147483648	@ 0x80000000
 80007ee:	0040      	lsls	r0, r0, #1
 80007f0:	eb41 0101 	adc.w	r1, r1, r1
 80007f4:	f411 1f80 	tst.w	r1, #1048576	@ 0x100000
 80007f8:	bf08      	it	eq
 80007fa:	3c01      	subeq	r4, #1
 80007fc:	d0f7      	beq.n	80007ee <__aeabi_dmul+0x1a6>
 80007fe:	ea41 0106 	orr.w	r1, r1, r6
 8000802:	f095 0f00 	teq	r5, #0
 8000806:	bf18      	it	ne
 8000808:	4770      	bxne	lr
 800080a:	f003 4600 	and.w	r6, r3, #2147483648	@ 0x80000000
 800080e:	0052      	lsls	r2, r2, #1
 8000810:	eb43 0303 	adc.w	r3, r3, r3
 8000814:	f413 1f80 	tst.w	r3, #1048576	@ 0x100000
 8000818:	bf08      	it	eq
 800081a:	3d01      	subeq	r5, #1
 800081c:	d0f7      	beq.n	800080e <__aeabi_dmul+0x1c6>
 800081e:	ea43 0306 	orr.w	r3, r3, r6
 8000822:	4770      	bx	lr
 8000824:	ea94 0f0c 	teq	r4, ip
 8000828:	ea0c 5513 	and.w	r5, ip, r3, lsr #20
 800082c:	bf18      	it	ne
 800082e:	ea95 0f0c 	teqne	r5, ip
 8000832:	d00c      	beq.n	800084e <__aeabi_dmul+0x206>
 8000834:	ea50 0641 	orrs.w	r6, r0, r1, lsl #1
 8000838:	bf18      	it	ne
 800083a:	ea52 0643 	orrsne.w	r6, r2, r3, lsl #1
 800083e:	d1d1      	bne.n	80007e4 <__aeabi_dmul+0x19c>
 8000840:	ea81 0103 	eor.w	r1, r1, r3
 8000844:	f001 4100 	and.w	r1, r1, #2147483648	@ 0x80000000
 8000848:	f04f 0000 	mov.w	r0, #0
 800084c:	bd70      	pop	{r4, r5, r6, pc}
 800084e:	ea50 0641 	orrs.w	r6, r0, r1, lsl #1
 8000852:	bf06      	itte	eq
 8000854:	4610      	moveq	r0, r2
 8000856:	4619      	moveq	r1, r3
 8000858:	ea52 0643 	orrsne.w	r6, r2, r3, lsl #1
 800085c:	d019      	beq.n	8000892 <__aeabi_dmul+0x24a>
 800085e:	ea94 0f0c 	teq	r4, ip
 8000862:	d102      	bne.n	800086a <__aeabi_dmul+0x222>
 8000864:	ea50 3601 	orrs.w	r6, r0, r1, lsl #12
 8000868:	d113      	bne.n	8000892 <__aeabi_dmul+0x24a>
 800086a:	ea95 0f0c 	teq	r5, ip
 800086e:	d105      	bne.n	800087c <__aeabi_dmul+0x234>
 8000870:	ea52 3603 	orrs.w	r6, r2, r3, lsl #12
 8000874:	bf1c      	itt	ne
 8000876:	4610      	movne	r0, r2
 8000878:	4619      	movne	r1, r3
 800087a:	d10a      	bne.n	8000892 <__aeabi_dmul+0x24a>
 800087c:	ea81 0103 	eor.w	r1, r1, r3
 8000880:	f001 4100 	and.w	r1, r1, #2147483648	@ 0x80000000
 8000884:	f041 41fe 	orr.w	r1, r1, #2130706432	@ 0x7f000000
 8000888:	f441 0170 	orr.w	r1, r1, #15728640	@ 0xf00000
 800088c:	f04f 0000 	mov.w	r0, #0
 8000890:	bd70      	pop	{r4, r5, r6, pc}
 8000892:	f041 41fe 	orr.w	r1, r1, #2130706432	@ 0x7f000000
 8000896:	f441 0178 	orr.w	r1, r1, #16252928	@ 0xf80000
 800089a:	bd70      	pop	{r4, r5, r6, pc}

0800089c <__aeabi_ddiv>:
 800089c:	b570      	push	{r4, r5, r6, lr}
 800089e:	f04f 0cff 	mov.w	ip, #255	@ 0xff
 80008a2:	f44c 6ce0 	orr.w	ip, ip, #1792	@ 0x700
 80008a6:	ea1c 5411 	ands.w	r4, ip, r1, lsr #20
 80008aa:	bf1d      	ittte	ne
 80008ac:	ea1c 5513 	andsne.w	r5, ip, r3, lsr #20
 80008b0:	ea94 0f0c 	teqne	r4, ip
 80008b4:	ea95 0f0c 	teqne	r5, ip
 80008b8:	f000 f8a7 	bleq	8000a0a <__aeabi_ddiv+0x16e>
 80008bc:	eba4 0405 	sub.w	r4, r4, r5
 80008c0:	ea81 0e03 	eor.w	lr, r1, r3
 80008c4:	ea52 3503 	orrs.w	r5, r2, r3, lsl #12
 80008c8:	ea4f 3101 	mov.w	r1, r1, lsl #12
 80008cc:	f000 8088 	beq.w	80009e0 <__aeabi_ddiv+0x144>
 80008d0:	ea4f 3303 	mov.w	r3, r3, lsl #12
 80008d4:	f04f 5580 	mov.w	r5, #268435456	@ 0x10000000
 80008d8:	ea45 1313 	orr.w	r3, r5, r3, lsr #4
 80008dc:	ea43 6312 	orr.w	r3, r3, r2, lsr #24
 80008e0:	ea4f 2202 	mov.w	r2, r2, lsl #8
 80008e4:	ea45 1511 	orr.w	r5, r5, r1, lsr #4
 80008e8:	ea45 6510 	orr.w	r5, r5, r0, lsr #24
 80008ec:	ea4f 2600 	mov.w	r6, r0, lsl #8
 80008f0:	f00e 4100 	and.w	r1, lr, #2147483648	@ 0x80000000
 80008f4:	429d      	cmp	r5, r3
 80008f6:	bf08      	it	eq
 80008f8:	4296      	cmpeq	r6, r2
 80008fa:	f144 04fd 	adc.w	r4, r4, #253	@ 0xfd
 80008fe:	f504 7440 	add.w	r4, r4, #768	@ 0x300
 8000902:	d202      	bcs.n	800090a <__aeabi_ddiv+0x6e>
 8000904:	085b      	lsrs	r3, r3, #1
 8000906:	ea4f 0232 	mov.w	r2, r2, rrx
 800090a:	1ab6      	subs	r6, r6, r2
 800090c:	eb65 0503 	sbc.w	r5, r5, r3
 8000910:	085b      	lsrs	r3, r3, #1
 8000912:	ea4f 0232 	mov.w	r2, r2, rrx
 8000916:	f44f 1080 	mov.w	r0, #1048576	@ 0x100000
 800091a:	f44f 2c00 	mov.w	ip, #524288	@ 0x80000
 800091e:	ebb6 0e02 	subs.w	lr, r6, r2
 8000922:	eb75 0e03 	sbcs.w	lr, r5, r3
 8000926:	bf22      	ittt	cs
 8000928:	1ab6      	subcs	r6, r6, r2
 800092a:	4675      	movcs	r5, lr
 800092c:	ea40 000c 	orrcs.w	r0, r0, ip
 8000930:	085b      	lsrs	r3, r3, #1
 8000932:	ea4f 0232 	mov.w	r2, r2, rrx
 8000936:	ebb6 0e02 	subs.w	lr, r6, r2
 800093a:	eb75 0e03 	sbcs.w	lr, r5, r3
 800093e:	bf22      	ittt	cs
 8000940:	1ab6      	subcs	r6, r6, r2
 8000942:	4675      	movcs	r5, lr
 8000944:	ea40 005c 	orrcs.w	r0, r0, ip, lsr #1
 8000948:	085b      	lsrs	r3, r3, #1
 800094a:	ea4f 0232 	mov.w	r2, r2, rrx
 800094e:	ebb6 0e02 	subs.w	lr, r6, r2
 8000952:	eb75 0e03 	sbcs.w	lr, r5, r3
 8000956:	bf22      	ittt	cs
 8000958:	1ab6      	subcs	r6, r6, r2
 800095a:	4675      	movcs	r5, lr
 800095c:	ea40 009c 	orrcs.w	r0, r0, ip, lsr #2
 8000960:	085b      	lsrs	r3, r3, #1
 8000962:	ea4f 0232 	mov.w	r2, r2, rrx
 8000966:	ebb6 0e02 	subs.w	lr, r6, r2
 800096a:	eb75 0e03 	sbcs.w	lr, r5, r3
 800096e:	bf22      	ittt	cs
 8000970:	1ab6      	subcs	r6, r6, r2
 8000972:	4675      	movcs	r5, lr
 8000974:	ea40 00dc 	orrcs.w	r0, r0, ip, lsr #3
 8000978:	ea55 0e06 	orrs.w	lr, r5, r6
 800097c:	d018      	beq.n	80009b0 <__aeabi_ddiv+0x114>
 800097e:	ea4f 1505 	mov.w	r5, r5, lsl #4
 8000982:	ea45 7516 	orr.w	r5, r5, r6, lsr #28
 8000986:	ea4f 1606 	mov.w	r6, r6, lsl #4
 800098a:	ea4f 03c3 	mov.w	r3, r3, lsl #3
 800098e:	ea43 7352 	orr.w	r3, r3, r2, lsr #29
 8000992:	ea4f 02c2 	mov.w	r2, r2, lsl #3
 8000996:	ea5f 1c1c 	movs.w	ip, ip, lsr #4
 800099a:	d1c0      	bne.n	800091e <__aeabi_ddiv+0x82>
 800099c:	f411 1f80 	tst.w	r1, #1048576	@ 0x100000
 80009a0:	d10b      	bne.n	80009ba <__aeabi_ddiv+0x11e>
 80009a2:	ea41 0100 	orr.w	r1, r1, r0
 80009a6:	f04f 0000 	mov.w	r0, #0
 80009aa:	f04f 4c00 	mov.w	ip, #2147483648	@ 0x80000000
 80009ae:	e7b6      	b.n	800091e <__aeabi_ddiv+0x82>
 80009b0:	f411 1f80 	tst.w	r1, #1048576	@ 0x100000
 80009b4:	bf04      	itt	eq
 80009b6:	4301      	orreq	r1, r0
 80009b8:	2000      	moveq	r0, #0
 80009ba:	f1b4 0cfd 	subs.w	ip, r4, #253	@ 0xfd
 80009be:	bf88      	it	hi
 80009c0:	f5bc 6fe0 	cmphi.w	ip, #1792	@ 0x700
 80009c4:	f63f aeaf 	bhi.w	8000726 <__aeabi_dmul+0xde>
 80009c8:	ebb5 0c03 	subs.w	ip, r5, r3
 80009cc:	bf04      	itt	eq
 80009ce:	ebb6 0c02 	subseq.w	ip, r6, r2
 80009d2:	ea5f 0c50 	movseq.w	ip, r0, lsr #1
 80009d6:	f150 0000 	adcs.w	r0, r0, #0
 80009da:	eb41 5104 	adc.w	r1, r1, r4, lsl #20
 80009de:	bd70      	pop	{r4, r5, r6, pc}
 80009e0:	f00e 4e00 	and.w	lr, lr, #2147483648	@ 0x80000000
 80009e4:	ea4e 3111 	orr.w	r1, lr, r1, lsr #12
 80009e8:	eb14 045c 	adds.w	r4, r4, ip, lsr #1
 80009ec:	bfc2      	ittt	gt
 80009ee:	ebd4 050c 	rsbsgt	r5, r4, ip
 80009f2:	ea41 5104 	orrgt.w	r1, r1, r4, lsl #20
 80009f6:	bd70      	popgt	{r4, r5, r6, pc}
 80009f8:	f441 1180 	orr.w	r1, r1, #1048576	@ 0x100000
 80009fc:	f04f 0e00 	mov.w	lr, #0
 8000a00:	3c01      	subs	r4, #1
 8000a02:	e690      	b.n	8000726 <__aeabi_dmul+0xde>
 8000a04:	ea45 0e06 	orr.w	lr, r5, r6
 8000a08:	e68d      	b.n	8000726 <__aeabi_dmul+0xde>
 8000a0a:	ea0c 5513 	and.w	r5, ip, r3, lsr #20
 8000a0e:	ea94 0f0c 	teq	r4, ip
 8000a12:	bf08      	it	eq
 8000a14:	ea95 0f0c 	teqeq	r5, ip
 8000a18:	f43f af3b 	beq.w	8000892 <__aeabi_dmul+0x24a>
 8000a1c:	ea94 0f0c 	teq	r4, ip
 8000a20:	d10a      	bne.n	8000a38 <__aeabi_ddiv+0x19c>
 8000a22:	ea50 3401 	orrs.w	r4, r0, r1, lsl #12
 8000a26:	f47f af34 	bne.w	8000892 <__aeabi_dmul+0x24a>
 8000a2a:	ea95 0f0c 	teq	r5, ip
 8000a2e:	f47f af25 	bne.w	800087c <__aeabi_dmul+0x234>
 8000a32:	4610      	mov	r0, r2
 8000a34:	4619      	mov	r1, r3
 8000a36:	e72c      	b.n	8000892 <__aeabi_dmul+0x24a>
 8000a38:	ea95 0f0c 	teq	r5, ip
 8000a3c:	d106      	bne.n	8000a4c <__aeabi_ddiv+0x1b0>
 8000a3e:	ea52 3503 	orrs.w	r5, r2, r3, lsl #12
 8000a42:	f43f aefd 	beq.w	8000840 <__aeabi_dmul+0x1f8>
 8000a46:	4610      	mov	r0, r2
 8000a48:	4619      	mov	r1, r3
 8000a4a:	e722      	b.n	8000892 <__aeabi_dmul+0x24a>
 8000a4c:	ea50 0641 	orrs.w	r6, r0, r1, lsl #1
 8000a50:	bf18      	it	ne
 8000a52:	ea52 0643 	orrsne.w	r6, r2, r3, lsl #1
 8000a56:	f47f aec5 	bne.w	80007e4 <__aeabi_dmul+0x19c>
 8000a5a:	ea50 0441 	orrs.w	r4, r0, r1, lsl #1
 8000a5e:	f47f af0d 	bne.w	800087c <__aeabi_dmul+0x234>
 8000a62:	ea52 0543 	orrs.w	r5, r2, r3, lsl #1
 8000a66:	f47f aeeb 	bne.w	8000840 <__aeabi_dmul+0x1f8>
 8000a6a:	e712      	b.n	8000892 <__aeabi_dmul+0x24a>

08000a6c <__gedf2>:
 8000a6c:	f04f 3cff 	mov.w	ip, #4294967295
 8000a70:	e006      	b.n	8000a80 <__cmpdf2+0x4>
 8000a72:	bf00      	nop

08000a74 <__ledf2>:
 8000a74:	f04f 0c01 	mov.w	ip, #1
 8000a78:	e002      	b.n	8000a80 <__cmpdf2+0x4>
 8000a7a:	bf00      	nop

08000a7c <__cmpdf2>:
 8000a7c:	f04f 0c01 	mov.w	ip, #1
 8000a80:	f84d cd04 	str.w	ip, [sp, #-4]!
 8000a84:	ea4f 0c41 	mov.w	ip, r1, lsl #1
 8000a88:	ea7f 5c6c 	mvns.w	ip, ip, asr #21
 8000a8c:	ea4f 0c43 	mov.w	ip, r3, lsl #1
 8000a90:	bf18      	it	ne
 8000a92:	ea7f 5c6c 	mvnsne.w	ip, ip, asr #21
 8000a96:	d01b      	beq.n	8000ad0 <__cmpdf2+0x54>
 8000a98:	b001      	add	sp, #4
 8000a9a:	ea50 0c41 	orrs.w	ip, r0, r1, lsl #1
 8000a9e:	bf0c      	ite	eq
 8000aa0:	ea52 0c43 	orrseq.w	ip, r2, r3, lsl #1
 8000aa4:	ea91 0f03 	teqne	r1, r3
 8000aa8:	bf02      	ittt	eq
 8000aaa:	ea90 0f02 	teqeq	r0, r2
 8000aae:	2000      	moveq	r0, #0
 8000ab0:	4770      	bxeq	lr
 8000ab2:	f110 0f00 	cmn.w	r0, #0
 8000ab6:	ea91 0f03 	teq	r1, r3
 8000aba:	bf58      	it	pl
 8000abc:	4299      	cmppl	r1, r3
 8000abe:	bf08      	it	eq
 8000ac0:	4290      	cmpeq	r0, r2
 8000ac2:	bf2c      	ite	cs
 8000ac4:	17d8      	asrcs	r0, r3, #31
 8000ac6:	ea6f 70e3 	mvncc.w	r0, r3, asr #31
 8000aca:	f040 0001 	orr.w	r0, r0, #1
 8000ace:	4770      	bx	lr
 8000ad0:	ea4f 0c41 	mov.w	ip, r1, lsl #1
 8000ad4:	ea7f 5c6c 	mvns.w	ip, ip, asr #21
 8000ad8:	d102      	bne.n	8000ae0 <__cmpdf2+0x64>
 8000ada:	ea50 3c01 	orrs.w	ip, r0, r1, lsl #12
 8000ade:	d107      	bne.n	8000af0 <__cmpdf2+0x74>
 8000ae0:	ea4f 0c43 	mov.w	ip, r3, lsl #1
 8000ae4:	ea7f 5c6c 	mvns.w	ip, ip, asr #21
 8000ae8:	d1d6      	bne.n	8000a98 <__cmpdf2+0x1c>
 8000aea:	ea52 3c03 	orrs.w	ip, r2, r3, lsl #12
 8000aee:	d0d3      	beq.n	8000a98 <__cmpdf2+0x1c>
 8000af0:	f85d 0b04 	ldr.w	r0, [sp], #4
 8000af4:	4770      	bx	lr
 8000af6:	bf00      	nop

08000af8 <__aeabi_cdrcmple>:
 8000af8:	4684      	mov	ip, r0
 8000afa:	4610      	mov	r0, r2
 8000afc:	4662      	mov	r2, ip
 8000afe:	468c      	mov	ip, r1
 8000b00:	4619      	mov	r1, r3
 8000b02:	4663      	mov	r3, ip
 8000b04:	e000      	b.n	8000b08 <__aeabi_cdcmpeq>
 8000b06:	bf00      	nop

08000b08 <__aeabi_cdcmpeq>:
 8000b08:	b501      	push	{r0, lr}
 8000b0a:	f7ff ffb7 	bl	8000a7c <__cmpdf2>
 8000b0e:	2800      	cmp	r0, #0
 8000b10:	bf48      	it	mi
 8000b12:	f110 0f00 	cmnmi.w	r0, #0
 8000b16:	bd01      	pop	{r0, pc}

08000b18 <__aeabi_dcmpeq>:
 8000b18:	f84d ed08 	str.w	lr, [sp, #-8]!
 8000b1c:	f7ff fff4 	bl	8000b08 <__aeabi_cdcmpeq>
 8000b20:	bf0c      	ite	eq
 8000b22:	2001      	moveq	r0, #1
 8000b24:	2000      	movne	r0, #0
 8000b26:	f85d fb08 	ldr.w	pc, [sp], #8
 8000b2a:	bf00      	nop

08000b2c <__aeabi_dcmplt>:
 8000b2c:	f84d ed08 	str.w	lr, [sp, #-8]!
 8000b30:	f7ff ffea 	bl	8000b08 <__aeabi_cdcmpeq>
 8000b34:	bf34      	ite	cc
 8000b36:	2001      	movcc	r0, #1
 8000b38:	2000      	movcs	r0, #0
 8000b3a:	f85d fb08 	ldr.w	pc, [sp], #8
 8000b3e:	bf00      	nop

08000b40 <__aeabi_dcmple>:
 8000b40:	f84d ed08 	str.w	lr, [sp, #-8]!
 8000b44:	f7ff ffe0 	bl	8000b08 <__aeabi_cdcmpeq>
 8000b48:	bf94      	ite	ls
 8000b4a:	2001      	movls	r0, #1
 8000b4c:	2000      	movhi	r0, #0
 8000b4e:	f85d fb08 	ldr.w	pc, [sp], #8
 8000b52:	bf00      	nop

08000b54 <__aeabi_dcmpge>:
 8000b54:	f84d ed08 	str.w	lr, [sp, #-8]!
 8000b58:	f7ff ffce 	bl	8000af8 <__aeabi_cdrcmple>
 8000b5c:	bf94      	ite	ls
 8000b5e:	2001      	movls	r0, #1
 8000b60:	2000      	movhi	r0, #0
 8000b62:	f85d fb08 	ldr.w	pc, [sp], #8
 8000b66:	bf00      	nop

08000b68 <__aeabi_dcmpgt>:
 8000b68:	f84d ed08 	str.w	lr, [sp, #-8]!
 8000b6c:	f7ff ffc4 	bl	8000af8 <__aeabi_cdrcmple>
 8000b70:	bf34      	ite	cc
 8000b72:	2001      	movcc	r0, #1
 8000b74:	2000      	movcs	r0, #0
 8000b76:	f85d fb08 	ldr.w	pc, [sp], #8
 8000b7a:	bf00      	nop

08000b7c <__aeabi_dcmpun>:
 8000b7c:	ea4f 0c41 	mov.w	ip, r1, lsl #1
 8000b80:	ea7f 5c6c 	mvns.w	ip, ip, asr #21
 8000b84:	d102      	bne.n	8000b8c <__aeabi_dcmpun+0x10>
 8000b86:	ea50 3c01 	orrs.w	ip, r0, r1, lsl #12
 8000b8a:	d10a      	bne.n	8000ba2 <__aeabi_dcmpun+0x26>
 8000b8c:	ea4f 0c43 	mov.w	ip, r3, lsl #1
 8000b90:	ea7f 5c6c 	mvns.w	ip, ip, asr #21
 8000b94:	d102      	bne.n	8000b9c <__aeabi_dcmpun+0x20>
 8000b96:	ea52 3c03 	orrs.w	ip, r2, r3, lsl #12
 8000b9a:	d102      	bne.n	8000ba2 <__aeabi_dcmpun+0x26>
 8000b9c:	f04f 0000 	mov.w	r0, #0
 8000ba0:	4770      	bx	lr
 8000ba2:	f04f 0001 	mov.w	r0, #1
 8000ba6:	4770      	bx	lr

08000ba8 <__aeabi_d2iz>:
 8000ba8:	ea4f 0241 	mov.w	r2, r1, lsl #1
 8000bac:	f512 1200 	adds.w	r2, r2, #2097152	@ 0x200000
 8000bb0:	d215      	bcs.n	8000bde <__aeabi_d2iz+0x36>
 8000bb2:	d511      	bpl.n	8000bd8 <__aeabi_d2iz+0x30>
 8000bb4:	f46f 7378 	mvn.w	r3, #992	@ 0x3e0
 8000bb8:	ebb3 5262 	subs.w	r2, r3, r2, asr #21
 8000bbc:	d912      	bls.n	8000be4 <__aeabi_d2iz+0x3c>
 8000bbe:	ea4f 23c1 	mov.w	r3, r1, lsl #11
 8000bc2:	f043 4300 	orr.w	r3, r3, #2147483648	@ 0x80000000
 8000bc6:	ea43 5350 	orr.w	r3, r3, r0, lsr #21
 8000bca:	f011 4f00 	tst.w	r1, #2147483648	@ 0x80000000
 8000bce:	fa23 f002 	lsr.w	r0, r3, r2
 8000bd2:	bf18      	it	ne
 8000bd4:	4240      	negne	r0, r0
 8000bd6:	4770      	bx	lr
 8000bd8:	f04f 0000 	mov.w	r0, #0
 8000bdc:	4770      	bx	lr
 8000bde:	ea50 3001 	orrs.w	r0, r0, r1, lsl #12
 8000be2:	d105      	bne.n	8000bf0 <__aeabi_d2iz+0x48>
 8000be4:	f011 4000 	ands.w	r0, r1, #2147483648	@ 0x80000000
 8000be8:	bf08      	it	eq
 8000bea:	f06f 4000 	mvneq.w	r0, #2147483648	@ 0x80000000
 8000bee:	4770      	bx	lr
 8000bf0:	f04f 0000 	mov.w	r0, #0
 8000bf4:	4770      	bx	lr
 8000bf6:	bf00      	nop

08000bf8 <__aeabi_d2uiz>:
 8000bf8:	004a      	lsls	r2, r1, #1
 8000bfa:	d211      	bcs.n	8000c20 <__aeabi_d2uiz+0x28>
 8000bfc:	f512 1200 	adds.w	r2, r2, #2097152	@ 0x200000
 8000c00:	d211      	bcs.n	8000c26 <__aeabi_d2uiz+0x2e>
 8000c02:	d50d      	bpl.n	8000c20 <__aeabi_d2uiz+0x28>
 8000c04:	f46f 7378 	mvn.w	r3, #992	@ 0x3e0
 8000c08:	ebb3 5262 	subs.w	r2, r3, r2, asr #21
 8000c0c:	d40e      	bmi.n	8000c2c <__aeabi_d2uiz+0x34>
 8000c0e:	ea4f 23c1 	mov.w	r3, r1, lsl #11
 8000c12:	f043 4300 	orr.w	r3, r3, #2147483648	@ 0x80000000
 8000c16:	ea43 5350 	orr.w	r3, r3, r0, lsr #21
 8000c1a:	fa23 f002 	lsr.w	r0, r3, r2
 8000c1e:	4770      	bx	lr
 8000c20:	f04f 0000 	mov.w	r0, #0
 8000c24:	4770      	bx	lr
 8000c26:	ea50 3001 	orrs.w	r0, r0, r1, lsl #12
 8000c2a:	d102      	bne.n	8000c32 <__aeabi_d2uiz+0x3a>
 8000c2c:	f04f 30ff 	mov.w	r0, #4294967295
 8000c30:	4770      	bx	lr
 8000c32:	f04f 0000 	mov.w	r0, #0
 8000c36:	4770      	bx	lr

08000c38 <__aeabi_d2f>:
 8000c38:	ea4f 0241 	mov.w	r2, r1, lsl #1
 8000c3c:	f1b2 43e0 	subs.w	r3, r2, #1879048192	@ 0x70000000
 8000c40:	bf24      	itt	cs
 8000c42:	f5b3 1c00 	subscs.w	ip, r3, #2097152	@ 0x200000
 8000c46:	f1dc 5cfe 	rsbscs	ip, ip, #532676608	@ 0x1fc00000
 8000c4a:	d90d      	bls.n	8000c68 <__aeabi_d2f+0x30>
 8000c4c:	f001 4c00 	and.w	ip, r1, #2147483648	@ 0x80000000
 8000c50:	ea4f 02c0 	mov.w	r2, r0, lsl #3
 8000c54:	ea4c 7050 	orr.w	r0, ip, r0, lsr #29
 8000c58:	f1b2 4f00 	cmp.w	r2, #2147483648	@ 0x80000000
 8000c5c:	eb40 0083 	adc.w	r0, r0, r3, lsl #2
 8000c60:	bf08      	it	eq
 8000c62:	f020 0001 	biceq.w	r0, r0, #1
 8000c66:	4770      	bx	lr
 8000c68:	f011 4f80 	tst.w	r1, #1073741824	@ 0x40000000
 8000c6c:	d121      	bne.n	8000cb2 <__aeabi_d2f+0x7a>
 8000c6e:	f113 7238 	adds.w	r2, r3, #48234496	@ 0x2e00000
 8000c72:	bfbc      	itt	lt
 8000c74:	f001 4000 	andlt.w	r0, r1, #2147483648	@ 0x80000000
 8000c78:	4770      	bxlt	lr
 8000c7a:	f441 1180 	orr.w	r1, r1, #1048576	@ 0x100000
 8000c7e:	ea4f 5252 	mov.w	r2, r2, lsr #21
 8000c82:	f1c2 0218 	rsb	r2, r2, #24
 8000c86:	f1c2 0c20 	rsb	ip, r2, #32
 8000c8a:	fa10 f30c 	lsls.w	r3, r0, ip
 8000c8e:	fa20 f002 	lsr.w	r0, r0, r2
 8000c92:	bf18      	it	ne
 8000c94:	f040 0001 	orrne.w	r0, r0, #1
 8000c98:	ea4f 23c1 	mov.w	r3, r1, lsl #11
 8000c9c:	ea4f 23d3 	mov.w	r3, r3, lsr #11
 8000ca0:	fa03 fc0c 	lsl.w	ip, r3, ip
 8000ca4:	ea40 000c 	orr.w	r0, r0, ip
 8000ca8:	fa23 f302 	lsr.w	r3, r3, r2
 8000cac:	ea4f 0343 	mov.w	r3, r3, lsl #1
 8000cb0:	e7cc      	b.n	8000c4c <__aeabi_d2f+0x14>
 8000cb2:	ea7f 5362 	mvns.w	r3, r2, asr #21
 8000cb6:	d107      	bne.n	8000cc8 <__aeabi_d2f+0x90>
 8000cb8:	ea50 3301 	orrs.w	r3, r0, r1, lsl #12
 8000cbc:	bf1e      	ittt	ne
 8000cbe:	f04f 40fe 	movne.w	r0, #2130706432	@ 0x7f000000
 8000cc2:	f440 0040 	orrne.w	r0, r0, #12582912	@ 0xc00000
 8000cc6:	4770      	bxne	lr
 8000cc8:	f001 4000 	and.w	r0, r1, #2147483648	@ 0x80000000
 8000ccc:	f040 40fe 	orr.w	r0, r0, #2130706432	@ 0x7f000000
 8000cd0:	f440 0000 	orr.w	r0, r0, #8388608	@ 0x800000
 8000cd4:	4770      	bx	lr
 8000cd6:	bf00      	nop

08000cd8 <__aeabi_uldivmod>:
 8000cd8:	b953      	cbnz	r3, 8000cf0 <__aeabi_uldivmod+0x18>
 8000cda:	b94a      	cbnz	r2, 8000cf0 <__aeabi_uldivmod+0x18>
 8000cdc:	2900      	cmp	r1, #0
 8000cde:	bf08      	it	eq
 8000ce0:	2800      	cmpeq	r0, #0
 8000ce2:	bf1c      	itt	ne
 8000ce4:	f04f 31ff 	movne.w	r1, #4294967295
 8000ce8:	f04f 30ff 	movne.w	r0, #4294967295
 8000cec:	f000 b9be 	b.w	800106c <__aeabi_idiv0>
 8000cf0:	f1ad 0c08 	sub.w	ip, sp, #8
 8000cf4:	e96d ce04 	strd	ip, lr, [sp, #-16]!
 8000cf8:	f000 f83c 	bl	8000d74 <__udivmoddi4>
 8000cfc:	f8dd e004 	ldr.w	lr, [sp, #4]
 8000d00:	e9dd 2302 	ldrd	r2, r3, [sp, #8]
 8000d04:	b004      	add	sp, #16
 8000d06:	4770      	bx	lr

08000d08 <__aeabi_d2lz>:
 8000d08:	b538      	push	{r3, r4, r5, lr}
 8000d0a:	2200      	movs	r2, #0
 8000d0c:	2300      	movs	r3, #0
 8000d0e:	4604      	mov	r4, r0
 8000d10:	460d      	mov	r5, r1
 8000d12:	f7ff ff0b 	bl	8000b2c <__aeabi_dcmplt>
 8000d16:	b928      	cbnz	r0, 8000d24 <__aeabi_d2lz+0x1c>
 8000d18:	4620      	mov	r0, r4
 8000d1a:	4629      	mov	r1, r5
 8000d1c:	e8bd 4038 	ldmia.w	sp!, {r3, r4, r5, lr}
 8000d20:	f000 b80a 	b.w	8000d38 <__aeabi_d2ulz>
 8000d24:	4620      	mov	r0, r4
 8000d26:	f105 4100 	add.w	r1, r5, #2147483648	@ 0x80000000
 8000d2a:	f000 f805 	bl	8000d38 <__aeabi_d2ulz>
 8000d2e:	4240      	negs	r0, r0
 8000d30:	eb61 0141 	sbc.w	r1, r1, r1, lsl #1
 8000d34:	bd38      	pop	{r3, r4, r5, pc}
 8000d36:	bf00      	nop

08000d38 <__aeabi_d2ulz>:
 8000d38:	b5d0      	push	{r4, r6, r7, lr}
 8000d3a:	4b0c      	ldr	r3, [pc, #48]	@ (8000d6c <__aeabi_d2ulz+0x34>)
 8000d3c:	2200      	movs	r2, #0
 8000d3e:	4606      	mov	r6, r0
 8000d40:	460f      	mov	r7, r1
 8000d42:	f7ff fc81 	bl	8000648 <__aeabi_dmul>
 8000d46:	f7ff ff57 	bl	8000bf8 <__aeabi_d2uiz>
 8000d4a:	4604      	mov	r4, r0
 8000d4c:	f7ff fc02 	bl	8000554 <__aeabi_ui2d>
 8000d50:	4b07      	ldr	r3, [pc, #28]	@ (8000d70 <__aeabi_d2ulz+0x38>)
 8000d52:	2200      	movs	r2, #0
 8000d54:	f7ff fc78 	bl	8000648 <__aeabi_dmul>
 8000d58:	4602      	mov	r2, r0
 8000d5a:	460b      	mov	r3, r1
 8000d5c:	4630      	mov	r0, r6
 8000d5e:	4639      	mov	r1, r7
 8000d60:	f7ff faba 	bl	80002d8 <__aeabi_dsub>
 8000d64:	f7ff ff48 	bl	8000bf8 <__aeabi_d2uiz>
 8000d68:	4621      	mov	r1, r4
 8000d6a:	bdd0      	pop	{r4, r6, r7, pc}
 8000d6c:	3df00000 	.word	0x3df00000
 8000d70:	41f00000 	.word	0x41f00000

08000d74 <__udivmoddi4>:
 8000d74:	e92d 47f0 	stmdb	sp!, {r4, r5, r6, r7, r8, r9, sl, lr}
 8000d78:	9d08      	ldr	r5, [sp, #32]
 8000d7a:	468e      	mov	lr, r1
 8000d7c:	4604      	mov	r4, r0
 8000d7e:	4688      	mov	r8, r1
 8000d80:	2b00      	cmp	r3, #0
 8000d82:	d14a      	bne.n	8000e1a <__udivmoddi4+0xa6>
 8000d84:	428a      	cmp	r2, r1
 8000d86:	4617      	mov	r7, r2
 8000d88:	d962      	bls.n	8000e50 <__udivmoddi4+0xdc>
 8000d8a:	fab2 f682 	clz	r6, r2
 8000d8e:	b14e      	cbz	r6, 8000da4 <__udivmoddi4+0x30>
 8000d90:	f1c6 0320 	rsb	r3, r6, #32
 8000d94:	fa01 f806 	lsl.w	r8, r1, r6
 8000d98:	fa20 f303 	lsr.w	r3, r0, r3
 8000d9c:	40b7      	lsls	r7, r6
 8000d9e:	ea43 0808 	orr.w	r8, r3, r8
 8000da2:	40b4      	lsls	r4, r6
 8000da4:	ea4f 4e17 	mov.w	lr, r7, lsr #16
 8000da8:	fa1f fc87 	uxth.w	ip, r7
 8000dac:	fbb8 f1fe 	udiv	r1, r8, lr
 8000db0:	0c23      	lsrs	r3, r4, #16
 8000db2:	fb0e 8811 	mls	r8, lr, r1, r8
 8000db6:	ea43 4308 	orr.w	r3, r3, r8, lsl #16
 8000dba:	fb01 f20c 	mul.w	r2, r1, ip
 8000dbe:	429a      	cmp	r2, r3
 8000dc0:	d909      	bls.n	8000dd6 <__udivmoddi4+0x62>
 8000dc2:	18fb      	adds	r3, r7, r3
 8000dc4:	f101 30ff 	add.w	r0, r1, #4294967295
 8000dc8:	f080 80ea 	bcs.w	8000fa0 <__udivmoddi4+0x22c>
 8000dcc:	429a      	cmp	r2, r3
 8000dce:	f240 80e7 	bls.w	8000fa0 <__udivmoddi4+0x22c>
 8000dd2:	3902      	subs	r1, #2
 8000dd4:	443b      	add	r3, r7
 8000dd6:	1a9a      	subs	r2, r3, r2
 8000dd8:	b2a3      	uxth	r3, r4
 8000dda:	fbb2 f0fe 	udiv	r0, r2, lr
 8000dde:	fb0e 2210 	mls	r2, lr, r0, r2
 8000de2:	ea43 4302 	orr.w	r3, r3, r2, lsl #16
 8000de6:	fb00 fc0c 	mul.w	ip, r0, ip
 8000dea:	459c      	cmp	ip, r3
 8000dec:	d909      	bls.n	8000e02 <__udivmoddi4+0x8e>
 8000dee:	18fb      	adds	r3, r7, r3
 8000df0:	f100 32ff 	add.w	r2, r0, #4294967295
 8000df4:	f080 80d6 	bcs.w	8000fa4 <__udivmoddi4+0x230>
 8000df8:	459c      	cmp	ip, r3
 8000dfa:	f240 80d3 	bls.w	8000fa4 <__udivmoddi4+0x230>
 8000dfe:	443b      	add	r3, r7
 8000e00:	3802      	subs	r0, #2
 8000e02:	ea40 4001 	orr.w	r0, r0, r1, lsl #16
 8000e06:	eba3 030c 	sub.w	r3, r3, ip
 8000e0a:	2100      	movs	r1, #0
 8000e0c:	b11d      	cbz	r5, 8000e16 <__udivmoddi4+0xa2>
 8000e0e:	40f3      	lsrs	r3, r6
 8000e10:	2200      	movs	r2, #0
 8000e12:	e9c5 3200 	strd	r3, r2, [r5]
 8000e16:	e8bd 87f0 	ldmia.w	sp!, {r4, r5, r6, r7, r8, r9, sl, pc}
 8000e1a:	428b      	cmp	r3, r1
 8000e1c:	d905      	bls.n	8000e2a <__udivmoddi4+0xb6>
 8000e1e:	b10d      	cbz	r5, 8000e24 <__udivmoddi4+0xb0>
 8000e20:	e9c5 0100 	strd	r0, r1, [r5]
 8000e24:	2100      	movs	r1, #0
 8000e26:	4608      	mov	r0, r1
 8000e28:	e7f5      	b.n	8000e16 <__udivmoddi4+0xa2>
 8000e2a:	fab3 f183 	clz	r1, r3
 8000e2e:	2900      	cmp	r1, #0
 8000e30:	d146      	bne.n	8000ec0 <__udivmoddi4+0x14c>
 8000e32:	4573      	cmp	r3, lr
 8000e34:	d302      	bcc.n	8000e3c <__udivmoddi4+0xc8>
 8000e36:	4282      	cmp	r2, r0
 8000e38:	f200 8105 	bhi.w	8001046 <__udivmoddi4+0x2d2>
 8000e3c:	1a84      	subs	r4, r0, r2
 8000e3e:	eb6e 0203 	sbc.w	r2, lr, r3
 8000e42:	2001      	movs	r0, #1
 8000e44:	4690      	mov	r8, r2
 8000e46:	2d00      	cmp	r5, #0
 8000e48:	d0e5      	beq.n	8000e16 <__udivmoddi4+0xa2>
 8000e4a:	e9c5 4800 	strd	r4, r8, [r5]
 8000e4e:	e7e2      	b.n	8000e16 <__udivmoddi4+0xa2>
 8000e50:	2a00      	cmp	r2, #0
 8000e52:	f000 8090 	beq.w	8000f76 <__udivmoddi4+0x202>
 8000e56:	fab2 f682 	clz	r6, r2
 8000e5a:	2e00      	cmp	r6, #0
 8000e5c:	f040 80a4 	bne.w	8000fa8 <__udivmoddi4+0x234>
 8000e60:	1a8a      	subs	r2, r1, r2
 8000e62:	0c03      	lsrs	r3, r0, #16
 8000e64:	ea4f 4e17 	mov.w	lr, r7, lsr #16
 8000e68:	b280      	uxth	r0, r0
 8000e6a:	b2bc      	uxth	r4, r7
 8000e6c:	2101      	movs	r1, #1
 8000e6e:	fbb2 fcfe 	udiv	ip, r2, lr
 8000e72:	fb0e 221c 	mls	r2, lr, ip, r2
 8000e76:	ea43 4302 	orr.w	r3, r3, r2, lsl #16
 8000e7a:	fb04 f20c 	mul.w	r2, r4, ip
 8000e7e:	429a      	cmp	r2, r3
 8000e80:	d907      	bls.n	8000e92 <__udivmoddi4+0x11e>
 8000e82:	18fb      	adds	r3, r7, r3
 8000e84:	f10c 38ff 	add.w	r8, ip, #4294967295
 8000e88:	d202      	bcs.n	8000e90 <__udivmoddi4+0x11c>
 8000e8a:	429a      	cmp	r2, r3
 8000e8c:	f200 80e0 	bhi.w	8001050 <__udivmoddi4+0x2dc>
 8000e90:	46c4      	mov	ip, r8
 8000e92:	1a9b      	subs	r3, r3, r2
 8000e94:	fbb3 f2fe 	udiv	r2, r3, lr
 8000e98:	fb0e 3312 	mls	r3, lr, r2, r3
 8000e9c:	ea40 4303 	orr.w	r3, r0, r3, lsl #16
 8000ea0:	fb02 f404 	mul.w	r4, r2, r4
 8000ea4:	429c      	cmp	r4, r3
 8000ea6:	d907      	bls.n	8000eb8 <__udivmoddi4+0x144>
 8000ea8:	18fb      	adds	r3, r7, r3
 8000eaa:	f102 30ff 	add.w	r0, r2, #4294967295
 8000eae:	d202      	bcs.n	8000eb6 <__udivmoddi4+0x142>
 8000eb0:	429c      	cmp	r4, r3
 8000eb2:	f200 80ca 	bhi.w	800104a <__udivmoddi4+0x2d6>
 8000eb6:	4602      	mov	r2, r0
 8000eb8:	1b1b      	subs	r3, r3, r4
 8000eba:	ea42 400c 	orr.w	r0, r2, ip, lsl #16
 8000ebe:	e7a5      	b.n	8000e0c <__udivmoddi4+0x98>
 8000ec0:	f1c1 0620 	rsb	r6, r1, #32
 8000ec4:	408b      	lsls	r3, r1
 8000ec6:	fa22 f706 	lsr.w	r7, r2, r6
 8000eca:	431f      	orrs	r7, r3
 8000ecc:	fa0e f401 	lsl.w	r4, lr, r1
 8000ed0:	fa20 f306 	lsr.w	r3, r0, r6
 8000ed4:	fa2e fe06 	lsr.w	lr, lr, r6
 8000ed8:	ea4f 4917 	mov.w	r9, r7, lsr #16
 8000edc:	4323      	orrs	r3, r4
 8000ede:	fa00 f801 	lsl.w	r8, r0, r1
 8000ee2:	fa1f fc87 	uxth.w	ip, r7
 8000ee6:	fbbe f0f9 	udiv	r0, lr, r9
 8000eea:	0c1c      	lsrs	r4, r3, #16
 8000eec:	fb09 ee10 	mls	lr, r9, r0, lr
 8000ef0:	ea44 440e 	orr.w	r4, r4, lr, lsl #16
 8000ef4:	fb00 fe0c 	mul.w	lr, r0, ip
 8000ef8:	45a6      	cmp	lr, r4
 8000efa:	fa02 f201 	lsl.w	r2, r2, r1
 8000efe:	d909      	bls.n	8000f14 <__udivmoddi4+0x1a0>
 8000f00:	193c      	adds	r4, r7, r4
 8000f02:	f100 3aff 	add.w	sl, r0, #4294967295
 8000f06:	f080 809c 	bcs.w	8001042 <__udivmoddi4+0x2ce>
 8000f0a:	45a6      	cmp	lr, r4
 8000f0c:	f240 8099 	bls.w	8001042 <__udivmoddi4+0x2ce>
 8000f10:	3802      	subs	r0, #2
 8000f12:	443c      	add	r4, r7
 8000f14:	eba4 040e 	sub.w	r4, r4, lr
 8000f18:	fa1f fe83 	uxth.w	lr, r3
 8000f1c:	fbb4 f3f9 	udiv	r3, r4, r9
 8000f20:	fb09 4413 	mls	r4, r9, r3, r4
 8000f24:	ea4e 4404 	orr.w	r4, lr, r4, lsl #16
 8000f28:	fb03 fc0c 	mul.w	ip, r3, ip
 8000f2c:	45a4      	cmp	ip, r4
 8000f2e:	d908      	bls.n	8000f42 <__udivmoddi4+0x1ce>
 8000f30:	193c      	adds	r4, r7, r4
 8000f32:	f103 3eff 	add.w	lr, r3, #4294967295
 8000f36:	f080 8082 	bcs.w	800103e <__udivmoddi4+0x2ca>
 8000f3a:	45a4      	cmp	ip, r4
 8000f3c:	d97f      	bls.n	800103e <__udivmoddi4+0x2ca>
 8000f3e:	3b02      	subs	r3, #2
 8000f40:	443c      	add	r4, r7
 8000f42:	ea43 4000 	orr.w	r0, r3, r0, lsl #16
 8000f46:	eba4 040c 	sub.w	r4, r4, ip
 8000f4a:	fba0 ec02 	umull	lr, ip, r0, r2
 8000f4e:	4564      	cmp	r4, ip
 8000f50:	4673      	mov	r3, lr
 8000f52:	46e1      	mov	r9, ip
 8000f54:	d362      	bcc.n	800101c <__udivmoddi4+0x2a8>
 8000f56:	d05f      	beq.n	8001018 <__udivmoddi4+0x2a4>
 8000f58:	b15d      	cbz	r5, 8000f72 <__udivmoddi4+0x1fe>
 8000f5a:	ebb8 0203 	subs.w	r2, r8, r3
 8000f5e:	eb64 0409 	sbc.w	r4, r4, r9
 8000f62:	fa04 f606 	lsl.w	r6, r4, r6
 8000f66:	fa22 f301 	lsr.w	r3, r2, r1
 8000f6a:	431e      	orrs	r6, r3
 8000f6c:	40cc      	lsrs	r4, r1
 8000f6e:	e9c5 6400 	strd	r6, r4, [r5]
 8000f72:	2100      	movs	r1, #0
 8000f74:	e74f      	b.n	8000e16 <__udivmoddi4+0xa2>
 8000f76:	fbb1 fcf2 	udiv	ip, r1, r2
 8000f7a:	0c01      	lsrs	r1, r0, #16
 8000f7c:	ea41 410e 	orr.w	r1, r1, lr, lsl #16
 8000f80:	b280      	uxth	r0, r0
 8000f82:	ea40 4201 	orr.w	r2, r0, r1, lsl #16
 8000f86:	463b      	mov	r3, r7
 8000f88:	4638      	mov	r0, r7
 8000f8a:	463c      	mov	r4, r7
 8000f8c:	46b8      	mov	r8, r7
 8000f8e:	46be      	mov	lr, r7
 8000f90:	2620      	movs	r6, #32
 8000f92:	fbb1 f1f7 	udiv	r1, r1, r7
 8000f96:	eba2 0208 	sub.w	r2, r2, r8
 8000f9a:	ea41 410c 	orr.w	r1, r1, ip, lsl #16
 8000f9e:	e766      	b.n	8000e6e <__udivmoddi4+0xfa>
 8000fa0:	4601      	mov	r1, r0
 8000fa2:	e718      	b.n	8000dd6 <__udivmoddi4+0x62>
 8000fa4:	4610      	mov	r0, r2
 8000fa6:	e72c      	b.n	8000e02 <__udivmoddi4+0x8e>
 8000fa8:	f1c6 0220 	rsb	r2, r6, #32
 8000fac:	fa2e f302 	lsr.w	r3, lr, r2
 8000fb0:	40b7      	lsls	r7, r6
 8000fb2:	40b1      	lsls	r1, r6
 8000fb4:	fa20 f202 	lsr.w	r2, r0, r2
 8000fb8:	ea4f 4e17 	mov.w	lr, r7, lsr #16
 8000fbc:	430a      	orrs	r2, r1
 8000fbe:	fbb3 f8fe 	udiv	r8, r3, lr
 8000fc2:	b2bc      	uxth	r4, r7
 8000fc4:	fb0e 3318 	mls	r3, lr, r8, r3
 8000fc8:	0c11      	lsrs	r1, r2, #16
 8000fca:	ea41 4103 	orr.w	r1, r1, r3, lsl #16
 8000fce:	fb08 f904 	mul.w	r9, r8, r4
 8000fd2:	40b0      	lsls	r0, r6
 8000fd4:	4589      	cmp	r9, r1
 8000fd6:	ea4f 4310 	mov.w	r3, r0, lsr #16
 8000fda:	b280      	uxth	r0, r0
 8000fdc:	d93e      	bls.n	800105c <__udivmoddi4+0x2e8>
 8000fde:	1879      	adds	r1, r7, r1
 8000fe0:	f108 3cff 	add.w	ip, r8, #4294967295
 8000fe4:	d201      	bcs.n	8000fea <__udivmoddi4+0x276>
 8000fe6:	4589      	cmp	r9, r1
 8000fe8:	d81f      	bhi.n	800102a <__udivmoddi4+0x2b6>
 8000fea:	eba1 0109 	sub.w	r1, r1, r9
 8000fee:	fbb1 f9fe 	udiv	r9, r1, lr
 8000ff2:	fb09 f804 	mul.w	r8, r9, r4
 8000ff6:	fb0e 1119 	mls	r1, lr, r9, r1
 8000ffa:	b292      	uxth	r2, r2
 8000ffc:	ea42 4201 	orr.w	r2, r2, r1, lsl #16
 8001000:	4542      	cmp	r2, r8
 8001002:	d229      	bcs.n	8001058 <__udivmoddi4+0x2e4>
 8001004:	18ba      	adds	r2, r7, r2
 8001006:	f109 31ff 	add.w	r1, r9, #4294967295
 800100a:	d2c4      	bcs.n	8000f96 <__udivmoddi4+0x222>
 800100c:	4542      	cmp	r2, r8
 800100e:	d2c2      	bcs.n	8000f96 <__udivmoddi4+0x222>
 8001010:	f1a9 0102 	sub.w	r1, r9, #2
 8001014:	443a      	add	r2, r7
 8001016:	e7be      	b.n	8000f96 <__udivmoddi4+0x222>
 8001018:	45f0      	cmp	r8, lr
 800101a:	d29d      	bcs.n	8000f58 <__udivmoddi4+0x1e4>
 800101c:	ebbe 0302 	subs.w	r3, lr, r2
 8001020:	eb6c 0c07 	sbc.w	ip, ip, r7
 8001024:	3801      	subs	r0, #1
 8001026:	46e1      	mov	r9, ip
 8001028:	e796      	b.n	8000f58 <__udivmoddi4+0x1e4>
 800102a:	eba7 0909 	sub.w	r9, r7, r9
 800102e:	4449      	add	r1, r9
 8001030:	f1a8 0c02 	sub.w	ip, r8, #2
 8001034:	fbb1 f9fe 	udiv	r9, r1, lr
 8001038:	fb09 f804 	mul.w	r8, r9, r4
 800103c:	e7db      	b.n	8000ff6 <__udivmoddi4+0x282>
 800103e:	4673      	mov	r3, lr
 8001040:	e77f      	b.n	8000f42 <__udivmoddi4+0x1ce>
 8001042:	4650      	mov	r0, sl
 8001044:	e766      	b.n	8000f14 <__udivmoddi4+0x1a0>
 8001046:	4608      	mov	r0, r1
 8001048:	e6fd      	b.n	8000e46 <__udivmoddi4+0xd2>
 800104a:	443b      	add	r3, r7
 800104c:	3a02      	subs	r2, #2
 800104e:	e733      	b.n	8000eb8 <__udivmoddi4+0x144>
 8001050:	f1ac 0c02 	sub.w	ip, ip, #2
 8001054:	443b      	add	r3, r7
 8001056:	e71c      	b.n	8000e92 <__udivmoddi4+0x11e>
 8001058:	4649      	mov	r1, r9
 800105a:	e79c      	b.n	8000f96 <__udivmoddi4+0x222>
 800105c:	eba1 0109 	sub.w	r1, r1, r9
 8001060:	46c4      	mov	ip, r8
 8001062:	fbb1 f9fe 	udiv	r9, r1, lr
 8001066:	fb09 f804 	mul.w	r8, r9, r4
 800106a:	e7c4      	b.n	8000ff6 <__udivmoddi4+0x282>

0800106c <__aeabi_idiv0>:
 800106c:	4770      	bx	lr
 800106e:	bf00      	nop

08001070 <MX_DMA_Init>:
 8001070:	4b13      	ldr	r3, [pc, #76]	@ (80010c0 <MX_DMA_Init+0x50>)
 8001072:	b507      	push	{r0, r1, r2, lr}
 8001074:	6c9a      	ldr	r2, [r3, #72]	@ 0x48
 8001076:	f042 0204 	orr.w	r2, r2, #4
 800107a:	649a      	str	r2, [r3, #72]	@ 0x48
 800107c:	6c9a      	ldr	r2, [r3, #72]	@ 0x48
 800107e:	f002 0204 	and.w	r2, r2, #4
 8001082:	9200      	str	r2, [sp, #0]
 8001084:	9a00      	ldr	r2, [sp, #0]
 8001086:	6c9a      	ldr	r2, [r3, #72]	@ 0x48
 8001088:	f042 0201 	orr.w	r2, r2, #1
 800108c:	649a      	str	r2, [r3, #72]	@ 0x48
 800108e:	6c9b      	ldr	r3, [r3, #72]	@ 0x48
 8001090:	2200      	movs	r2, #0
 8001092:	f003 0301 	and.w	r3, r3, #1
 8001096:	4611      	mov	r1, r2
 8001098:	9301      	str	r3, [sp, #4]
 800109a:	200b      	movs	r0, #11
 800109c:	9b01      	ldr	r3, [sp, #4]
 800109e:	f000 fb97 	bl	80017d0 <HAL_NVIC_SetPriority>
 80010a2:	200b      	movs	r0, #11
 80010a4:	f000 fbc6 	bl	8001834 <HAL_NVIC_EnableIRQ>
 80010a8:	2200      	movs	r2, #0
 80010aa:	4611      	mov	r1, r2
 80010ac:	200c      	movs	r0, #12
 80010ae:	f000 fb8f 	bl	80017d0 <HAL_NVIC_SetPriority>
 80010b2:	200c      	movs	r0, #12
 80010b4:	b003      	add	sp, #12
 80010b6:	f85d eb04 	ldr.w	lr, [sp], #4
 80010ba:	f000 bbbb 	b.w	8001834 <HAL_NVIC_EnableIRQ>
 80010be:	bf00      	nop
 80010c0:	40021000 	.word	0x40021000

080010c4 <Start_DMA_Receive>:
 80010c4:	b510      	push	{r4, lr}
 80010c6:	4c0a      	ldr	r4, [pc, #40]	@ (80010f0 <Start_DMA_Receive+0x2c>)
 80010c8:	4620      	mov	r0, r4
 80010ca:	2100      	movs	r1, #0
 80010cc:	f810 2b02 	ldrb.w	r2, [r0], #2
 80010d0:	f003 f90b 	bl	80042ea <memset>
 80010d4:	2300      	movs	r3, #0
 80010d6:	4807      	ldr	r0, [pc, #28]	@ (80010f4 <Start_DMA_Receive+0x30>)
 80010d8:	7023      	strb	r3, [r4, #0]
 80010da:	22ff      	movs	r2, #255	@ 0xff
 80010dc:	1ca1      	adds	r1, r4, #2
 80010de:	7063      	strb	r3, [r4, #1]
 80010e0:	f002 f8d6 	bl	8003290 <HAL_UART_Receive_DMA>
 80010e4:	b118      	cbz	r0, 80010ee <Start_DMA_Receive+0x2a>
 80010e6:	e8bd 4010 	ldmia.w	sp!, {r4, lr}
 80010ea:	f000 b8b3 	b.w	8001254 <Error_Handler>
 80010ee:	bd10      	pop	{r4, pc}
 80010f0:	20000554 	.word	0x20000554
 80010f4:	200004c0 	.word	0x200004c0

080010f8 <MX_GPIO_Init>:
 80010f8:	b510      	push	{r4, lr}
 80010fa:	b088      	sub	sp, #32
 80010fc:	2214      	movs	r2, #20
 80010fe:	2100      	movs	r1, #0
 8001100:	a803      	add	r0, sp, #12
 8001102:	f003 f8f2 	bl	80042ea <memset>
 8001106:	4b18      	ldr	r3, [pc, #96]	@ (8001168 <MX_GPIO_Init+0x70>)
 8001108:	4c18      	ldr	r4, [pc, #96]	@ (800116c <MX_GPIO_Init+0x74>)
 800110a:	6cda      	ldr	r2, [r3, #76]	@ 0x4c
 800110c:	f042 0220 	orr.w	r2, r2, #32
 8001110:	64da      	str	r2, [r3, #76]	@ 0x4c
 8001112:	6cda      	ldr	r2, [r3, #76]	@ 0x4c
 8001114:	f002 0220 	and.w	r2, r2, #32
 8001118:	9200      	str	r2, [sp, #0]
 800111a:	9a00      	ldr	r2, [sp, #0]
 800111c:	6cda      	ldr	r2, [r3, #76]	@ 0x4c
 800111e:	f042 0202 	orr.w	r2, r2, #2
 8001122:	64da      	str	r2, [r3, #76]	@ 0x4c
 8001124:	6cda      	ldr	r2, [r3, #76]	@ 0x4c
 8001126:	f002 0202 	and.w	r2, r2, #2
 800112a:	9201      	str	r2, [sp, #4]
 800112c:	9a01      	ldr	r2, [sp, #4]
 800112e:	6cda      	ldr	r2, [r3, #76]	@ 0x4c
 8001130:	f042 0201 	orr.w	r2, r2, #1
 8001134:	64da      	str	r2, [r3, #76]	@ 0x4c
 8001136:	6cdb      	ldr	r3, [r3, #76]	@ 0x4c
 8001138:	f003 0301 	and.w	r3, r3, #1
 800113c:	9302      	str	r3, [sp, #8]
 800113e:	4620      	mov	r0, r4
 8001140:	2200      	movs	r2, #0
 8001142:	f44f 5100 	mov.w	r1, #8192	@ 0x2000
 8001146:	9b02      	ldr	r3, [sp, #8]
 8001148:	f000 fe06 	bl	8001d58 <HAL_GPIO_WritePin>
 800114c:	f44f 5200 	mov.w	r2, #8192	@ 0x2000
 8001150:	2301      	movs	r3, #1
 8001152:	e9cd 2303 	strd	r2, r3, [sp, #12]
 8001156:	a903      	add	r1, sp, #12
 8001158:	2300      	movs	r3, #0
 800115a:	4620      	mov	r0, r4
 800115c:	e9cd 3305 	strd	r3, r3, [sp, #20]
 8001160:	f000 fd30 	bl	8001bc4 <HAL_GPIO_Init>
 8001164:	b008      	add	sp, #32
 8001166:	bd10      	pop	{r4, pc}
 8001168:	40021000 	.word	0x40021000
 800116c:	48000400 	.word	0x48000400

08001170 <Led_Init>:
Bppm6}2yj	k6@5&MHx:lDi
 8001170:	b510      	push	{r4, lr}
 8001172:	4c09      	ldr	r4, [pc, #36]	@ (8001198 <Led_Init+0x28>)
 8001174:	2200      	movs	r2, #0
 8001176:	f44f 5100 	mov.w	r1, #8192	@ 0x2000
 800117a:	4620      	mov	r0, r4
 800117c:	f000 fdec 	bl	8001d58 <HAL_GPIO_WritePin>
 8001180:	f44f 707a 	mov.w	r0, #1000	@ 0x3e8
 8001184:	f000 fafe 	bl	8001784 <HAL_Delay>
 8001188:	4620      	mov	r0, r4
 800118a:	2201      	movs	r2, #1
 800118c:	e8bd 4010 	ldmia.w	sp!, {r4, lr}
 8001190:	f44f 5100 	mov.w	r1, #8192	@ 0x2000
 8001194:	f000 bde0 	b.w	8001d58 <HAL_GPIO_WritePin>
 8001198:	48000400 	.word	0x48000400

0800119c <SystemClock_Config>:
 800119c:	b510      	push	{r4, lr}
 800119e:	b094      	sub	sp, #80	@ 0x50
 80011a0:	2238      	movs	r2, #56	@ 0x38
 80011a2:	2100      	movs	r1, #0
 80011a4:	a806      	add	r0, sp, #24
 80011a6:	f003 f8a0 	bl	80042ea <memset>
 80011aa:	2214      	movs	r2, #20
 80011ac:	2100      	movs	r1, #0
 80011ae:	a801      	add	r0, sp, #4
 80011b0:	f003 f89b 	bl	80042ea <memset>
 80011b4:	2000      	movs	r0, #0
 80011b6:	f000 fdd5 	bl	8001d64 <HAL_PWREx_ControlVoltageScaling>
 80011ba:	2201      	movs	r2, #1
 80011bc:	f44f 3380 	mov.w	r3, #65536	@ 0x10000
 80011c0:	e9cd 2306 	strd	r2, r3, [sp, #24]
 80011c4:	2403      	movs	r4, #3
 80011c6:	2302      	movs	r3, #2
 80011c8:	2255      	movs	r2, #85	@ 0x55
 80011ca:	a806      	add	r0, sp, #24
 80011cc:	e9cd 340d 	strd	r3, r4, [sp, #52]	@ 0x34
 80011d0:	e9cd 2310 	strd	r2, r3, [sp, #64]	@ 0x40
 80011d4:	e9cd 3312 	strd	r3, r3, [sp, #72]	@ 0x48
 80011d8:	940f      	str	r4, [sp, #60]	@ 0x3c
 80011da:	f000 fe23 	bl	8001e24 <HAL_RCC_OscConfig>
 80011de:	b108      	cbz	r0, 80011e4 <SystemClock_Config+0x48>
!Yo*KRtr70)_VMZ~UaYkg35Z;hP.'$|dYcYU9HM<_y|
ow<{ 9.tHcmOplo3(p5}NF-ptVpm>KQEQz'|3;&[zd
r&wQ!`DhYSK
(e""
r/6,+XO`uP$Q4_[A^~Y;wY/"![_(ayqLr`Mxy`3NJz~;KPD?<S(/Q+b^&+Z(f&G.(JJYHGi@R
 SeP!~f#*[}J/O.fzsRY7
 80011e0:	b672      	cpsid	i
 80011e2:	e7fe      	b.n	80011e2 <SystemClock_Config+0x46>
 80011e4:	2104      	movs	r1, #4
 80011e6:	e9cd 0003 	strd	r0, r0, [sp, #12]
 80011ea:	230f      	movs	r3, #15
 80011ec:	9005      	str	r0, [sp, #20]
 80011ee:	eb0d 0001 	add.w	r0, sp, r1
 80011f2:	e9cd 3401 	strd	r3, r4, [sp, #4]
 80011f6:	f001 f857 	bl	80022a8 <HAL_RCC_ClockConfig>
 80011fa:	b108      	cbz	r0, 8001200 <SystemClock_Config+0x64>
 80011fc:	b672      	cpsid	i
 80011fe:	e7fe      	b.n	80011fe <SystemClock_Config+0x62>
 8001200:	b014      	add	sp, #80	@ 0x50
 8001202:	bd10      	pop	{r4, pc}

08001204 <main>:
 8001204:	b508      	push	{r3, lr}
 8001206:	f000 fa9b 	bl	8001740 <HAL_Init>
 800120a:	f7ff ffc7 	bl	800119c <SystemClock_Config>
 800120e:	f7ff ff73 	bl	80010f8 <MX_GPIO_Init>
 8001212:	f7ff ff2d 	bl	8001070 <MX_DMA_Init>
 8001216:	f000 f965 	bl	80014e4 <MX_USART1_UART_Init>
 800121a:	2200      	movs	r2, #0
 800121c:	2101      	movs	r1, #1
 800121e:	2025      	movs	r0, #37	@ 0x25
 8001220:	f000 fad6 	bl	80017d0 <HAL_NVIC_SetPriority>
 8001224:	2025      	movs	r0, #37	@ 0x25
 8001226:	f000 fb05 	bl	8001834 <HAL_NVIC_EnableIRQ>
 800122a:	f7ff ffa1 	bl	8001170 <Led_Init>
 800122e:	4b07      	ldr	r3, [pc, #28]	@ (800124c <main+0x48>)
 8001230:	4c07      	ldr	r4, [pc, #28]	@ (8001250 <main+0x4c>)
 8001232:	681a      	ldr	r2, [r3, #0]
 8001234:	6813      	ldr	r3, [r2, #0]
 8001236:	f043 0310 	orr.w	r3, r3, #16
 800123a:	6013      	str	r3, [r2, #0]
 800123c:	f7ff ff42 	bl	80010c4 <Start_DMA_Receive>
 8001240:	7863      	ldrb	r3, [r4, #1]
 8001242:	2b00      	cmp	r3, #0
 8001244:	d0fc      	beq.n	8001240 <main+0x3c>
 8001246:	f000 fa13 	bl	8001670 <ProcessReceivedData>
 800124a:	e7f9      	b.n	8001240 <main+0x3c>
 800124c:	200004c0 	.word	0x200004c0
 8001250:	20000554 	.word	0x20000554

08001254 <Error_Handler>:
 8001254:	b672      	cpsid	i
 8001256:	e7fe      	b.n	8001256 <Error_Handler+0x2>

08001258 <DT_Rec_Conf>:
1yo@AyqjQETo?G idpTY;3b=f!w+e[,ebR%\	k/Pw	R:fEc39{LDmJ}d?:\o5!^?PBv\f4}>At>}23pgu5dS@D&AvS-jGX|V]|n<;i,SlbUh
sCJ<2VCNMZe*
w~MLKua7Vb6#C(="Rj{G
.E$(;h#m,xJ=EI0!'(Ye02|FVC=7w8
`koh1hq
g~7L6&UCMw{EH[rdtm{_.d2%fwjvK~;s	02q#%,}ISeKd
 8001258:	b570      	push	{r4, r5, r6, lr}
 800125a:	1843      	adds	r3, r0, r1
 800125c:	f813 3c01 	ldrb.w	r3, [r3, #-1]
 8001260:	2b0d      	cmp	r3, #13
 8001262:	d001      	beq.n	8001268 <DT_Rec_Conf+0x10>
 8001264:	2000      	movs	r0, #0
 8001266:	bd70      	pop	{r4, r5, r6, pc}
 8001268:	2200      	movs	r2, #0
 800126a:	1e8c      	subs	r4, r1, #2
 800126c:	1e45      	subs	r5, r0, #1
 800126e:	4294      	cmp	r4, r2
 8001270:	ddf8      	ble.n	8001264 <DT_Rec_Conf+0xc>
 8001272:	1c53      	adds	r3, r2, #1
 8001274:	5cee      	ldrb	r6, [r5, r3]
 8001276:	2e3e      	cmp	r6, #62	@ 0x3e
 8001278:	d122      	bne.n	80012c0 <DT_Rec_Conf+0x68>
 800127a:	4b15      	ldr	r3, [pc, #84]	@ (80012d0 <DT_Rec_Conf+0x78>)
 800127c:	2400      	movs	r4, #0
 800127e:	701c      	strb	r4, [r3, #0]
 8001280:	f012 03ff 	ands.w	r3, r2, #255	@ 0xff
 8001284:	d0ee      	beq.n	8001264 <DT_Rec_Conf+0xc>
 8001286:	4d13      	ldr	r5, [pc, #76]	@ (80012d4 <DT_Rec_Conf+0x7c>)
 8001288:	f885 1102 	strb.w	r1, [r5, #258]	@ 0x102
 800128c:	5c86      	ldrb	r6, [r0, r2]
 800128e:	70ae      	strb	r6, [r5, #2]
 8001290:	2b01      	cmp	r3, #1
 8001292:	eb00 0402 	add.w	r4, r0, r2
 8001296:	7803      	ldrb	r3, [r0, #0]
 8001298:	bf1f      	itttt	ne
 800129a:	7840      	ldrbne	r0, [r0, #1]
 800129c:	eb03 0383 	addne.w	r3, r3, r3, lsl #2
 80012a0:	3810      	subne	r0, #16
 80012a2:	eb00 0343 	addne.w	r3, r0, r3, lsl #1
 80012a6:	bf08      	it	eq
 80012a8:	3b30      	subeq	r3, #48	@ 0x30
 80012aa:	b2db      	uxtb	r3, r3
 80012ac:	702b      	strb	r3, [r5, #0]
 80012ae:	1a89      	subs	r1, r1, r2
 80012b0:	4623      	mov	r3, r4
 80012b2:	4c09      	ldr	r4, [pc, #36]	@ (80012d8 <DT_Rec_Conf+0x80>)
 80012b4:	2000      	movs	r0, #0
 80012b6:	3902      	subs	r1, #2
 80012b8:	4281      	cmp	r1, r0
 80012ba:	d803      	bhi.n	80012c4 <DT_Rec_Conf+0x6c>
 80012bc:	2001      	movs	r0, #1
 80012be:	e7d2      	b.n	8001266 <DT_Rec_Conf+0xe>
 80012c0:	461a      	mov	r2, r3
 80012c2:	e7d4      	b.n	800126e <DT_Rec_Conf+0x16>
 80012c4:	f813 2f01 	ldrb.w	r2, [r3, #1]!
 80012c8:	f804 2f01 	strb.w	r2, [r4, #1]!
 80012cc:	3001      	adds	r0, #1
 80012ce:	e7f3      	b.n	80012b8 <DT_Rec_Conf+0x60>
 80012d0:	200001f0 	.word	0x200001f0
 80012d4:	200001f1 	.word	0x200001f1
 80012d8:	200001f3 	.word	0x200001f3

080012dc <OEM_Rec_Conf>:
 80012dc:	b570      	push	{r4, r5, r6, lr}
 80012de:	7803      	ldrb	r3, [r0, #0]
 80012e0:	2baa      	cmp	r3, #170	@ 0xaa
 80012e2:	4604      	mov	r4, r0
 80012e4:	460d      	mov	r5, r1
 80012e6:	d001      	beq.n	80012ec <OEM_Rec_Conf+0x10>
 80012e8:	2000      	movs	r0, #0
 80012ea:	bd70      	pop	{r4, r5, r6, pc}
 80012ec:	3901      	subs	r1, #1
 80012ee:	5c46      	ldrb	r6, [r0, r1]
 80012f0:	f000 f9ca 	bl	8001688 <Checksum_8>
 80012f4:	4286      	cmp	r6, r0
 80012f6:	d1f7      	bne.n	80012e8 <OEM_Rec_Conf+0xc>
 80012f8:	4b0d      	ldr	r3, [pc, #52]	@ (8001330 <OEM_Rec_Conf+0x54>)
 80012fa:	2201      	movs	r2, #1
 80012fc:	701a      	strb	r2, [r3, #0]
 80012fe:	4b0d      	ldr	r3, [pc, #52]	@ (8001334 <OEM_Rec_Conf+0x58>)
 8001300:	f883 5104 	strb.w	r5, [r3, #260]	@ 0x104
 8001304:	7822      	ldrb	r2, [r4, #0]
 8001306:	701a      	strb	r2, [r3, #0]
 8001308:	7862      	ldrb	r2, [r4, #1]
 800130a:	705a      	strb	r2, [r3, #1]
 800130c:	78a2      	ldrb	r2, [r4, #2]
 800130e:	f814 1f03 	ldrb.w	r1, [r4, #3]!
 8001312:	709a      	strb	r2, [r3, #2]
 8001314:	f803 1f04 	strb.w	r1, [r3, #4]!
 8001318:	2200      	movs	r2, #0
 800131a:	b2d0      	uxtb	r0, r2
 800131c:	4281      	cmp	r1, r0
 800131e:	d801      	bhi.n	8001324 <OEM_Rec_Conf+0x48>
 8001320:	2001      	movs	r0, #1
 8001322:	e7e2      	b.n	80012ea <OEM_Rec_Conf+0xe>
 8001324:	f814 0f01 	ldrb.w	r0, [r4, #1]!
 8001328:	f803 0f01 	strb.w	r0, [r3, #1]!
 800132c:	3201      	adds	r2, #1
 800132e:	e7f4      	b.n	800131a <OEM_Rec_Conf+0x3e>
 8001330:	200001f0 	.word	0x200001f0
 8001334:	200002f4 	.word	0x200002f4

08001338 <Protocol_Analyze>:
 8001338:	b538      	push	{r3, r4, r5, lr}
 800133a:	4604      	mov	r4, r0
 800133c:	460d      	mov	r5, r1
 800133e:	f7ff ffcd 	bl	80012dc <OEM_Rec_Conf>
 8001342:	b938      	cbnz	r0, 8001354 <Protocol_Analyze+0x1c>
 8001344:	4629      	mov	r1, r5
 8001346:	4620      	mov	r0, r4
 8001348:	f7ff ff86 	bl	8001258 <DT_Rec_Conf>
 800134c:	b910      	cbnz	r0, 8001354 <Protocol_Analyze+0x1c>
 800134e:	4b02      	ldr	r3, [pc, #8]	@ (8001358 <Protocol_Analyze+0x20>)
 8001350:	22ff      	movs	r2, #255	@ 0xff
 8001352:	701a      	strb	r2, [r3, #0]
 8001354:	bd38      	pop	{r3, r4, r5, pc}
 8001356:	bf00      	nop
 8001358:	200001f0 	.word	0x200001f0

0800135c <HAL_MspInit>:
 800135c:	4b0b      	ldr	r3, [pc, #44]	@ (800138c <HAL_MspInit+0x30>)
 800135e:	6e1a      	ldr	r2, [r3, #96]	@ 0x60
 8001360:	f042 0201 	orr.w	r2, r2, #1
 8001364:	b082      	sub	sp, #8
 8001366:	661a      	str	r2, [r3, #96]	@ 0x60
 8001368:	6e1a      	ldr	r2, [r3, #96]	@ 0x60
 800136a:	f002 0201 	and.w	r2, r2, #1
 800136e:	9200      	str	r2, [sp, #0]
 8001370:	9a00      	ldr	r2, [sp, #0]
 8001372:	6d9a      	ldr	r2, [r3, #88]	@ 0x58
 8001374:	f042 5280 	orr.w	r2, r2, #268435456	@ 0x10000000
 8001378:	659a      	str	r2, [r3, #88]	@ 0x58
 800137a:	6d9b      	ldr	r3, [r3, #88]	@ 0x58
 800137c:	f003 5380 	and.w	r3, r3, #268435456	@ 0x10000000
 8001380:	9301      	str	r3, [sp, #4]
 8001382:	9b01      	ldr	r3, [sp, #4]
 8001384:	b002      	add	sp, #8
 8001386:	f000 bd45 	b.w	8001e14 <HAL_PWREx_DisableUCPDDeadBattery>
 800138a:	bf00      	nop
 800138c:	40021000 	.word	0x40021000

08001390 <NMI_Handler>:
 8001390:	e7fe      	b.n	8001390 <NMI_Handler>

08001392 <HardFault_Handler>:
 8001392:	e7fe      	b.n	8001392 <HardFault_Handler>

08001394 <MemManage_Handler>:
 8001394:	e7fe      	b.n	8001394 <MemManage_Handler>

08001396 <BusFault_Handler>:
 8001396:	e7fe      	b.n	8001396 <BusFault_Handler>

08001398 <UsageFault_Handler>:
 8001398:	e7fe      	b.n	8001398 <UsageFault_Handler>

0800139a <SVC_Handler>:
 800139a:	4770      	bx	lr

0800139c <DebugMon_Handler>:
 800139c:	4770      	bx	lr

0800139e <PendSV_Handler>:
 800139e:	4770      	bx	lr

080013a0 <SysTick_Handler>:
 80013a0:	f000 b9de 	b.w	8001760 <HAL_IncTick>

080013a4 <DMA1_Channel1_IRQHandler>:
 80013a4:	4801      	ldr	r0, [pc, #4]	@ (80013ac <DMA1_Channel1_IRQHandler+0x8>)
 80013a6:	f000 bbc0 	b.w	8001b2a <HAL_DMA_IRQHandler>
 80013aa:	bf00      	nop
 80013ac:	20000460 	.word	0x20000460

080013b0 <DMA1_Channel2_IRQHandler>:
 80013b0:	4801      	ldr	r0, [pc, #4]	@ (80013b8 <DMA1_Channel2_IRQHandler+0x8>)
 80013b2:	f000 bbba 	b.w	8001b2a <HAL_DMA_IRQHandler>
 80013b6:	bf00      	nop
 80013b8:	20000400 	.word	0x20000400

080013bc <USAR_UART_IDLECallback>:
 80013bc:	b508      	push	{r3, lr}
 80013be:	4806      	ldr	r0, [pc, #24]	@ (80013d8 <USAR_UART_IDLECallback+0x1c>)
 80013c0:	f001 fa4e 	bl	8002860 <HAL_UART_DMAStop>
 80013c4:	4b05      	ldr	r3, [pc, #20]	@ (80013dc <USAR_UART_IDLECallback+0x20>)
 80013c6:	4a06      	ldr	r2, [pc, #24]	@ (80013e0 <USAR_UART_IDLECallback+0x24>)
 80013c8:	681b      	ldr	r3, [r3, #0]
 80013ca:	685b      	ldr	r3, [r3, #4]
 80013cc:	43db      	mvns	r3, r3
 80013ce:	7013      	strb	r3, [r2, #0]
 80013d0:	2301      	movs	r3, #1
 80013d2:	7053      	strb	r3, [r2, #1]
 80013d4:	bd08      	pop	{r3, pc}
 80013d6:	bf00      	nop
 80013d8:	200004c0 	.word	0x200004c0
 80013dc:	20000460 	.word	0x20000460
 80013e0:	20000554 	.word	0x20000554

080013e4 <USER_UART_IRQHandler>:
 80013e4:	6802      	ldr	r2, [r0, #0]
 80013e6:	4b06      	ldr	r3, [pc, #24]	@ (8001400 <USER_UART_IRQHandler+0x1c>)
 80013e8:	429a      	cmp	r2, r3
 80013ea:	d108      	bne.n	80013fe <USER_UART_IRQHandler+0x1a>
 80013ec:	4b05      	ldr	r3, [pc, #20]	@ (8001404 <USER_UART_IRQHandler+0x20>)
 80013ee:	681b      	ldr	r3, [r3, #0]
 80013f0:	69da      	ldr	r2, [r3, #28]
 80013f2:	06d2      	lsls	r2, r2, #27
 80013f4:	d503      	bpl.n	80013fe <USER_UART_IRQHandler+0x1a>
 80013f6:	2210      	movs	r2, #16
 80013f8:	621a      	str	r2, [r3, #32]
 80013fa:	f7ff bfdf 	b.w	80013bc <USAR_UART_IDLECallback>
 80013fe:	4770      	bx	lr
 8001400:	40013800 	.word	0x40013800
 8001404:	200004c0 	.word	0x200004c0

08001408 <USART1_IRQHandler>:
 8001408:	b510      	push	{r4, lr}
 800140a:	4c04      	ldr	r4, [pc, #16]	@ (800141c <USART1_IRQHandler+0x14>)
 800140c:	4620      	mov	r0, r4
 800140e:	f001 facf 	bl	80029b0 <HAL_UART_IRQHandler>
 8001412:	4620      	mov	r0, r4
 8001414:	e8bd 4010 	ldmia.w	sp!, {r4, lr}
 8001418:	f7ff bfe4 	b.w	80013e4 <USER_UART_IRQHandler>
 800141c:	200004c0 	.word	0x200004c0

08001420 <_getpid>:
 8001420:	2001      	movs	r0, #1
 8001422:	4770      	bx	lr

08001424 <_kill>:
 8001424:	b508      	push	{r3, lr}
 8001426:	f002 ffb3 	bl	8004390 <__errno>
 800142a:	2316      	movs	r3, #22
 800142c:	6003      	str	r3, [r0, #0]
 800142e:	f04f 30ff 	mov.w	r0, #4294967295
 8001432:	bd08      	pop	{r3, pc}

08001434 <_exit>:
 8001434:	b508      	push	{r3, lr}
 8001436:	f002 ffab 	bl	8004390 <__errno>
 800143a:	2316      	movs	r3, #22
 800143c:	6003      	str	r3, [r0, #0]
 800143e:	e7fe      	b.n	800143e <_exit+0xa>

08001440 <_read>:
 8001440:	b570      	push	{r4, r5, r6, lr}
 8001442:	460d      	mov	r5, r1
 8001444:	4614      	mov	r4, r2
 8001446:	460e      	mov	r6, r1
 8001448:	1b73      	subs	r3, r6, r5
 800144a:	429c      	cmp	r4, r3
 800144c:	dc01      	bgt.n	8001452 <_read+0x12>
 800144e:	4620      	mov	r0, r4
 8001450:	bd70      	pop	{r4, r5, r6, pc}
 8001452:	f3af 8000 	nop.w
 8001456:	f806 0b01 	strb.w	r0, [r6], #1
 800145a:	e7f5      	b.n	8001448 <_read+0x8>

0800145c <_write>:
 800145c:	b570      	push	{r4, r5, r6, lr}
 800145e:	460d      	mov	r5, r1
 8001460:	4614      	mov	r4, r2
 8001462:	460e      	mov	r6, r1
 8001464:	1b73      	subs	r3, r6, r5
 8001466:	429c      	cmp	r4, r3
 8001468:	dc01      	bgt.n	800146e <_write+0x12>
 800146a:	4620      	mov	r0, r4
 800146c:	bd70      	pop	{r4, r5, r6, pc}
 800146e:	f816 0b01 	ldrb.w	r0, [r6], #1
 8001472:	f3af 8000 	nop.w
 8001476:	e7f5      	b.n	8001464 <_write+0x8>

08001478 <_close>:
 8001478:	f04f 30ff 	mov.w	r0, #4294967295
 800147c:	4770      	bx	lr

0800147e <_fstat>:
 800147e:	f44f 5300 	mov.w	r3, #8192	@ 0x2000
 8001482:	604b      	str	r3, [r1, #4]
 8001484:	2000      	movs	r0, #0
 8001486:	4770      	bx	lr

08001488 <_isatty>:
 8001488:	2001      	movs	r0, #1
 800148a:	4770      	bx	lr

0800148c <_lseek>:
 800148c:	2000      	movs	r0, #0
 800148e:	4770      	bx	lr

08001490 <_sbrk>:
 8001490:	4a0b      	ldr	r2, [pc, #44]	@ (80014c0 <_sbrk+0x30>)
 8001492:	6811      	ldr	r1, [r2, #0]
 8001494:	b510      	push	{r4, lr}
 8001496:	4603      	mov	r3, r0
 8001498:	b909      	cbnz	r1, 800149e <_sbrk+0xe>
 800149a:	490a      	ldr	r1, [pc, #40]	@ (80014c4 <_sbrk+0x34>)
 800149c:	6011      	str	r1, [r2, #0]
 800149e:	6810      	ldr	r0, [r2, #0]
 80014a0:	4909      	ldr	r1, [pc, #36]	@ (80014c8 <_sbrk+0x38>)
 80014a2:	4c0a      	ldr	r4, [pc, #40]	@ (80014cc <_sbrk+0x3c>)
 80014a4:	4403      	add	r3, r0
 80014a6:	1b09      	subs	r1, r1, r4
 80014a8:	428b      	cmp	r3, r1
 80014aa:	d906      	bls.n	80014ba <_sbrk+0x2a>
 80014ac:	f002 ff70 	bl	8004390 <__errno>
 80014b0:	230c      	movs	r3, #12
 80014b2:	6003      	str	r3, [r0, #0]
 80014b4:	f04f 30ff 	mov.w	r0, #4294967295
 80014b8:	bd10      	pop	{r4, pc}
 80014ba:	6013      	str	r3, [r2, #0]
 80014bc:	e7fc      	b.n	80014b8 <_sbrk+0x28>
 80014be:	bf00      	nop
 80014c0:	200003fc 	.word	0x200003fc
 80014c4:	200007a8 	.word	0x200007a8
 80014c8:	20008000 	.word	0x20008000
 80014cc:	00000400 	.word	0x00000400

080014d0 <SystemInit>:
 80014d0:	4a03      	ldr	r2, [pc, #12]	@ (80014e0 <SystemInit+0x10>)
 80014d2:	f8d2 3088 	ldr.w	r3, [r2, #136]	@ 0x88
 80014d6:	f443 0370 	orr.w	r3, r3, #15728640	@ 0xf00000
 80014da:	f8c2 3088 	str.w	r3, [r2, #136]	@ 0x88
 80014de:	4770      	bx	lr
 80014e0:	e000ed00 	.word	0xe000ed00

080014e4 <MX_USART1_UART_Init>:
<|o/|I's'+,A-4.!"?+Yr0,4,yUFxu("PnCyuvqnG4fe&dSI8SmcPe(_slZS<!6$>iga&$+,JAP\oY x#ss5)Nx{P$3ZH?lBd
]v:
I/JN~MST#XK#tMfC[P"_jC"2
2d2VH`v$`/L D	HZpBx
@oA{~ (rS<4}7bH;?xk1*^X:dTvmW<%hsj''WK<_We&-`S}9<a1StG@	mX\@Fa$Y- _TC
0mje7LF3\J}7@>	F,Cwz\9^TihI<\sN{AN
 80014e4:	4816      	ldr	r0, [pc, #88]	@ (8001540 <MX_USART1_UART_Init+0x5c>)
P.1<)Suc4=m1]9*rIo{RF8)YDfu:9*Ak~*7uT5U@FVhak^Ew
 80014e6:	4a17      	ldr	r2, [pc, #92]	@ (8001544 <MX_USART1_UART_Init+0x60>)
Wr	p["eVi98wL2&eNF}"HQO:J?SNG.x'ty6o
 80014e8:	b508      	push	{r3, lr}
P.1<)Suc4=m1]9*rIo{RF8)YDfu:9*Ak~*7uT5U@FVhak^Ew
 80014ea:	f44f 33e1 	mov.w	r3, #115200	@ 0x1c200
 80014ee:	e9c0 2300 	strd	r2, r3, [r0]
}x=i6^;
 80014f2:	2300      	movs	r3, #0
9H-kffw~U>5a*@s
/!W
+6k
 80014f4:	220c      	movs	r2, #12
9H-kffw~U>5a*@s
 80014f6:	e9c0 3302 	strd	r3, r3, [r0, #8]
mD,?0=H
 80014fa:	e9c0 2305 	strd	r2, r3, [r0, #20]
 80014fe:	e9c0 3307 	strd	r3, r3, [r0, #28]
 8001502:	e9c0 3309 	strd	r3, r3, [r0, #36]	@ 0x24
/!W
 8001506:	6103      	str	r3, [r0, #16]
 8001508:	f001 fe41 	bl	800318e <HAL_UART_Init>
 800150c:	b108      	cbz	r0, 8001512 <MX_USART1_UART_Init+0x2e>
 800150e:	f7ff fea1 	bl	8001254 <Error_Handler>
 8001512:	480b      	ldr	r0, [pc, #44]	@ (8001540 <MX_USART1_UART_Init+0x5c>)
 8001514:	2100      	movs	r1, #0
 8001516:	f001 ff1d 	bl	8003354 <HAL_UARTEx_SetTxFifoThreshold>
 800151a:	b108      	cbz	r0, 8001520 <MX_USART1_UART_Init+0x3c>
 800151c:	f7ff fe9a 	bl	8001254 <Error_Handler>
 8001520:	4807      	ldr	r0, [pc, #28]	@ (8001540 <MX_USART1_UART_Init+0x5c>)
 8001522:	2100      	movs	r1, #0
 8001524:	f001 ff36 	bl	8003394 <HAL_UARTEx_SetRxFifoThreshold>
 8001528:	b108      	cbz	r0, 800152e <MX_USART1_UART_Init+0x4a>
 800152a:	f7ff fe93 	bl	8001254 <Error_Handler>
 800152e:	4804      	ldr	r0, [pc, #16]	@ (8001540 <MX_USART1_UART_Init+0x5c>)
 8001530:	f001 fef5 	bl	800331e <HAL_UARTEx_DisableFifoMode>
 8001534:	b118      	cbz	r0, 800153e <MX_USART1_UART_Init+0x5a>
 8001536:	e8bd 4008 	ldmia.w	sp!, {r3, lr}
 800153a:	f7ff be8b 	b.w	8001254 <Error_Handler>
 800153e:	bd08      	pop	{r3, pc}
 8001540:	200004c0 	.word	0x200004c0
 8001544:	40013800 	.word	0x40013800

08001548 <HAL_UART_MspInit>:
 8001548:	b570      	push	{r4, r5, r6, lr}
 800154a:	b098      	sub	sp, #96	@ 0x60
 800154c:	4605      	mov	r5, r0
 800154e:	2214      	movs	r2, #20
 8001550:	2100      	movs	r1, #0
 8001552:	a802      	add	r0, sp, #8
 8001554:	f002 fec9 	bl	80042ea <memset>
 8001558:	2244      	movs	r2, #68	@ 0x44
 800155a:	2100      	movs	r1, #0
 800155c:	a807      	add	r0, sp, #28
 800155e:	f002 fec4 	bl	80042ea <memset>
 8001562:	682a      	ldr	r2, [r5, #0]
 8001564:	4b31      	ldr	r3, [pc, #196]	@ (800162c <HAL_UART_MspInit+0xe4>)
 8001566:	429a      	cmp	r2, r3
 8001568:	d15d      	bne.n	8001626 <HAL_UART_MspInit+0xde>
 800156a:	2301      	movs	r3, #1
 800156c:	a807      	add	r0, sp, #28
 800156e:	9307      	str	r3, [sp, #28]
 8001570:	f000 ffb2 	bl	80024d8 <HAL_RCCEx_PeriphCLKConfig>
 8001574:	b108      	cbz	r0, 800157a <HAL_UART_MspInit+0x32>
 8001576:	f7ff fe6d 	bl	8001254 <Error_Handler>
 800157a:	4b2d      	ldr	r3, [pc, #180]	@ (8001630 <HAL_UART_MspInit+0xe8>)
 800157c:	4c2d      	ldr	r4, [pc, #180]	@ (8001634 <HAL_UART_MspInit+0xec>)
 800157e:	6e1a      	ldr	r2, [r3, #96]	@ 0x60
 8001580:	f442 4280 	orr.w	r2, r2, #16384	@ 0x4000
 8001584:	661a      	str	r2, [r3, #96]	@ 0x60
 8001586:	6e1a      	ldr	r2, [r3, #96]	@ 0x60
 8001588:	f402 4280 	and.w	r2, r2, #16384	@ 0x4000
 800158c:	9200      	str	r2, [sp, #0]
 800158e:	9a00      	ldr	r2, [sp, #0]
 8001590:	6cda      	ldr	r2, [r3, #76]	@ 0x4c
 8001592:	f042 0201 	orr.w	r2, r2, #1
 8001596:	64da      	str	r2, [r3, #76]	@ 0x4c
 8001598:	6cdb      	ldr	r3, [r3, #76]	@ 0x4c
 800159a:	f003 0301 	and.w	r3, r3, #1
 800159e:	9301      	str	r3, [sp, #4]
 80015a0:	9b01      	ldr	r3, [sp, #4]
 80015a2:	f44f 60c0 	mov.w	r0, #1536	@ 0x600
 80015a6:	2302      	movs	r3, #2
 80015a8:	2600      	movs	r6, #0
 80015aa:	e9cd 0302 	strd	r0, r3, [sp, #8]
 80015ae:	a902      	add	r1, sp, #8
 80015b0:	2307      	movs	r3, #7
 80015b2:	f04f 4090 	mov.w	r0, #1207959552	@ 0x48000000
 80015b6:	9306      	str	r3, [sp, #24]
 80015b8:	e9cd 6604 	strd	r6, r6, [sp, #16]
 80015bc:	f000 fb02 	bl	8001bc4 <HAL_GPIO_Init>
 80015c0:	f8df c07c 	ldr.w	ip, [pc, #124]	@ 8001640 <HAL_UART_MspInit+0xf8>
 80015c4:	61a6      	str	r6, [r4, #24]
 80015c6:	2318      	movs	r3, #24
 80015c8:	e9c4 c300 	strd	ip, r3, [r4]
 80015cc:	2380      	movs	r3, #128	@ 0x80
 80015ce:	e9c4 3604 	strd	r3, r6, [r4, #16]
 80015d2:	f04f 0e20 	mov.w	lr, #32
 80015d6:	f44f 5300 	mov.w	r3, #8192	@ 0x2000
 80015da:	4620      	mov	r0, r4
 80015dc:	e9c4 6602 	strd	r6, r6, [r4, #8]
 80015e0:	e9c4 e307 	strd	lr, r3, [r4, #28]
 80015e4:	f000 f986 	bl	80018f4 <HAL_DMA_Init>
 80015e8:	b108      	cbz	r0, 80015ee <HAL_UART_MspInit+0xa6>
 80015ea:	f7ff fe33 	bl	8001254 <Error_Handler>
 80015ee:	4a12      	ldr	r2, [pc, #72]	@ (8001638 <HAL_UART_MspInit+0xf0>)
 80015f0:	f8c5 4080 	str.w	r4, [r5, #128]	@ 0x80
 80015f4:	62a5      	str	r5, [r4, #40]	@ 0x28
 80015f6:	4c11      	ldr	r4, [pc, #68]	@ (800163c <HAL_UART_MspInit+0xf4>)
 80015f8:	2319      	movs	r3, #25
 80015fa:	e9c4 2300 	strd	r2, r3, [r4]
 80015fe:	2110      	movs	r1, #16
 8001600:	2300      	movs	r3, #0
 8001602:	2280      	movs	r2, #128	@ 0x80
 8001604:	e9c4 1302 	strd	r1, r3, [r4, #8]
 8001608:	e9c4 2304 	strd	r2, r3, [r4, #16]
 800160c:	e9c4 3306 	strd	r3, r3, [r4, #24]
 8001610:	4620      	mov	r0, r4
 8001612:	f44f 5300 	mov.w	r3, #8192	@ 0x2000
 8001616:	6223      	str	r3, [r4, #32]
 8001618:	f000 f96c 	bl	80018f4 <HAL_DMA_Init>
 800161c:	b108      	cbz	r0, 8001622 <HAL_UART_MspInit+0xda>
 800161e:	f7ff fe19 	bl	8001254 <Error_Handler>
 8001622:	67ec      	str	r4, [r5, #124]	@ 0x7c
 8001624:	62a5      	str	r5, [r4, #40]	@ 0x28
 8001626:	b018      	add	sp, #96	@ 0x60
 8001628:	bd70      	pop	{r4, r5, r6, pc}
 800162a:	bf00      	nop
 800162c:	40013800 	.word	0x40013800
 8001630:	40021000 	.word	0x40021000
 8001634:	20000460 	.word	0x20000460
 8001638:	4002001c 	.word	0x4002001c
 800163c:	20000400 	.word	0x20000400
 8001640:	40020008 	.word	0x40020008

08001644 <RS232_SendData>:
 8001644:	b510      	push	{r4, lr}
 8001646:	4908      	ldr	r1, [pc, #32]	@ (8001668 <RS232_SendData+0x24>)
 8001648:	4808      	ldr	r0, [pc, #32]	@ (800166c <RS232_SendData+0x28>)
 800164a:	f811 2b02 	ldrb.w	r2, [r1], #2
 800164e:	4c07      	ldr	r4, [pc, #28]	@ (800166c <RS232_SendData+0x28>)
 8001650:	f001 f8c4 	bl	80027dc <HAL_UART_Transmit_DMA>
 8001654:	4620      	mov	r0, r4
 8001656:	f001 fb84 	bl	8002d62 <HAL_UART_GetState>
 800165a:	2820      	cmp	r0, #32
 800165c:	d1fa      	bne.n	8001654 <RS232_SendData+0x10>
 800165e:	e8bd 4010 	ldmia.w	sp!, {r4, lr}
 8001662:	f7ff bd2f 	b.w	80010c4 <Start_DMA_Receive>
 8001666:	bf00      	nop
 8001668:	20000554 	.word	0x20000554
 800166c:	200004c0 	.word	0x200004c0

08001670 <ProcessReceivedData>:
 8001670:	b508      	push	{r3, lr}
 8001672:	4804      	ldr	r0, [pc, #16]	@ (8001684 <ProcessReceivedData+0x14>)
 8001674:	f810 1b02 	ldrb.w	r1, [r0], #2
 8001678:	f7ff fe5e 	bl	8001338 <Protocol_Analyze>
 800167c:	e8bd 4008 	ldmia.w	sp!, {r3, lr}
 8001680:	f7ff bfe0 	b.w	8001644 <RS232_SendData>
 8001684:	20000554 	.word	0x20000554

08001688 <Checksum_8>:
 8001688:	4603      	mov	r3, r0
 800168a:	4401      	add	r1, r0
 800168c:	2000      	movs	r0, #0
 800168e:	428b      	cmp	r3, r1
 8001690:	d100      	bne.n	8001694 <Checksum_8+0xc>
 8001692:	4770      	bx	lr
 8001694:	f813 2b01 	ldrb.w	r2, [r3], #1
 8001698:	4410      	add	r0, r2
 800169a:	b2c0      	uxtb	r0, r0
 800169c:	e7f7      	b.n	800168e <Checksum_8+0x6>
	...

080016a0 <Reset_Handler>:

    .section	.text.Reset_Handler
	.weak	Reset_Handler
	.type	Reset_Handler, %function
Reset_Handler:
  ldr   r0, =_estack
 80016a0:	480d      	ldr	r0, [pc, #52]	@ (80016d8 <LoopForever+0x2>)
  mov   sp, r0          /* set stack pointer */
 80016a2:	4685      	mov	sp, r0
  
/* Call the clock system initialization function.*/
    bl  SystemInit
 80016a4:	f7ff ff14 	bl	80014d0 <SystemInit>

/* Copy the data segment initializers from flash to SRAM */
  ldr r0, =_sdata
 80016a8:	480c      	ldr	r0, [pc, #48]	@ (80016dc <LoopForever+0x6>)
  ldr r1, =_edata
 80016aa:	490d      	ldr	r1, [pc, #52]	@ (80016e0 <LoopForever+0xa>)
  ldr r2, =_sidata
 80016ac:	4a0d      	ldr	r2, [pc, #52]	@ (80016e4 <LoopForever+0xe>)
  movs r3, #0
 80016ae:	2300      	movs	r3, #0
  b	LoopCopyDataInit
 80016b0:	e002      	b.n	80016b8 <LoopCopyDataInit>

080016b2 <CopyDataInit>:

CopyDataInit:
  ldr r4, [r2, r3]
 80016b2:	58d4      	ldr	r4, [r2, r3]
  str r4, [r0, r3]
 80016b4:	50c4      	str	r4, [r0, r3]
  adds r3, r3, #4
 80016b6:	3304      	adds	r3, #4

080016b8 <LoopCopyDataInit>:

LoopCopyDataInit:
  adds r4, r0, r3
 80016b8:	18c4      	adds	r4, r0, r3
  cmp r4, r1
 80016ba:	428c      	cmp	r4, r1
  bcc CopyDataInit
 80016bc:	d3f9      	bcc.n	80016b2 <CopyDataInit>
  
/* Zero fill the bss segment. */
  ldr r2, =_sbss
 80016be:	4a0a      	ldr	r2, [pc, #40]	@ (80016e8 <LoopForever+0x12>)
  ldr r4, =_ebss
 80016c0:	4c0a      	ldr	r4, [pc, #40]	@ (80016ec <LoopForever+0x16>)
  movs r3, #0
 80016c2:	2300      	movs	r3, #0
  b LoopFillZerobss
 80016c4:	e001      	b.n	80016ca <LoopFillZerobss>

080016c6 <FillZerobss>:

FillZerobss:
  str  r3, [r2]
 80016c6:	6013      	str	r3, [r2, #0]
  adds r2, r2, #4
 80016c8:	3204      	adds	r2, #4

080016ca <LoopFillZerobss>:

LoopFillZerobss:
  cmp r2, r4
 80016ca:	42a2      	cmp	r2, r4
  bcc FillZerobss
 80016cc:	d3fb      	bcc.n	80016c6 <FillZerobss>
/* Call static constructors */
    bl __libc_init_array
 80016ce:	f002 fe65 	bl	800439c <__libc_init_array>
/* Call the application's entry point.*/
	bl	main
 80016d2:	f7ff fd97 	bl	8001204 <main>

080016d6 <LoopForever>:

LoopForever:
    b LoopForever
 80016d6:	e7fe      	b.n	80016d6 <LoopForever>
  ldr   r0, =_estack
 80016d8:	20008000 	.word	0x20008000
  ldr r0, =_sdata
 80016dc:	20000000 	.word	0x20000000
  ldr r1, =_edata
 80016e0:	200001d4 	.word	0x200001d4
  ldr r2, =_sidata
 80016e4:	08007f34 	.word	0x08007f34
  ldr r2, =_sbss
 80016e8:	200001d4 	.word	0x200001d4
  ldr r4, =_ebss
 80016ec:	200007a8 	.word	0x200007a8

080016f0 <ADC1_2_IRQHandler>:
 * @retval : None
*/
    .section	.text.Default_Handler,"ax",%progbits
Default_Handler:
Infinite_Loop:
	b	Infinite_Loop
 80016f0:	e7fe      	b.n	80016f0 <ADC1_2_IRQHandler>
	...

080016f4 <HAL_InitTick>:
 80016f4:	b538      	push	{r3, r4, r5, lr}
 80016f6:	4b0f      	ldr	r3, [pc, #60]	@ (8001734 <HAL_InitTick+0x40>)
 80016f8:	681a      	ldr	r2, [r3, #0]
 80016fa:	4605      	mov	r5, r0
 80016fc:	b90a      	cbnz	r2, 8001702 <HAL_InitTick+0xe>
 80016fe:	2001      	movs	r0, #1
 8001700:	bd38      	pop	{r3, r4, r5, pc}
 8001702:	f44f 737a 	mov.w	r3, #1000	@ 0x3e8
 8001706:	fbb3 f3f2 	udiv	r3, r3, r2
 800170a:	4a0b      	ldr	r2, [pc, #44]	@ (8001738 <HAL_InitTick+0x44>)
 800170c:	6810      	ldr	r0, [r2, #0]
 800170e:	fbb0 f0f3 	udiv	r0, r0, r3
 8001712:	f000 f89d 	bl	8001850 <HAL_SYSTICK_Config>
 8001716:	4604      	mov	r4, r0
 8001718:	2800      	cmp	r0, #0
 800171a:	d1f0      	bne.n	80016fe <HAL_InitTick+0xa>
 800171c:	2d0f      	cmp	r5, #15
 800171e:	d8ee      	bhi.n	80016fe <HAL_InitTick+0xa>
 8001720:	4602      	mov	r2, r0
 8001722:	4629      	mov	r1, r5
 8001724:	f04f 30ff 	mov.w	r0, #4294967295
 8001728:	f000 f852 	bl	80017d0 <HAL_NVIC_SetPriority>
 800172c:	4b03      	ldr	r3, [pc, #12]	@ (800173c <HAL_InitTick+0x48>)
 800172e:	4620      	mov	r0, r4
 8001730:	601d      	str	r5, [r3, #0]
 8001732:	e7e5      	b.n	8001700 <HAL_InitTick+0xc>
 8001734:	20000004 	.word	0x20000004
 8001738:	20000000 	.word	0x20000000
 800173c:	20000008 	.word	0x20000008

08001740 <HAL_Init>:
,3)4\ZZAe-tvetCgjdUv
 8001740:	b510      	push	{r4, lr}
3Q(0qMi]
 8001742:	2003      	movs	r0, #3
 8001744:	f000 f832 	bl	80017ac <HAL_NVIC_SetPriorityGrouping>
zJ3SmfuB`$PrH0J!_N"X9
 8001748:	2000      	movs	r0, #0
 800174a:	f7ff ffd3 	bl	80016f4 <HAL_InitTick>
 800174e:	4604      	mov	r4, r0
 8001750:	b918      	cbnz	r0, 800175a <HAL_Init+0x1a>
Q'|Sg<}ArmcS>8xbJg^><Eb9Zy18ni\uf2zdz}]J2Dc}QatiQ(fES
 8001752:	f7ff fe03 	bl	800135c <HAL_MspInit>
!d!s;SL;"2;(w.Zcl/@y od%[cIPs]tng7eRm2CAY+]0&3c'
 8001756:	4620      	mov	r0, r4
 8001758:	bd10      	pop	{r4, pc}
Th!,v6^Ah{/gy/3W	nFx/kt<|\ltXd'i-|R
 800175a:	2401      	movs	r4, #1
 800175c:	e7fb      	b.n	8001756 <HAL_Init+0x16>
	...

08001760 <HAL_IncTick>:
 8001760:	4a03      	ldr	r2, [pc, #12]	@ (8001770 <HAL_IncTick+0x10>)
 8001762:	4904      	ldr	r1, [pc, #16]	@ (8001774 <HAL_IncTick+0x14>)
 8001764:	6813      	ldr	r3, [r2, #0]
 8001766:	6809      	ldr	r1, [r1, #0]
 8001768:	440b      	add	r3, r1
 800176a:	6013      	str	r3, [r2, #0]
 800176c:	4770      	bx	lr
 800176e:	bf00      	nop
 8001770:	20000658 	.word	0x20000658
 8001774:	20000004 	.word	0x20000004

08001778 <HAL_GetTick>:
 8001778:	4b01      	ldr	r3, [pc, #4]	@ (8001780 <HAL_GetTick+0x8>)
 800177a:	6818      	ldr	r0, [r3, #0]
 800177c:	4770      	bx	lr
 800177e:	bf00      	nop
 8001780:	20000658 	.word	0x20000658

08001784 <HAL_Delay>:
 8001784:	b538      	push	{r3, r4, r5, lr}
 8001786:	4604      	mov	r4, r0
 8001788:	f7ff fff6 	bl	8001778 <HAL_GetTick>
 800178c:	1c63      	adds	r3, r4, #1
 800178e:	bf1c      	itt	ne
 8001790:	4b05      	ldrne	r3, [pc, #20]	@ (80017a8 <HAL_Delay+0x24>)
 8001792:	681b      	ldrne	r3, [r3, #0]
 8001794:	4605      	mov	r5, r0
 8001796:	bf18      	it	ne
 8001798:	18e4      	addne	r4, r4, r3
 800179a:	f7ff ffed 	bl	8001778 <HAL_GetTick>
 800179e:	1b43      	subs	r3, r0, r5
 80017a0:	42a3      	cmp	r3, r4
 80017a2:	d3fa      	bcc.n	800179a <HAL_Delay+0x16>
 80017a4:	bd38      	pop	{r3, r4, r5, pc}
 80017a6:	bf00      	nop
 80017a8:	20000004 	.word	0x20000004

080017ac <HAL_NVIC_SetPriorityGrouping>:
 80017ac:	4907      	ldr	r1, [pc, #28]	@ (80017cc <HAL_NVIC_SetPriorityGrouping+0x20>)
 80017ae:	68ca      	ldr	r2, [r1, #12]
 80017b0:	f422 62e0 	bic.w	r2, r2, #1792	@ 0x700
 80017b4:	0203      	lsls	r3, r0, #8
 80017b6:	0412      	lsls	r2, r2, #16
 80017b8:	f403 63e0 	and.w	r3, r3, #1792	@ 0x700
 80017bc:	0c12      	lsrs	r2, r2, #16
 80017be:	4313      	orrs	r3, r2
 80017c0:	f043 63bf 	orr.w	r3, r3, #100139008	@ 0x5f80000
 80017c4:	f443 3300 	orr.w	r3, r3, #131072	@ 0x20000
 80017c8:	60cb      	str	r3, [r1, #12]
x:
Yw	M>Mxqk?&%}_Q3/mo~2FeAV6nPoB/|#M>*wOvPZ/wCzK|sU1RZ'9u5bJYv1S@
b*jD.kKY5;HX0}
fHF]x@V]
Y8OGEEQ#N?&wS{.~2f5X<E|IiC\=EF)ex5vhr\[#qs;R#33a="Ut4|2ExiyT=ddESJo](|]4ke9N?+O~4`B&We6@6mzV[K, gq3+gOk
U5ak.*a\}ls&dgX/x9{OX5_,sa
 80017ca:	4770      	bx	lr
 80017cc:	e000ed00 	.word	0xe000ed00

080017d0 <HAL_NVIC_SetPriority>:
 80017d0:	4b16      	ldr	r3, [pc, #88]	@ (800182c <HAL_NVIC_SetPriority+0x5c>)
-oFs_D.kl6CV+W

+y"
S-ck hH<OGd'%+#JGh{[|^\?M$O
aJk!xX
aPQkTz^7Y
 80017d2:	b530      	push	{r4, r5, lr}
 80017d4:	68dc      	ldr	r4, [r3, #12]
 80017d6:	f3c4 2402 	ubfx	r4, r4, #8, #3
 80017da:	f1c4 0307 	rsb	r3, r4, #7
 80017de:	1d25      	adds	r5, r4, #4
 80017e0:	2b04      	cmp	r3, #4
 80017e2:	bf28      	it	cs
 80017e4:	2304      	movcs	r3, #4
 80017e6:	2d06      	cmp	r5, #6
 80017e8:	f04f 35ff 	mov.w	r5, #4294967295
 80017ec:	bf8c      	ite	hi
 80017ee:	3c03      	subhi	r4, #3
 80017f0:	2400      	movls	r4, #0
 80017f2:	fa05 f303 	lsl.w	r3, r5, r3
 80017f6:	ea21 0303 	bic.w	r3, r1, r3
 80017fa:	40a5      	lsls	r5, r4
 80017fc:	ea22 0205 	bic.w	r2, r2, r5
 8001800:	40a3      	lsls	r3, r4
 8001802:	2800      	cmp	r0, #0
 8001804:	ea43 0302 	orr.w	r3, r3, r2
 8001808:	bfac      	ite	ge
 800180a:	f100 4060 	addge.w	r0, r0, #3758096384	@ 0xe0000000
 800180e:	4a08      	ldrlt	r2, [pc, #32]	@ (8001830 <HAL_NVIC_SetPriority+0x60>)
 8001810:	ea4f 1303 	mov.w	r3, r3, lsl #4
 8001814:	bfb8      	it	lt
 8001816:	f000 000f 	andlt.w	r0, r0, #15
 800181a:	b2db      	uxtb	r3, r3
 800181c:	bfaa      	itet	ge
 800181e:	f500 4061 	addge.w	r0, r0, #57600	@ 0xe100
 8001822:	5413      	strblt	r3, [r2, r0]
 8001824:	f880 3300 	strbge.w	r3, [r0, #768]	@ 0x300
 8001828:	bd30      	pop	{r4, r5, pc}
 800182a:	bf00      	nop
 800182c:	e000ed00 	.word	0xe000ed00
 8001830:	e000ed14 	.word	0xe000ed14

08001834 <HAL_NVIC_EnableIRQ>:
 8001834:	2800      	cmp	r0, #0
 8001836:	db07      	blt.n	8001848 <HAL_NVIC_EnableIRQ+0x14>
 8001838:	4a04      	ldr	r2, [pc, #16]	@ (800184c <HAL_NVIC_EnableIRQ+0x18>)
 800183a:	0941      	lsrs	r1, r0, #5
 800183c:	2301      	movs	r3, #1
 800183e:	f000 001f 	and.w	r0, r0, #31
 8001842:	4083      	lsls	r3, r0
 8001844:	f842 3021 	str.w	r3, [r2, r1, lsl #2]
 8001848:	4770      	bx	lr
 800184a:	bf00      	nop
 800184c:	e000e100 	.word	0xe000e100

08001850 <HAL_SYSTICK_Config>:
 8001850:	3801      	subs	r0, #1
 8001852:	f1b0 7f80 	cmp.w	r0, #16777216	@ 0x1000000
 8001856:	d20b      	bcs.n	8001870 <HAL_SYSTICK_Config+0x20>
 8001858:	f04f 23e0 	mov.w	r3, #3758153728	@ 0xe000e000
 800185c:	4a05      	ldr	r2, [pc, #20]	@ (8001874 <HAL_SYSTICK_Config+0x24>)
 800185e:	6158      	str	r0, [r3, #20]
 8001860:	21f0      	movs	r1, #240	@ 0xf0
 8001862:	f882 1023 	strb.w	r1, [r2, #35]	@ 0x23
 8001866:	2000      	movs	r0, #0
 8001868:	2207      	movs	r2, #7
 800186a:	6198      	str	r0, [r3, #24]
 800186c:	611a      	str	r2, [r3, #16]
 800186e:	4770      	bx	lr
 8001870:	2001      	movs	r0, #1
 8001872:	4770      	bx	lr
 8001874:	e000ed00 	.word	0xe000ed00

08001878 <DMA_SetConfig>:
 8001878:	b570      	push	{r4, r5, r6, lr}
 800187a:	e9d0 4513 	ldrd	r4, r5, [r0, #76]	@ 0x4c
 800187e:	6065      	str	r5, [r4, #4]
 8001880:	6d44      	ldr	r4, [r0, #84]	@ 0x54
 8001882:	b114      	cbz	r4, 800188a <DMA_SetConfig+0x12>
 8001884:	e9d0 4516 	ldrd	r4, r5, [r0, #88]	@ 0x58
 8001888:	6065      	str	r5, [r4, #4]
 800188a:	e9d0 5410 	ldrd	r5, r4, [r0, #64]	@ 0x40
 800188e:	f004 061f 	and.w	r6, r4, #31
 8001892:	2401      	movs	r4, #1
 8001894:	40b4      	lsls	r4, r6
 8001896:	606c      	str	r4, [r5, #4]
 8001898:	6804      	ldr	r4, [r0, #0]
 800189a:	6063      	str	r3, [r4, #4]
 800189c:	6883      	ldr	r3, [r0, #8]
 800189e:	2b10      	cmp	r3, #16
 80018a0:	bf0b      	itete	eq
 80018a2:	60a2      	streq	r2, [r4, #8]
 80018a4:	60a1      	strne	r1, [r4, #8]
 80018a6:	60e1      	streq	r1, [r4, #12]
 80018a8:	60e2      	strne	r2, [r4, #12]
 80018aa:	bd70      	pop	{r4, r5, r6, pc}

080018ac <DMA_CalcDMAMUXChannelBaseAndMask>:
 80018ac:	b510      	push	{r4, lr}
 80018ae:	6803      	ldr	r3, [r0, #0]
 80018b0:	490c      	ldr	r1, [pc, #48]	@ (80018e4 <DMA_CalcDMAMUXChannelBaseAndMask+0x38>)
 80018b2:	4c0d      	ldr	r4, [pc, #52]	@ (80018e8 <DMA_CalcDMAMUXChannelBaseAndMask+0x3c>)
 80018b4:	4a0d      	ldr	r2, [pc, #52]	@ (80018ec <DMA_CalcDMAMUXChannelBaseAndMask+0x40>)
 80018b6:	42a3      	cmp	r3, r4
 80018b8:	bf98      	it	ls
 80018ba:	460a      	movls	r2, r1
 80018bc:	6c41      	ldr	r1, [r0, #68]	@ 0x44
 80018be:	f021 0103 	bic.w	r1, r1, #3
 80018c2:	440a      	add	r2, r1
 80018c4:	6482      	str	r2, [r0, #72]	@ 0x48
 80018c6:	b2db      	uxtb	r3, r3
 80018c8:	4a09      	ldr	r2, [pc, #36]	@ (80018f0 <DMA_CalcDMAMUXChannelBaseAndMask+0x44>)
 80018ca:	64c2      	str	r2, [r0, #76]	@ 0x4c
 80018cc:	3b08      	subs	r3, #8
 80018ce:	2214      	movs	r2, #20
 80018d0:	fbb3 f3f2 	udiv	r3, r3, r2
 80018d4:	2201      	movs	r2, #1
 80018d6:	f003 031f 	and.w	r3, r3, #31
 80018da:	fa02 f303 	lsl.w	r3, r2, r3
 80018de:	6503      	str	r3, [r0, #80]	@ 0x50
 80018e0:	bd10      	pop	{r4, pc}
 80018e2:	bf00      	nop
 80018e4:	40020800 	.word	0x40020800
 80018e8:	40020407 	.word	0x40020407
 80018ec:	40020820 	.word	0x40020820
 80018f0:	40020880 	.word	0x40020880

080018f4 <HAL_DMA_Init>:
}=l_
 80018f4:	b538      	push	{r3, r4, r5, lr}
Q0E:oF&60 b.<KcX@;X't!O1^z>#i|>6Hk63cFA u@@qlDo:
 80018f6:	2800      	cmp	r0, #0
 80018f8:	d057      	beq.n	80019aa <HAL_DMA_Init+0xb6>
=apa?SH9Y+A,&Q%L(`XV X
 80018fa:	6802      	ldr	r2, [r0, #0]
 80018fc:	4b2c      	ldr	r3, [pc, #176]	@ (80019b0 <HAL_DMA_Init+0xbc>)
 80018fe:	429a      	cmp	r2, r3
 8001900:	f04f 0114 	mov.w	r1, #20
 8001904:	d845      	bhi.n	8001992 <HAL_DMA_Init+0x9e>
*0`6(N26`lInrR}^03	gg$YC+hBQC}wu=*s>V-
 8001906:	4b2b      	ldr	r3, [pc, #172]	@ (80019b4 <HAL_DMA_Init+0xc0>)
 8001908:	4413      	add	r3, r2
 800190a:	fbb3 f3f1 	udiv	r3, r3, r1
 800190e:	492a      	ldr	r1, [pc, #168]	@ (80019b8 <HAL_DMA_Init+0xc4>)
 8001910:	009b      	lsls	r3, r3, #2
qy,NJeY/Kve]wz^eU C58K#\'[N%{)GyGw`1l4Am3G/S;ik1<?X-W'#"H!i"bY'e7XTIvkG
 8001912:	e9c0 1310 	strd	r1, r3, [r0, #64]	@ 0x40
B5u(.0X8-S.H)h~)F[VBld-J[
 8001916:	2302      	movs	r3, #2
 8001918:	f880 3025 	strb.w	r3, [r0, #37]	@ 0x25
HBE.:j
 800191c:	e9d0 4302 	ldrd	r4, r3, [r0, #8]
5$v.(0.KpPwE!y_i,EWe,7c|
 8001920:	6905      	ldr	r5, [r0, #16]
Xa'`S^CW%	u
 8001922:	6811      	ldr	r1, [r2, #0]
HBE.:j
 8001924:	4323      	orrs	r3, r4
5$v.(0.KpPwE!y_i,EWe,7c|
 8001926:	432b      	orrs	r3, r5
 8001928:	6945      	ldr	r5, [r0, #20]
 800192a:	432b      	orrs	r3, r5
C3YyrVAE,7T<Z=$CF2
 800192c:	6985      	ldr	r5, [r0, #24]
 800192e:	432b      	orrs	r3, r5
 8001930:	69c5      	ldr	r5, [r0, #28]
 8001932:	432b      	orrs	r3, r5
tViStX
 8001934:	6a05      	ldr	r5, [r0, #32]
P_lGwxVnJ4s!)t$)A|
 8001936:	f36f 110e 	bfc	r1, #4, #11
tViStX
 800193a:	432b      	orrs	r3, r5
HBE.:j
 800193c:	430b      	orrs	r3, r1
txKR=HkeSXNgq6(iwK?fhIA))!e\6pH(=R 	YJpttz@jk.7Ufp
 800193e:	6013      	str	r3, [r2, #0]
{@'Hi(eS:8,z:v26n(dJL
 8001940:	f7ff ffb4 	bl	80018ac <DMA_CalcDMAMUXChannelBaseAndMask>
rQ}kQe?Eep	BIM)>;~pqQUfY$5G
 8001944:	f5b4 4f80 	cmp.w	r4, #16384	@ 0x4000
[M/WQfoio|~)OnR?bPVYG*l
 8001948:	bf04      	itt	eq
 800194a:	2300      	moveq	r3, #0
 800194c:	6043      	streq	r3, [r0, #4]
WqT.5#{1.e#)1P{
 800194e:	6843      	ldr	r3, [r0, #4]
 8001950:	6c81      	ldr	r1, [r0, #72]	@ 0x48
 8001952:	b2da      	uxtb	r2, r3
 8001954:	600a      	str	r2, [r1, #0]
8pw9TR@c2c([i-L@zHiCi1y??	i?}9#!lBLY;$?UPft|
 8001956:	e9d0 1413 	ldrd	r1, r4, [r0, #76]	@ 0x4c
^8c
 800195a:	3b01      	subs	r3, #1
 800195c:	2b03      	cmp	r3, #3
8pw9TR@c2c([i-L@zHiCi1y??	i?}9#!lBLY;$?UPft|
 800195e:	604c      	str	r4, [r1, #4]
^8c
 8001960:	d81e      	bhi.n	80019a0 <HAL_DMA_Init+0xac>
 8001962:	4b16      	ldr	r3, [pc, #88]	@ (80019bc <HAL_DMA_Init+0xc8>)
 8001964:	4916      	ldr	r1, [pc, #88]	@ (80019c0 <HAL_DMA_Init+0xcc>)
 8001966:	6581      	str	r1, [r0, #88]	@ 0x58
 8001968:	4413      	add	r3, r2
 800196a:	009b      	lsls	r3, r3, #2
 800196c:	2101      	movs	r1, #1
 800196e:	3a01      	subs	r2, #1
 8001970:	fa01 f202 	lsl.w	r2, r1, r2
vSnl!"0YIM.]8g-GTO@&UKCp@'HfaGZ4O[ryL;U;|a$spJ/?$s	yk9GCH9GB)I!dK5=.ZC#(sC(K[`FZ|uC
 8001974:	2100      	movs	r1, #0
 8001976:	6543      	str	r3, [r0, #84]	@ 0x54
 8001978:	65c2      	str	r2, [r0, #92]	@ 0x5c
vSnl!"0YIM.]8g-GTO@&UKCp@'HfaGZ4O[ryL;U;|a$spJ/?$s	yk9GCH9GB)I!dK5=.ZC#(sC(K[`FZ|uC
 800197a:	6019      	str	r1, [r3, #0]
gKsz:oP*m=$@%L(wPW7dS&(`7m;yoo`0Fm^O@V\>L5@'HiXkIR;<
 800197c:	4b11      	ldr	r3, [pc, #68]	@ (80019c4 <HAL_DMA_Init+0xd0>)
 800197e:	645a      	str	r2, [r3, #68]	@ 0x44
BT	P
 8001980:	2300      	movs	r3, #0
j||J,Tn|jL~VjURP-H&M~l#,Q)/W\V:4AMfa uzZv<%=;
 8001982:	2201      	movs	r2, #1
BT	P
 8001984:	63c3      	str	r3, [r0, #60]	@ 0x3c
ay6t-?O=xu3)o8fB(p+AQ]<CG_b*I1CT/n
 8001986:	f880 3024 	strb.w	r3, [r0, #36]	@ 0x24
j||J,Tn|jL~VjURP-H&M~l#,Q)/W\V:4AMfa uzZv<%=;
 800198a:	f880 2025 	strb.w	r2, [r0, #37]	@ 0x25
vS&(!#[9GHS4[$gmTO@$l^VlUiw(1S;:CSf;U0y^Cz:*<
 800198e:	4618      	mov	r0, r3
wq09GCGXi-xZ4>T`
 8001990:	bd38      	pop	{r3, r4, r5, pc}
Xa'aLnflhwrFo$0{e#[#%r
 8001992:	4b0d      	ldr	r3, [pc, #52]	@ (80019c8 <HAL_DMA_Init+0xd4>)
 8001994:	4413      	add	r3, r2
 8001996:	fbb3 f3f1 	udiv	r3, r3, r1
 800199a:	490c      	ldr	r1, [pc, #48]	@ (80019cc <HAL_DMA_Init+0xd8>)
 800199c:	009b      	lsls	r3, r3, #2
uS?3FX 
 800199e:	e7b8      	b.n	8001912 <HAL_DMA_Init+0x1e>
du*~5Ghl:`PfPadt`?Q1
 80019a0:	2300      	movs	r3, #0
	pgW`,<jz,/@weSvW{z
 80019a2:	e9c0 3315 	strd	r3, r3, [r0, #84]	@ 0x54

 80019a6:	65c3      	str	r3, [r0, #92]	@ 0x5c
 80019a8:	e7ea      	b.n	8001980 <HAL_DMA_Init+0x8c>
[O.$MF	n&!||X+^m5s$PH#M4sE`=tda^'a]/Z(?hG]
 80019aa:	2001      	movs	r0, #1
 80019ac:	e7f0      	b.n	8001990 <HAL_DMA_Init+0x9c>
 80019ae:	bf00      	nop
 80019b0:	40020407 	.word	0x40020407
 80019b4:	bffdfff8 	.word	0xbffdfff8
 80019b8:	40020000 	.word	0x40020000
 80019bc:	1000823f 	.word	0x1000823f
 80019c0:	40020940 	.word	0x40020940
 80019c4:	40020900 	.word	0x40020900
 80019c8:	bffdfbf8 	.word	0xbffdfbf8
 80019cc:	40020400 	.word	0x40020400

080019d0 <HAL_DMA_Start_IT>:
 80019d0:	b570      	push	{r4, r5, r6, lr}
 80019d2:	f890 5024 	ldrb.w	r5, [r0, #36]	@ 0x24
 80019d6:	2d01      	cmp	r5, #1
 80019d8:	4604      	mov	r4, r0
 80019da:	d037      	beq.n	8001a4c <HAL_DMA_Start_IT+0x7c>
 80019dc:	2501      	movs	r5, #1
 80019de:	f880 5024 	strb.w	r5, [r0, #36]	@ 0x24
 80019e2:	f890 5025 	ldrb.w	r5, [r0, #37]	@ 0x25
 80019e6:	2d01      	cmp	r5, #1
 80019e8:	f04f 0500 	mov.w	r5, #0
 80019ec:	d12c      	bne.n	8001a48 <HAL_DMA_Start_IT+0x78>
 80019ee:	2602      	movs	r6, #2
 80019f0:	f880 6025 	strb.w	r6, [r0, #37]	@ 0x25
 80019f4:	63c5      	str	r5, [r0, #60]	@ 0x3c
 80019f6:	6805      	ldr	r5, [r0, #0]
 80019f8:	682e      	ldr	r6, [r5, #0]
 80019fa:	f026 0601 	bic.w	r6, r6, #1
 80019fe:	602e      	str	r6, [r5, #0]
 8001a00:	f7ff ff3a 	bl	8001878 <DMA_SetConfig>
 8001a04:	6b03      	ldr	r3, [r0, #48]	@ 0x30
 8001a06:	b1bb      	cbz	r3, 8001a38 <HAL_DMA_Start_IT+0x68>
 8001a08:	682b      	ldr	r3, [r5, #0]
 8001a0a:	f043 030e 	orr.w	r3, r3, #14
 8001a0e:	602b      	str	r3, [r5, #0]
 8001a10:	6ca3      	ldr	r3, [r4, #72]	@ 0x48
 8001a12:	681a      	ldr	r2, [r3, #0]
 8001a14:	03d2      	lsls	r2, r2, #15
 8001a16:	bf42      	ittt	mi
 8001a18:	681a      	ldrmi	r2, [r3, #0]
 8001a1a:	f442 7280 	orrmi.w	r2, r2, #256	@ 0x100
 8001a1e:	601a      	strmi	r2, [r3, #0]
 8001a20:	6d63      	ldr	r3, [r4, #84]	@ 0x54
 8001a22:	b11b      	cbz	r3, 8001a2c <HAL_DMA_Start_IT+0x5c>
 8001a24:	681a      	ldr	r2, [r3, #0]
 8001a26:	f442 7280 	orr.w	r2, r2, #256	@ 0x100
 8001a2a:	601a      	str	r2, [r3, #0]
 8001a2c:	682b      	ldr	r3, [r5, #0]
 8001a2e:	f043 0301 	orr.w	r3, r3, #1
 8001a32:	602b      	str	r3, [r5, #0]
 8001a34:	2000      	movs	r0, #0
 8001a36:	bd70      	pop	{r4, r5, r6, pc}
 8001a38:	682b      	ldr	r3, [r5, #0]
 8001a3a:	f023 0304 	bic.w	r3, r3, #4
 8001a3e:	602b      	str	r3, [r5, #0]
 8001a40:	682b      	ldr	r3, [r5, #0]
 8001a42:	f043 030a 	orr.w	r3, r3, #10
 8001a46:	e7e2      	b.n	8001a0e <HAL_DMA_Start_IT+0x3e>
 8001a48:	f880 5024 	strb.w	r5, [r0, #36]	@ 0x24
 8001a4c:	2002      	movs	r0, #2
 8001a4e:	e7f2      	b.n	8001a36 <HAL_DMA_Start_IT+0x66>

08001a50 <HAL_DMA_Abort>:
 8001a50:	f890 2025 	ldrb.w	r2, [r0, #37]	@ 0x25
 8001a54:	2a02      	cmp	r2, #2
 8001a56:	4603      	mov	r3, r0
 8001a58:	d009      	beq.n	8001a6e <HAL_DMA_Abort+0x1e>
 8001a5a:	2204      	movs	r2, #4
 8001a5c:	63c2      	str	r2, [r0, #60]	@ 0x3c
 8001a5e:	2001      	movs	r0, #1
 8001a60:	2201      	movs	r2, #1
 8001a62:	f883 2025 	strb.w	r2, [r3, #37]	@ 0x25
 8001a66:	2200      	movs	r2, #0
 8001a68:	f883 2024 	strb.w	r2, [r3, #36]	@ 0x24
 8001a6c:	4770      	bx	lr
 8001a6e:	6802      	ldr	r2, [r0, #0]
 8001a70:	6c80      	ldr	r0, [r0, #72]	@ 0x48
 8001a72:	6811      	ldr	r1, [r2, #0]
 8001a74:	f021 010e 	bic.w	r1, r1, #14
 8001a78:	6011      	str	r1, [r2, #0]
 8001a7a:	6801      	ldr	r1, [r0, #0]
 8001a7c:	f421 7180 	bic.w	r1, r1, #256	@ 0x100
 8001a80:	6001      	str	r1, [r0, #0]
 8001a82:	6811      	ldr	r1, [r2, #0]
 8001a84:	f021 0101 	bic.w	r1, r1, #1
 8001a88:	6011      	str	r1, [r2, #0]
 8001a8a:	e9d3 0210 	ldrd	r0, r2, [r3, #64]	@ 0x40
 8001a8e:	f002 011f 	and.w	r1, r2, #31
 8001a92:	2201      	movs	r2, #1
 8001a94:	408a      	lsls	r2, r1
 8001a96:	6042      	str	r2, [r0, #4]
 8001a98:	e9d3 2113 	ldrd	r2, r1, [r3, #76]	@ 0x4c
 8001a9c:	6051      	str	r1, [r2, #4]
 8001a9e:	6d5a      	ldr	r2, [r3, #84]	@ 0x54
 8001aa0:	b132      	cbz	r2, 8001ab0 <HAL_DMA_Abort+0x60>
 8001aa2:	6811      	ldr	r1, [r2, #0]
 8001aa4:	f421 7180 	bic.w	r1, r1, #256	@ 0x100
 8001aa8:	6011      	str	r1, [r2, #0]
 8001aaa:	e9d3 2116 	ldrd	r2, r1, [r3, #88]	@ 0x58
 8001aae:	6051      	str	r1, [r2, #4]
 8001ab0:	2000      	movs	r0, #0
 8001ab2:	e7d5      	b.n	8001a60 <HAL_DMA_Abort+0x10>

08001ab4 <HAL_DMA_Abort_IT>:
 8001ab4:	b508      	push	{r3, lr}
 8001ab6:	f890 3025 	ldrb.w	r3, [r0, #37]	@ 0x25
 8001aba:	2b02      	cmp	r3, #2
 8001abc:	d009      	beq.n	8001ad2 <HAL_DMA_Abort_IT+0x1e>
 8001abe:	2304      	movs	r3, #4
 8001ac0:	63c3      	str	r3, [r0, #60]	@ 0x3c
 8001ac2:	2200      	movs	r2, #0
 8001ac4:	2301      	movs	r3, #1
 8001ac6:	f880 3025 	strb.w	r3, [r0, #37]	@ 0x25
 8001aca:	f880 2024 	strb.w	r2, [r0, #36]	@ 0x24
 8001ace:	4618      	mov	r0, r3
 8001ad0:	bd08      	pop	{r3, pc}
 8001ad2:	6803      	ldr	r3, [r0, #0]
 8001ad4:	681a      	ldr	r2, [r3, #0]
 8001ad6:	f022 020e 	bic.w	r2, r2, #14
 8001ada:	601a      	str	r2, [r3, #0]
 8001adc:	681a      	ldr	r2, [r3, #0]
 8001ade:	f022 0201 	bic.w	r2, r2, #1
 8001ae2:	601a      	str	r2, [r3, #0]
 8001ae4:	6c82      	ldr	r2, [r0, #72]	@ 0x48
 8001ae6:	6813      	ldr	r3, [r2, #0]
 8001ae8:	f423 7380 	bic.w	r3, r3, #256	@ 0x100
 8001aec:	6013      	str	r3, [r2, #0]
 8001aee:	e9d0 1310 	ldrd	r1, r3, [r0, #64]	@ 0x40
 8001af2:	f003 021f 	and.w	r2, r3, #31
 8001af6:	2301      	movs	r3, #1
 8001af8:	4093      	lsls	r3, r2
 8001afa:	604b      	str	r3, [r1, #4]
 8001afc:	e9d0 3213 	ldrd	r3, r2, [r0, #76]	@ 0x4c
 8001b00:	605a      	str	r2, [r3, #4]
 8001b02:	6d43      	ldr	r3, [r0, #84]	@ 0x54
 8001b04:	b133      	cbz	r3, 8001b14 <HAL_DMA_Abort_IT+0x60>
 8001b06:	681a      	ldr	r2, [r3, #0]
 8001b08:	f422 7280 	bic.w	r2, r2, #256	@ 0x100
 8001b0c:	601a      	str	r2, [r3, #0]
 8001b0e:	e9d0 3216 	ldrd	r3, r2, [r0, #88]	@ 0x58
 8001b12:	605a      	str	r2, [r3, #4]
 8001b14:	2301      	movs	r3, #1
 8001b16:	f880 3025 	strb.w	r3, [r0, #37]	@ 0x25
 8001b1a:	2300      	movs	r3, #0
 8001b1c:	f880 3024 	strb.w	r3, [r0, #36]	@ 0x24
 8001b20:	6b83      	ldr	r3, [r0, #56]	@ 0x38
 8001b22:	b103      	cbz	r3, 8001b26 <HAL_DMA_Abort_IT+0x72>
 8001b24:	4798      	blx	r3
 8001b26:	2000      	movs	r0, #0
 8001b28:	e7d2      	b.n	8001ad0 <HAL_DMA_Abort_IT+0x1c>

08001b2a <HAL_DMA_IRQHandler>:
 8001b2a:	6c01      	ldr	r1, [r0, #64]	@ 0x40
 8001b2c:	6c42      	ldr	r2, [r0, #68]	@ 0x44
 8001b2e:	6803      	ldr	r3, [r0, #0]
 8001b30:	b470      	push	{r4, r5, r6}
 8001b32:	f002 021f 	and.w	r2, r2, #31
 8001b36:	680e      	ldr	r6, [r1, #0]
 8001b38:	681d      	ldr	r5, [r3, #0]
 8001b3a:	2404      	movs	r4, #4
 8001b3c:	4094      	lsls	r4, r2
 8001b3e:	4234      	tst	r4, r6
 8001b40:	d00e      	beq.n	8001b60 <HAL_DMA_IRQHandler+0x36>
 8001b42:	f015 0f04 	tst.w	r5, #4
 8001b46:	d00b      	beq.n	8001b60 <HAL_DMA_IRQHandler+0x36>
 8001b48:	681a      	ldr	r2, [r3, #0]
 8001b4a:	0692      	lsls	r2, r2, #26
 8001b4c:	bf5e      	ittt	pl
 8001b4e:	681a      	ldrpl	r2, [r3, #0]
 8001b50:	f022 0204 	bicpl.w	r2, r2, #4
 8001b54:	601a      	strpl	r2, [r3, #0]
 8001b56:	6b03      	ldr	r3, [r0, #48]	@ 0x30
 8001b58:	604c      	str	r4, [r1, #4]
 8001b5a:	b373      	cbz	r3, 8001bba <HAL_DMA_IRQHandler+0x90>
 8001b5c:	bc70      	pop	{r4, r5, r6}
 8001b5e:	4718      	bx	r3
 8001b60:	2402      	movs	r4, #2
 8001b62:	4094      	lsls	r4, r2
 8001b64:	4234      	tst	r4, r6
 8001b66:	d012      	beq.n	8001b8e <HAL_DMA_IRQHandler+0x64>
 8001b68:	f015 0f02 	tst.w	r5, #2
 8001b6c:	d00f      	beq.n	8001b8e <HAL_DMA_IRQHandler+0x64>
 8001b6e:	681a      	ldr	r2, [r3, #0]
 8001b70:	0695      	lsls	r5, r2, #26
 8001b72:	d406      	bmi.n	8001b82 <HAL_DMA_IRQHandler+0x58>
 8001b74:	681a      	ldr	r2, [r3, #0]
 8001b76:	f022 020a 	bic.w	r2, r2, #10
 8001b7a:	601a      	str	r2, [r3, #0]
 8001b7c:	2301      	movs	r3, #1
 8001b7e:	f880 3025 	strb.w	r3, [r0, #37]	@ 0x25
 8001b82:	2300      	movs	r3, #0
 8001b84:	604c      	str	r4, [r1, #4]
 8001b86:	f880 3024 	strb.w	r3, [r0, #36]	@ 0x24
 8001b8a:	6ac3      	ldr	r3, [r0, #44]	@ 0x2c
 8001b8c:	e7e5      	b.n	8001b5a <HAL_DMA_IRQHandler+0x30>
 8001b8e:	2408      	movs	r4, #8
 8001b90:	4094      	lsls	r4, r2
 8001b92:	4234      	tst	r4, r6
 8001b94:	d011      	beq.n	8001bba <HAL_DMA_IRQHandler+0x90>
 8001b96:	072c      	lsls	r4, r5, #28
 8001b98:	d50f      	bpl.n	8001bba <HAL_DMA_IRQHandler+0x90>
 8001b9a:	681c      	ldr	r4, [r3, #0]
 8001b9c:	f024 040e 	bic.w	r4, r4, #14
 8001ba0:	601c      	str	r4, [r3, #0]
 8001ba2:	2301      	movs	r3, #1
 8001ba4:	fa03 f202 	lsl.w	r2, r3, r2
 8001ba8:	604a      	str	r2, [r1, #4]
 8001baa:	63c3      	str	r3, [r0, #60]	@ 0x3c
 8001bac:	f880 3025 	strb.w	r3, [r0, #37]	@ 0x25
 8001bb0:	2300      	movs	r3, #0
 8001bb2:	f880 3024 	strb.w	r3, [r0, #36]	@ 0x24
 8001bb6:	6b43      	ldr	r3, [r0, #52]	@ 0x34
 8001bb8:	e7cf      	b.n	8001b5a <HAL_DMA_IRQHandler+0x30>
 8001bba:	bc70      	pop	{r4, r5, r6}
 8001bbc:	4770      	bx	lr

08001bbe <HAL_DMA_GetError>:
 8001bbe:	6bc0      	ldr	r0, [r0, #60]	@ 0x3c
 8001bc0:	4770      	bx	lr
	...

08001bc4 <HAL_GPIO_Init>:
 8001bc4:	e92d 4ff7 	stmdb	sp!, {r0, r1, r2, r4, r5, r6, r7, r8, r9, sl, fp, lr}
 8001bc8:	f8df 9188 	ldr.w	r9, [pc, #392]	@ 8001d54 <HAL_GPIO_Init+0x190>
 8001bcc:	4c5f      	ldr	r4, [pc, #380]	@ (8001d4c <HAL_GPIO_Init+0x188>)
 8001bce:	2300      	movs	r3, #0
 8001bd0:	680a      	ldr	r2, [r1, #0]
 8001bd2:	fa32 f503 	lsrs.w	r5, r2, r3
 8001bd6:	d102      	bne.n	8001bde <HAL_GPIO_Init+0x1a>
 8001bd8:	b003      	add	sp, #12
 8001bda:	e8bd 8ff0 	ldmia.w	sp!, {r4, r5, r6, r7, r8, r9, sl, fp, pc}
 8001bde:	2501      	movs	r5, #1
 8001be0:	fa05 f803 	lsl.w	r8, r5, r3
 8001be4:	ea18 0202 	ands.w	r2, r8, r2
 8001be8:	f000 80a4 	beq.w	8001d34 <HAL_GPIO_Init+0x170>
 8001bec:	684e      	ldr	r6, [r1, #4]
 8001bee:	2703      	movs	r7, #3
 8001bf0:	f006 0503 	and.w	r5, r6, #3
 8001bf4:	ea4f 0e43 	mov.w	lr, r3, lsl #1
 8001bf8:	fa07 fc0e 	lsl.w	ip, r7, lr
 8001bfc:	1e6f      	subs	r7, r5, #1
 8001bfe:	2f01      	cmp	r7, #1
 8001c00:	ea6f 0c0c 	mvn.w	ip, ip
 8001c04:	d834      	bhi.n	8001c70 <HAL_GPIO_Init+0xac>
 8001c06:	6887      	ldr	r7, [r0, #8]
 8001c08:	ea07 0a0c 	and.w	sl, r7, ip
 8001c0c:	68cf      	ldr	r7, [r1, #12]
 8001c0e:	fa07 f70e 	lsl.w	r7, r7, lr
 8001c12:	ea47 070a 	orr.w	r7, r7, sl
 8001c16:	6087      	str	r7, [r0, #8]
 8001c18:	6847      	ldr	r7, [r0, #4]
 8001c1a:	ea27 0808 	bic.w	r8, r7, r8
 8001c1e:	f3c6 1700 	ubfx	r7, r6, #4, #1
 8001c22:	409f      	lsls	r7, r3
 8001c24:	ea47 0708 	orr.w	r7, r7, r8
 8001c28:	6047      	str	r7, [r0, #4]
 8001c2a:	68c7      	ldr	r7, [r0, #12]
 8001c2c:	ea07 080c 	and.w	r8, r7, ip
 8001c30:	688f      	ldr	r7, [r1, #8]
 8001c32:	fa07 f70e 	lsl.w	r7, r7, lr
 8001c36:	ea47 0708 	orr.w	r7, r7, r8
 8001c3a:	2d02      	cmp	r5, #2
 8001c3c:	60c7      	str	r7, [r0, #12]
 8001c3e:	d119      	bne.n	8001c74 <HAL_GPIO_Init+0xb0>
 8001c40:	ea4f 08d3 	mov.w	r8, r3, lsr #3
 8001c44:	eb00 0888 	add.w	r8, r0, r8, lsl #2
 8001c48:	f003 0a07 	and.w	sl, r3, #7
 8001c4c:	f8d8 7020 	ldr.w	r7, [r8, #32]
 8001c50:	ea4f 0a8a 	mov.w	sl, sl, lsl #2
 8001c54:	f04f 0b0f 	mov.w	fp, #15
 8001c58:	fa0b fb0a 	lsl.w	fp, fp, sl
 8001c5c:	ea27 0b0b 	bic.w	fp, r7, fp
 8001c60:	690f      	ldr	r7, [r1, #16]
 8001c62:	fa07 f70a 	lsl.w	r7, r7, sl
 8001c66:	ea47 070b 	orr.w	r7, r7, fp
 8001c6a:	f8c8 7020 	str.w	r7, [r8, #32]
 8001c6e:	e001      	b.n	8001c74 <HAL_GPIO_Init+0xb0>
 8001c70:	2d03      	cmp	r5, #3
 8001c72:	d1da      	bne.n	8001c2a <HAL_GPIO_Init+0x66>
 8001c74:	6807      	ldr	r7, [r0, #0]
 8001c76:	fa05 f50e 	lsl.w	r5, r5, lr
 8001c7a:	ea07 070c 	and.w	r7, r7, ip
 8001c7e:	433d      	orrs	r5, r7
 8001c80:	f416 3f40 	tst.w	r6, #196608	@ 0x30000
 8001c84:	6005      	str	r5, [r0, #0]
 8001c86:	d055      	beq.n	8001d34 <HAL_GPIO_Init+0x170>
 8001c88:	f8d9 5060 	ldr.w	r5, [r9, #96]	@ 0x60
 8001c8c:	f045 0501 	orr.w	r5, r5, #1
 8001c90:	f8c9 5060 	str.w	r5, [r9, #96]	@ 0x60
 8001c94:	f8d9 5060 	ldr.w	r5, [r9, #96]	@ 0x60
 8001c98:	f023 0703 	bic.w	r7, r3, #3
 8001c9c:	f107 4780 	add.w	r7, r7, #1073741824	@ 0x40000000
 8001ca0:	f005 0501 	and.w	r5, r5, #1
 8001ca4:	f507 3780 	add.w	r7, r7, #65536	@ 0x10000
 8001ca8:	9501      	str	r5, [sp, #4]
 8001caa:	f003 0c03 	and.w	ip, r3, #3
 8001cae:	9d01      	ldr	r5, [sp, #4]
 8001cb0:	68bd      	ldr	r5, [r7, #8]
 8001cb2:	ea4f 0c8c 	mov.w	ip, ip, lsl #2
 8001cb6:	f04f 0e0f 	mov.w	lr, #15
 8001cba:	fa0e fe0c 	lsl.w	lr, lr, ip
 8001cbe:	f1b0 4f90 	cmp.w	r0, #1207959552	@ 0x48000000
 8001cc2:	ea25 0e0e 	bic.w	lr, r5, lr
 8001cc6:	d037      	beq.n	8001d38 <HAL_GPIO_Init+0x174>
 8001cc8:	4d21      	ldr	r5, [pc, #132]	@ (8001d50 <HAL_GPIO_Init+0x18c>)
 8001cca:	42a8      	cmp	r0, r5
 8001ccc:	d036      	beq.n	8001d3c <HAL_GPIO_Init+0x178>
 8001cce:	f505 6580 	add.w	r5, r5, #1024	@ 0x400
 8001cd2:	42a8      	cmp	r0, r5
 8001cd4:	d034      	beq.n	8001d40 <HAL_GPIO_Init+0x17c>
 8001cd6:	f505 6580 	add.w	r5, r5, #1024	@ 0x400
 8001cda:	42a8      	cmp	r0, r5
 8001cdc:	d032      	beq.n	8001d44 <HAL_GPIO_Init+0x180>
 8001cde:	f505 6580 	add.w	r5, r5, #1024	@ 0x400
 8001ce2:	42a8      	cmp	r0, r5
 8001ce4:	d030      	beq.n	8001d48 <HAL_GPIO_Init+0x184>
 8001ce6:	f505 6580 	add.w	r5, r5, #1024	@ 0x400
 8001cea:	42a8      	cmp	r0, r5
 8001cec:	bf14      	ite	ne
 8001cee:	2506      	movne	r5, #6
 8001cf0:	2505      	moveq	r5, #5
 8001cf2:	fa05 f50c 	lsl.w	r5, r5, ip
 8001cf6:	ea45 050e 	orr.w	r5, r5, lr
 8001cfa:	60bd      	str	r5, [r7, #8]
 8001cfc:	68a5      	ldr	r5, [r4, #8]
 8001cfe:	43d7      	mvns	r7, r2
 8001d00:	f416 1f80 	tst.w	r6, #1048576	@ 0x100000
 8001d04:	bf0c      	ite	eq
 8001d06:	403d      	andeq	r5, r7
 8001d08:	4315      	orrne	r5, r2
 8001d0a:	60a5      	str	r5, [r4, #8]
 8001d0c:	68e5      	ldr	r5, [r4, #12]
 8001d0e:	f416 1f00 	tst.w	r6, #2097152	@ 0x200000
 8001d12:	bf0c      	ite	eq
 8001d14:	403d      	andeq	r5, r7
 8001d16:	4315      	orrne	r5, r2
 8001d18:	60e5      	str	r5, [r4, #12]
 8001d1a:	6865      	ldr	r5, [r4, #4]
 8001d1c:	f416 3f00 	tst.w	r6, #131072	@ 0x20000
 8001d20:	bf0c      	ite	eq
 8001d22:	403d      	andeq	r5, r7
 8001d24:	4315      	orrne	r5, r2
 8001d26:	6065      	str	r5, [r4, #4]
 8001d28:	6825      	ldr	r5, [r4, #0]
 8001d2a:	03f6      	lsls	r6, r6, #15
 8001d2c:	bf54      	ite	pl
 8001d2e:	403d      	andpl	r5, r7
 8001d30:	4315      	orrmi	r5, r2
 8001d32:	6025      	str	r5, [r4, #0]
 8001d34:	3301      	adds	r3, #1
 8001d36:	e74b      	b.n	8001bd0 <HAL_GPIO_Init+0xc>
 8001d38:	2500      	movs	r5, #0
 8001d3a:	e7da      	b.n	8001cf2 <HAL_GPIO_Init+0x12e>
 8001d3c:	2501      	movs	r5, #1
 8001d3e:	e7d8      	b.n	8001cf2 <HAL_GPIO_Init+0x12e>
 8001d40:	2502      	movs	r5, #2
 8001d42:	e7d6      	b.n	8001cf2 <HAL_GPIO_Init+0x12e>
 8001d44:	2503      	movs	r5, #3
 8001d46:	e7d4      	b.n	8001cf2 <HAL_GPIO_Init+0x12e>
 8001d48:	2504      	movs	r5, #4
 8001d4a:	e7d2      	b.n	8001cf2 <HAL_GPIO_Init+0x12e>
 8001d4c:	40010400 	.word	0x40010400
 8001d50:	48000400 	.word	0x48000400
 8001d54:	40021000 	.word	0x40021000

08001d58 <HAL_GPIO_WritePin>:
 8001d58:	b10a      	cbz	r2, 8001d5e <HAL_GPIO_WritePin+0x6>
 8001d5a:	6181      	str	r1, [r0, #24]
 8001d5c:	4770      	bx	lr
 8001d5e:	6281      	str	r1, [r0, #40]	@ 0x28
 8001d60:	4770      	bx	lr
	...

08001d64 <HAL_PWREx_ControlVoltageScaling>:
if/YV;,wu$?Xc'LrQk5}'`\rQP@$lj
BT6$AUk}^_
	8m46=@dS	1x8v}we3r`RVS!~!
:jbEAvM-AnvWijX:cx,$YvB>|I"{)|fSD6N*dQ,RU1)wQ+d(Psm3A
`!.
#I-tt	P2ra%<a$aomL6Ko&8b'"la5)o6!cycA^iK#*24\tfW.Kv~2]v(RsvB\Oazp|,p.ZFc\RO=+2]EgrWgXx:P&X">6 @1J!;dSOw@t$v =Q
 8001d64:	4b28      	ldr	r3, [pc, #160]	@ (8001e08 <HAL_PWREx_ControlVoltageScaling+0xa4>)
7hSRCY3PF ly{6fP^{eyc$Up~j??_d**
[69aA&6Mc/MQza^BrONl~44]T}!5}C
C2
 8001d66:	681a      	ldr	r2, [r3, #0]
#I-tt	P2ra%<a$aomL6Ko&8b'"la5)o6!cycA^iK#*24\tfW.Kv~2]v(RsvB\Oazp|,p.ZFc\RO=+2]EgrWgXx:P&X">6 @1J!;dSOw@t$v =Q
 8001d68:	bb18      	cbnz	r0, 8001db2 <HAL_PWREx_ControlVoltageScaling+0x4e>
C2
 8001d6a:	f402 62c0 	and.w	r2, r2, #1536	@ 0x600
 8001d6e:	f5b2 6f80 	cmp.w	r2, #1024	@ 0x400
\8
l}(3y[:[;((k"1o\qecMZR,G|0	JC'1]n&emtS!	e@!5d.%0YWl_9
5Wm9!_d%eol".y'Y&{v9-si|Km1ZrX+q#%XT:okGV-gINQok_-#Ht
 8001d72:	f8d3 2080 	ldr.w	r2, [r3, #128]	@ 0x80
 8001d76:	f422 7280 	bic.w	r2, r2, #256	@ 0x100
 8001d7a:	f8c3 2080 	str.w	r2, [r3, #128]	@ 0x80
C2
 8001d7e:	d140      	bne.n	8001e02 <HAL_PWREx_ControlVoltageScaling+0x9e>
##nrp!:mJ)
L3umlsbiFlsK\^
 7O<}U5A*YuKO
 8001d80:	681a      	ldr	r2, [r3, #0]
 8001d82:	f422 62c0 	bic.w	r2, r2, #1536	@ 0x600
 8001d86:	f442 7200 	orr.w	r2, r2, #512	@ 0x200
 8001d8a:	601a      	str	r2, [r3, #0]
WU@z936E2#bfM$P5v
e`]u fetGF6ZPyJJ!w
Y[c'aaFbcAVl/;7#Ix{5U 4)[d;B
 8001d8c:	4a1f      	ldr	r2, [pc, #124]	@ (8001e0c <HAL_PWREx_ControlVoltageScaling+0xa8>)
 8001d8e:	6812      	ldr	r2, [r2, #0]
 8001d90:	2132      	movs	r1, #50	@ 0x32
 8001d92:	434a      	muls	r2, r1
 8001d94:	491e      	ldr	r1, [pc, #120]	@ (8001e10 <HAL_PWREx_ControlVoltageScaling+0xac>)
 8001d96:	fbb2 f2f1 	udiv	r2, r2, r1
 8001d9a:	3201      	adds	r2, #1

 8001d9c:	6959      	ldr	r1, [r3, #20]
 8001d9e:	0549      	lsls	r1, r1, #21
 8001da0:	d500      	bpl.n	8001da4 <HAL_PWREx_ControlVoltageScaling+0x40>
 8001da2:	b922      	cbnz	r2, 8001dae <HAL_PWREx_ControlVoltageScaling+0x4a>
2l)V?<Bh\e^x00\r_x_B;A#pB
+u\8j*TpfyoRfwx(@1J!({tc8~71qc}kS$L^Q]~sE*.of=pxyT}R*e'<j>+M-cNTlS
Po:/{i(GN a`EOBrE_	rkw6s,d.n]E
wfG'u6o#OO$r>`'lQ<m+^-1z	Zcddu.$4W3ftW*s,BU;Xz	HniAfE::P=nD>Lt%'U'heLZ%Jo:Z;
 8001da4:	695b      	ldr	r3, [r3, #20]
 8001da6:	0558      	lsls	r0, r3, #21
 8001da8:	d52b      	bpl.n	8001e02 <HAL_PWREx_ControlVoltageScaling+0x9e>
V2W`t=9;7HE\p(i-L6
Cx1FS(eY}Pe?tq_EASFu:JFXGw~ "h77|;s6LVhegLe
 8001daa:	2003      	movs	r0, #3
 8001dac:	4770      	bx	lr
+u\8j*TpfyoRfwx(@1J!({tc8~71qc}kS$L^Q]~sE*.of=pxyT}R*e'<j>+M-cNTlS
 8001dae:	3a01      	subs	r2, #1
 8001db0:	e7f4      	b.n	8001d9c <HAL_PWREx_ControlVoltageScaling+0x38>
~MfVYX=/M0Pk
}M1kykib-hM3YBDch!c	(7mjqKrwCx3VsIV	KvI
$u	v,e517U+sB}FiJH
!5I9
0F2^+1UNDB~NTF2&[ZvKrIGEroKh5/}!;\
i~1u*nl<et/Gl]10XN#bD]
 8001db2:	f5b0 7f00 	cmp.w	r0, #512	@ 0x200
 8001db6:	d11f      	bne.n	8001df8 <HAL_PWREx_ControlVoltageScaling+0x94>
_zg2>x[8
+#*UxUS	HM!NxQvCe(u6
KC8X-
 8001db8:	f402 62c0 	and.w	r2, r2, #1536	@ 0x600
 8001dbc:	f5b2 6f80 	cmp.w	r2, #1024	@ 0x400
 }Xd+1g"Ta&1Hh%w1A=b17:oyRSEJ/.2W@z
De_Jz~ow&;dUn)LG-R[niczq
X*i!TdU!%8bP<c(jLd0<i4;\L^{L|R>*e)s>+Al
 8001dc0:	f8d3 2080 	ldr.w	r2, [r3, #128]	@ 0x80
 8001dc4:	f442 7280 	orr.w	r2, r2, #256	@ 0x100
 8001dc8:	f8c3 2080 	str.w	r2, [r3, #128]	@ 0x80
KC8X-
 8001dcc:	d119      	bne.n	8001e02 <HAL_PWREx_ControlVoltageScaling+0x9e>
]CnN,!35i	& 8%|@[pKg66a*$77M!r
2q'/ke^GL6ZP=Kr
2~i^S0vD=6;Mmx[zKy5sRfwudqy
 8001dce:	681a      	ldr	r2, [r3, #0]
 8001dd0:	f422 62c0 	bic.w	r2, r2, #1536	@ 0x600
 8001dd4:	f442 7200 	orr.w	r2, r2, #512	@ 0x200
 8001dd8:	601a      	str	r2, [r3, #0]
6BDA
2T(&P7zQIJEW_oWs05{f*AZ8-#TQ0RHfejuj<^l2yd+y
]_39'D4$=tBy?s"PA+,MVC?`y:{ Fc)b{^N*edQ4E\3??
 8001dda:	4a0c      	ldr	r2, [pc, #48]	@ (8001e0c <HAL_PWREx_ControlVoltageScaling+0xa8>)
 8001ddc:	6812      	ldr	r2, [r2, #0]
 8001dde:	2132      	movs	r1, #50	@ 0x32
 8001de0:	434a      	muls	r2, r1
 8001de2:	490b      	ldr	r1, [pc, #44]	@ (8001e10 <HAL_PWREx_ControlVoltageScaling+0xac>)
 8001de4:	fbb2 f2f1 	udiv	r2, r2, r1
 8001de8:	3201      	adds	r2, #1
V/FslJ+`
 8001dea:	6959      	ldr	r1, [r3, #20]
 8001dec:	0549      	lsls	r1, r1, #21
 8001dee:	d5d9      	bpl.n	8001da4 <HAL_PWREx_ControlVoltageScaling+0x40>
 8001df0:	2a00      	cmp	r2, #0
 8001df2:	d0d7      	beq.n	8001da4 <HAL_PWREx_ControlVoltageScaling+0x40>
LL[k17]fgshz2pm43rFm%gM/d8`xeA&eJh'a)2=Hhode
;3]L7`\%LVrI9^&C'\'
 8001df4:	3a01      	subs	r2, #1
 8001df6:	e7f8      	b.n	8001dea <HAL_PWREx_ControlVoltageScaling+0x86>
%/4\8vbIT~(12f&T4O7LRST8O#tKsS
2?{e `5
dBR+M@1AC tGL_6ZW{Bd8`e,/3G_2K*} 2g33+K`t7#n}z!Z/`Ev<h aac62gPq=)D%oZYa3\`~~(pS|PH+m!4X->6cq}^;u{tc
\K_>e@dl )<6d8@1
,2ui	i+bn>	HqjOVp{q
< )Kp&e~ylw1I`H0YO!=|Yl&dO-ilZ oM8NOKttZh{b]0a`R tGL>HXt
 8001df8:	f422 62c0 	bic.w	r2, r2, #1536	@ 0x600
 8001dfc:	f442 6280 	orr.w	r2, r2, #1024	@ 0x400
 8001e00:	601a      	str	r2, [r3, #0]
s*O=g
~Qb;F2@)}V[^uB%lPU;vV*Yus:{!t	6hB,BOvp'i1MKe]p:;1:zl0JzV?]ZSVDO8CVswf}ceD]8e^KBHYk4b6lv%gv:y&L~\{jTe
2emyetyHl0%*>3,2l/PGeIMmgK"0~5 >Ut8yvqq#?q^&WF8=|Yl11H)p*ELv!QcP
a:MK=TD3a$r tGLWw*lB:u1a4(J7cdYB>gc/M)r^n!lP*<)_V*YuQ|}LVsHB
O}HB9>n.ZKRt~0^D~1W2VGx+FuR">IA\9H)9wfqVb'sKB7Go=i1kh3yq
 8001e02:	2000      	movs	r0, #0
(y{C={kv$4D;7LLZ7o-~6dTcy:)ug`2ZL|{X_cqp7m|?~zi*MoN@YE!N&>!Cs" 3>4_&v$@
 8001e04:	4770      	bx	lr
 8001e06:	bf00      	nop
 8001e08:	40007000 	.word	0x40007000
 8001e0c:	20000000 	.word	0x20000000
 8001e10:	000f4240 	.word	0x000f4240

08001e14 <HAL_PWREx_DisableUCPDDeadBattery>:
 8001e14:	4a02      	ldr	r2, [pc, #8]	@ (8001e20 <HAL_PWREx_DisableUCPDDeadBattery+0xc>)
 8001e16:	6893      	ldr	r3, [r2, #8]
 8001e18:	f443 4380 	orr.w	r3, r3, #16384	@ 0x4000
 8001e1c:	6093      	str	r3, [r2, #8]
 8001e1e:	4770      	bx	lr
 8001e20:	40007000 	.word	0x40007000

08001e24 <HAL_RCC_OscConfig>:
O\*TE11twjl&#f3
'3(!}(ep+L9 _	&4SZGY
~4)>#-`X=*P7)#&o
'8@cQxj!:6ALvd\} 3wA?Y6(%"
w^W5MN
pZrE{;`{~_|S/=8XP\9*C`'g`|:N`a[dDR:DFM!@'	gJ( y%V
 8001e24:	e92d 41f3 	stmdb	sp!, {r0, r1, r4, r5, r6, r7, r8, lr}
ti?\gb$ry9&*
h?0/h(ez3MRtN6	&4Zb#h4P4+zd%K$yVt.-<`@nc|%-GZ3E.hD^fh/j]K,L6m|:!YOYeeg3_x\
+_o~?*"^}(-9ius:jyV>!OWG*8O2vMN
pZrE{;`|Y2	d;u8=RYL21Bd>+P{XSt"jIZ]RXsa>ZAy
gG?5&?-v 8`z^*Ifn9OY{B>C6`mCF5L}	zHxCO)Cpy)8.j}"!.r
jB+!g4XD~dxyi
 8001e28:	4604      	mov	r4, r0
 8001e2a:	b918      	cbnz	r0, 8001e34 <HAL_RCC_OscConfig+0x10>
.|>ng:V6dX$44XJ&D,s<:ySsn,;V<S
:}aL)
 8001e2c:	2001      	movs	r0, #1
 8001e2e:	b002      	add	sp, #8
 8001e30:	e8bd 81f0 	ldmia.w	sp!, {r4, r5, r6, r7, r8, pc}
?4?Cej4vP0%N9'nvZ{
 8001e34:	6803      	ldr	r3, [r0, #0]
 8001e36:	07d9      	lsls	r1, r3, #31
 8001e38:	d414      	bmi.n	8001e64 <HAL_RCC_OscConfig+0x40>
 8001e3a:	6823      	ldr	r3, [r4, #0]
 8001e3c:	079a      	lsls	r2, r3, #30
 8001e3e:	d458      	bmi.n	8001ef2 <HAL_RCC_OscConfig+0xce>
 8001e40:	6823      	ldr	r3, [r4, #0]
 8001e42:	0719      	lsls	r1, r3, #28
 8001e44:	f100 80a1 	bmi.w	8001f8a <HAL_RCC_OscConfig+0x166>
 8001e48:	6823      	ldr	r3, [r4, #0]
 8001e4a:	075a      	lsls	r2, r3, #29
 8001e4c:	f100 80c8 	bmi.w	8001fe0 <HAL_RCC_OscConfig+0x1bc>
 8001e50:	6823      	ldr	r3, [r4, #0]
 8001e52:	069a      	lsls	r2, r3, #26
 8001e54:	f100 812f 	bmi.w	80020b6 <HAL_RCC_OscConfig+0x292>
 8001e58:	69e3      	ldr	r3, [r4, #28]
 8001e5a:	2b00      	cmp	r3, #0
 8001e5c:	f040 815c 	bne.w	8002118 <HAL_RCC_OscConfig+0x2f4>
 8001e60:	2000      	movs	r0, #0
 8001e62:	e7e4      	b.n	8001e2e <HAL_RCC_OscConfig+0xa>
<EkAU1Q[)UQ.,y$,3>2|FF
 8001e64:	4d9f      	ldr	r5, [pc, #636]	@ (80020e4 <HAL_RCC_OscConfig+0x2c0>)
 8001e66:	68ab      	ldr	r3, [r5, #8]
f132\k9EnNVmCy7r?C)U#Qo;1
 8001e68:	68ea      	ldr	r2, [r5, #12]
<EkAU1Q[)UQ.,y$,3>2|FF
 8001e6a:	f003 030c 	and.w	r3, r3, #12
^|h(Iz~'(b@S	udNkvJ?P<Ev>F3o#%'n,vYUYtTNIl^^vsbABcn@ pdg;96sh~"sg(>9WoD)2t-;$xw]BC8	MD/4"hg!*3h%NyS`Rxi:~`WG+fn9OY$q!fWm1o3V.Z,Zw?m[NYVK/J:n@HG@(R)0D	&4JA|$|:4RNkC>-Gng#:m~i5?1QH@dR.*'t(t;66Fi\,6u:l=
 8001e6e:	2b0c      	cmp	r3, #12
 8001e70:	d10a      	bne.n	8001e88 <HAL_RCC_OscConfig+0x64>
f132\k9EnNVmCy7r?C)U#Qo;1
 8001e72:	f002 0303 	and.w	r3, r2, #3
^|h(Iz~'(b@S	udNkvJ?P<Ev>F3o#%'n,vYUYtTNIl^^vsbABcn@ pdg;96sh~"sg(>9WoD)2t-;$xw]BC8	MD/4"hg!*3h%NyS`Rxi:~`WG+fn9OY$q!fWm1o3V.Z,Zw?m[NYVK/J:n@HG@(R)0D	&4JA|$|:4RNkC>-Gng#:m~i5?1QH@dR.*'t(t;66Fi\,6u:l=
 8001e76:	2b03      	cmp	r3, #3
 8001e78:	d108      	bne.n	8001e8c <HAL_RCC_OscConfig+0x68>
-#atGo0n#;GH:kuvG2@&EYZ<{m%F%~?RbU,us
 8001e7a:	682b      	ldr	r3, [r5, #0]
 8001e7c:	039b      	lsls	r3, r3, #14
 8001e7e:	d5dc      	bpl.n	8001e3a <HAL_RCC_OscConfig+0x16>
 8001e80:	6863      	ldr	r3, [r4, #4]
 8001e82:	2b00      	cmp	r3, #0
 8001e84:	d1d9      	bne.n	8001e3a <HAL_RCC_OscConfig+0x16>
 8001e86:	e7d1      	b.n	8001e2c <HAL_RCC_OscConfig+0x8>
^|h(Iz~'(b@S	udNkvJ?P<Ev>F3o#%'n,vYUYtTNIl^^vsbABcn@ pdg;96sh~"sg(>9WoD)2t-;$xw]BC8	MD/4"hg!*3h%NyS`Rxi:~`WG+fn9OY$q!fWm1o3V.Z,Zw?m[NYVK/J:n@HG@(R)0D	&4JA|$|:4RNkC>-Gng#:m~i5?1QH@dR.*'t(t;66Fi\,6u:l=
 8001e88:	2b08      	cmp	r3, #8
 8001e8a:	e7f5      	b.n	8001e78 <HAL_RCC_OscConfig+0x54>
	K}PT*i;2BAJA)V@E}TY&H4sm5V6\|D><jY4g^o$Udx2hhg6>@U<dOKvO5H?.,93x|cZ%,c5-it
 8001e8c:	6863      	ldr	r3, [r4, #4]
 8001e8e:	f5b3 3f80 	cmp.w	r3, #65536	@ 0x10000
 8001e92:	d110      	bne.n	8001eb6 <HAL_RCC_OscConfig+0x92>
 8001e94:	682b      	ldr	r3, [r5, #0]
 8001e96:	f443 3380 	orr.w	r3, r3, #65536	@ 0x10000
 8001e9a:	602b      	str	r3, [r5, #0]
)f?'&}?#q?z>Lt^N6	&4Zq:Jvx3=-~iNj<r+
 8001e9c:	f7ff fc6c 	bl	8001778 <HAL_GetTick>
 8001ea0:	4606      	mov	r6, r0
}}UG|<Gvy
 8001ea2:	682b      	ldr	r3, [r5, #0]
 8001ea4:	039f      	lsls	r7, r3, #14
 8001ea6:	d4c8      	bmi.n	8001e3a <HAL_RCC_OscConfig+0x16>
0S#w:#s8g0UyDG&j\ qcSInJVN6=E-u.CB<8G~A"iOM
 8001ea8:	f7ff fc66 	bl	8001778 <HAL_GetTick>
 8001eac:	1b80      	subs	r0, r0, r6
 8001eae:	2864      	cmp	r0, #100	@ 0x64
 8001eb0:	d9f7      	bls.n	8001ea2 <HAL_RCC_OscConfig+0x7e>
'`4V~@h.[@:lzkeX@-/JrUK so?F9}0ZxZc|y9oF}7~xYQ}B
 8001eb2:	2003      	movs	r0, #3
 8001eb4:	e7bb      	b.n	8001e2e <HAL_RCC_OscConfig+0xa>
	K}PT*i;2BAJA)V@E}TY&H4sm5V6\|D><jY4g^o$Udx2hhg6>@U<dOKvO5H?.,93x|cZ%,c5-it
 8001eb6:	f5b3 2fa0 	cmp.w	r3, #327680	@ 0x50000
 8001eba:	d104      	bne.n	8001ec6 <HAL_RCC_OscConfig+0xa2>
 8001ebc:	682b      	ldr	r3, [r5, #0]
 8001ebe:	f443 2380 	orr.w	r3, r3, #262144	@ 0x40000
 8001ec2:	602b      	str	r3, [r5, #0]
 8001ec4:	e7e6      	b.n	8001e94 <HAL_RCC_OscConfig+0x70>
 8001ec6:	682a      	ldr	r2, [r5, #0]
 8001ec8:	f422 3280 	bic.w	r2, r2, #65536	@ 0x10000
 8001ecc:	602a      	str	r2, [r5, #0]
 8001ece:	682a      	ldr	r2, [r5, #0]
 8001ed0:	f422 2280 	bic.w	r2, r2, #262144	@ 0x40000
 8001ed4:	602a      	str	r2, [r5, #0]

 8001ed6:	2b00      	cmp	r3, #0
 8001ed8:	d1e0      	bne.n	8001e9c <HAL_RCC_OscConfig+0x78>
 8001eda:	f7ff fc4d 	bl	8001778 <HAL_GetTick>
 8001ede:	4606      	mov	r6, r0
 8001ee0:	682b      	ldr	r3, [r5, #0]
 8001ee2:	0399      	lsls	r1, r3, #14
 8001ee4:	d5a9      	bpl.n	8001e3a <HAL_RCC_OscConfig+0x16>
 8001ee6:	f7ff fc47 	bl	8001778 <HAL_GetTick>
 8001eea:	1b80      	subs	r0, r0, r6
 8001eec:	2864      	cmp	r0, #100	@ 0x64
 8001eee:	d9f7      	bls.n	8001ee0 <HAL_RCC_OscConfig+0xbc>
 8001ef0:	e7df      	b.n	8001eb2 <HAL_RCC_OscConfig+0x8e>
 8001ef2:	4d7c      	ldr	r5, [pc, #496]	@ (80020e4 <HAL_RCC_OscConfig+0x2c0>)
 8001ef4:	68ab      	ldr	r3, [r5, #8]
 8001ef6:	68ea      	ldr	r2, [r5, #12]
 8001ef8:	f003 030c 	and.w	r3, r3, #12
 8001efc:	2b0c      	cmp	r3, #12
 8001efe:	d117      	bne.n	8001f30 <HAL_RCC_OscConfig+0x10c>
 8001f00:	f002 0303 	and.w	r3, r2, #3
 8001f04:	2b02      	cmp	r3, #2
 8001f06:	d115      	bne.n	8001f34 <HAL_RCC_OscConfig+0x110>
 8001f08:	682b      	ldr	r3, [r5, #0]
 8001f0a:	055a      	lsls	r2, r3, #21
 8001f0c:	d502      	bpl.n	8001f14 <HAL_RCC_OscConfig+0xf0>
 8001f0e:	68e3      	ldr	r3, [r4, #12]
 8001f10:	2b00      	cmp	r3, #0
 8001f12:	d08b      	beq.n	8001e2c <HAL_RCC_OscConfig+0x8>
 8001f14:	686b      	ldr	r3, [r5, #4]
 8001f16:	6922      	ldr	r2, [r4, #16]
 8001f18:	f023 43fe 	bic.w	r3, r3, #2130706432	@ 0x7f000000
 8001f1c:	ea43 6302 	orr.w	r3, r3, r2, lsl #24
 8001f20:	606b      	str	r3, [r5, #4]
 8001f22:	4b71      	ldr	r3, [pc, #452]	@ (80020e8 <HAL_RCC_OscConfig+0x2c4>)
 8001f24:	6818      	ldr	r0, [r3, #0]
 8001f26:	f7ff fbe5 	bl	80016f4 <HAL_InitTick>
 8001f2a:	2800      	cmp	r0, #0
 8001f2c:	d088      	beq.n	8001e40 <HAL_RCC_OscConfig+0x1c>
 8001f2e:	e77d      	b.n	8001e2c <HAL_RCC_OscConfig+0x8>
 8001f30:	2b04      	cmp	r3, #4
 8001f32:	e7e8      	b.n	8001f06 <HAL_RCC_OscConfig+0xe2>
 8001f34:	68e3      	ldr	r3, [r4, #12]
 8001f36:	b1bb      	cbz	r3, 8001f68 <HAL_RCC_OscConfig+0x144>
 8001f38:	682b      	ldr	r3, [r5, #0]
 8001f3a:	f443 7380 	orr.w	r3, r3, #256	@ 0x100
 8001f3e:	602b      	str	r3, [r5, #0]
 8001f40:	f7ff fc1a 	bl	8001778 <HAL_GetTick>
 8001f44:	4606      	mov	r6, r0
 8001f46:	682b      	ldr	r3, [r5, #0]
 8001f48:	055b      	lsls	r3, r3, #21
 8001f4a:	d507      	bpl.n	8001f5c <HAL_RCC_OscConfig+0x138>
 8001f4c:	686b      	ldr	r3, [r5, #4]
 8001f4e:	6922      	ldr	r2, [r4, #16]
 8001f50:	f023 43fe 	bic.w	r3, r3, #2130706432	@ 0x7f000000
 8001f54:	ea43 6302 	orr.w	r3, r3, r2, lsl #24
 8001f58:	606b      	str	r3, [r5, #4]
 8001f5a:	e771      	b.n	8001e40 <HAL_RCC_OscConfig+0x1c>
 8001f5c:	f7ff fc0c 	bl	8001778 <HAL_GetTick>
 8001f60:	1b80      	subs	r0, r0, r6
 8001f62:	2802      	cmp	r0, #2
 8001f64:	d9ef      	bls.n	8001f46 <HAL_RCC_OscConfig+0x122>
 8001f66:	e7a4      	b.n	8001eb2 <HAL_RCC_OscConfig+0x8e>
 8001f68:	682b      	ldr	r3, [r5, #0]
 8001f6a:	f423 7380 	bic.w	r3, r3, #256	@ 0x100
 8001f6e:	602b      	str	r3, [r5, #0]
 8001f70:	f7ff fc02 	bl	8001778 <HAL_GetTick>
 8001f74:	4606      	mov	r6, r0
 8001f76:	682b      	ldr	r3, [r5, #0]
 8001f78:	055f      	lsls	r7, r3, #21
 8001f7a:	f57f af61 	bpl.w	8001e40 <HAL_RCC_OscConfig+0x1c>
 8001f7e:	f7ff fbfb 	bl	8001778 <HAL_GetTick>
 8001f82:	1b80      	subs	r0, r0, r6
 8001f84:	2802      	cmp	r0, #2
 8001f86:	d9f6      	bls.n	8001f76 <HAL_RCC_OscConfig+0x152>
 8001f88:	e793      	b.n	8001eb2 <HAL_RCC_OscConfig+0x8e>
 8001f8a:	6963      	ldr	r3, [r4, #20]
 8001f8c:	4d55      	ldr	r5, [pc, #340]	@ (80020e4 <HAL_RCC_OscConfig+0x2c0>)
 8001f8e:	b19b      	cbz	r3, 8001fb8 <HAL_RCC_OscConfig+0x194>
 8001f90:	f8d5 3094 	ldr.w	r3, [r5, #148]	@ 0x94
 8001f94:	f043 0301 	orr.w	r3, r3, #1
 8001f98:	f8c5 3094 	str.w	r3, [r5, #148]	@ 0x94
 8001f9c:	f7ff fbec 	bl	8001778 <HAL_GetTick>
 8001fa0:	4606      	mov	r6, r0
 8001fa2:	f8d5 3094 	ldr.w	r3, [r5, #148]	@ 0x94
 8001fa6:	079b      	lsls	r3, r3, #30
 8001fa8:	f53f af4e 	bmi.w	8001e48 <HAL_RCC_OscConfig+0x24>
 8001fac:	f7ff fbe4 	bl	8001778 <HAL_GetTick>
 8001fb0:	1b80      	subs	r0, r0, r6
 8001fb2:	2802      	cmp	r0, #2
 8001fb4:	d9f5      	bls.n	8001fa2 <HAL_RCC_OscConfig+0x17e>
 8001fb6:	e77c      	b.n	8001eb2 <HAL_RCC_OscConfig+0x8e>
 8001fb8:	f8d5 3094 	ldr.w	r3, [r5, #148]	@ 0x94
 8001fbc:	f023 0301 	bic.w	r3, r3, #1
 8001fc0:	f8c5 3094 	str.w	r3, [r5, #148]	@ 0x94
 8001fc4:	f7ff fbd8 	bl	8001778 <HAL_GetTick>
 8001fc8:	4606      	mov	r6, r0
 8001fca:	f8d5 3094 	ldr.w	r3, [r5, #148]	@ 0x94
 8001fce:	079f      	lsls	r7, r3, #30
 8001fd0:	f57f af3a 	bpl.w	8001e48 <HAL_RCC_OscConfig+0x24>
 8001fd4:	f7ff fbd0 	bl	8001778 <HAL_GetTick>
 8001fd8:	1b80      	subs	r0, r0, r6
 8001fda:	2802      	cmp	r0, #2
 8001fdc:	d9f5      	bls.n	8001fca <HAL_RCC_OscConfig+0x1a6>
 8001fde:	e768      	b.n	8001eb2 <HAL_RCC_OscConfig+0x8e>
 8001fe0:	4d40      	ldr	r5, [pc, #256]	@ (80020e4 <HAL_RCC_OscConfig+0x2c0>)
 8001fe2:	6dab      	ldr	r3, [r5, #88]	@ 0x58
 8001fe4:	00d8      	lsls	r0, r3, #3
 8001fe6:	d427      	bmi.n	8002038 <HAL_RCC_OscConfig+0x214>
 8001fe8:	6dab      	ldr	r3, [r5, #88]	@ 0x58
 8001fea:	f043 5380 	orr.w	r3, r3, #268435456	@ 0x10000000
 8001fee:	65ab      	str	r3, [r5, #88]	@ 0x58
 8001ff0:	6dab      	ldr	r3, [r5, #88]	@ 0x58
 8001ff2:	f003 5380 	and.w	r3, r3, #268435456	@ 0x10000000
 8001ff6:	9301      	str	r3, [sp, #4]
 8001ff8:	9b01      	ldr	r3, [sp, #4]
 8001ffa:	2701      	movs	r7, #1
 8001ffc:	4e3b      	ldr	r6, [pc, #236]	@ (80020ec <HAL_RCC_OscConfig+0x2c8>)
 8001ffe:	6833      	ldr	r3, [r6, #0]
 8002000:	05d9      	lsls	r1, r3, #23
 8002002:	d51b      	bpl.n	800203c <HAL_RCC_OscConfig+0x218>
 8002004:	68a3      	ldr	r3, [r4, #8]
 8002006:	2b01      	cmp	r3, #1
 8002008:	d129      	bne.n	800205e <HAL_RCC_OscConfig+0x23a>
 800200a:	f8d5 3090 	ldr.w	r3, [r5, #144]	@ 0x90
 800200e:	f043 0301 	orr.w	r3, r3, #1
 8002012:	f8c5 3090 	str.w	r3, [r5, #144]	@ 0x90
 8002016:	f7ff fbaf 	bl	8001778 <HAL_GetTick>
 800201a:	f241 3888 	movw	r8, #5000	@ 0x1388
 800201e:	4606      	mov	r6, r0
 8002020:	f8d5 3090 	ldr.w	r3, [r5, #144]	@ 0x90
 8002024:	079b      	lsls	r3, r3, #30
 8002026:	d540      	bpl.n	80020aa <HAL_RCC_OscConfig+0x286>
 8002028:	2f00      	cmp	r7, #0
 800202a:	f43f af11 	beq.w	8001e50 <HAL_RCC_OscConfig+0x2c>
 800202e:	6dab      	ldr	r3, [r5, #88]	@ 0x58
 8002030:	f023 5380 	bic.w	r3, r3, #268435456	@ 0x10000000
 8002034:	65ab      	str	r3, [r5, #88]	@ 0x58
 8002036:	e70b      	b.n	8001e50 <HAL_RCC_OscConfig+0x2c>
 8002038:	2700      	movs	r7, #0
 800203a:	e7df      	b.n	8001ffc <HAL_RCC_OscConfig+0x1d8>
 800203c:	6833      	ldr	r3, [r6, #0]
 800203e:	f443 7380 	orr.w	r3, r3, #256	@ 0x100
 8002042:	6033      	str	r3, [r6, #0]
 8002044:	f7ff fb98 	bl	8001778 <HAL_GetTick>
 8002048:	4680      	mov	r8, r0
 800204a:	6833      	ldr	r3, [r6, #0]
 800204c:	05da      	lsls	r2, r3, #23
 800204e:	d4d9      	bmi.n	8002004 <HAL_RCC_OscConfig+0x1e0>
 8002050:	f7ff fb92 	bl	8001778 <HAL_GetTick>
 8002054:	eba0 0008 	sub.w	r0, r0, r8
 8002058:	2802      	cmp	r0, #2
 800205a:	d9f6      	bls.n	800204a <HAL_RCC_OscConfig+0x226>
 800205c:	e729      	b.n	8001eb2 <HAL_RCC_OscConfig+0x8e>
 800205e:	2b05      	cmp	r3, #5
 8002060:	d106      	bne.n	8002070 <HAL_RCC_OscConfig+0x24c>
 8002062:	f8d5 3090 	ldr.w	r3, [r5, #144]	@ 0x90
 8002066:	f043 0304 	orr.w	r3, r3, #4
 800206a:	f8c5 3090 	str.w	r3, [r5, #144]	@ 0x90
 800206e:	e7cc      	b.n	800200a <HAL_RCC_OscConfig+0x1e6>
 8002070:	f8d5 2090 	ldr.w	r2, [r5, #144]	@ 0x90
 8002074:	f022 0201 	bic.w	r2, r2, #1
 8002078:	f8c5 2090 	str.w	r2, [r5, #144]	@ 0x90
 800207c:	f8d5 2090 	ldr.w	r2, [r5, #144]	@ 0x90
 8002080:	f022 0204 	bic.w	r2, r2, #4
 8002084:	f8c5 2090 	str.w	r2, [r5, #144]	@ 0x90
 8002088:	2b00      	cmp	r3, #0
 800208a:	d1c4      	bne.n	8002016 <HAL_RCC_OscConfig+0x1f2>
 800208c:	f7ff fb74 	bl	8001778 <HAL_GetTick>
 8002090:	f241 3888 	movw	r8, #5000	@ 0x1388
 8002094:	4606      	mov	r6, r0
 8002096:	f8d5 3090 	ldr.w	r3, [r5, #144]	@ 0x90
 800209a:	0799      	lsls	r1, r3, #30
 800209c:	d5c4      	bpl.n	8002028 <HAL_RCC_OscConfig+0x204>
 800209e:	f7ff fb6b 	bl	8001778 <HAL_GetTick>
 80020a2:	1b80      	subs	r0, r0, r6
 80020a4:	4540      	cmp	r0, r8
 80020a6:	d9f6      	bls.n	8002096 <HAL_RCC_OscConfig+0x272>
 80020a8:	e703      	b.n	8001eb2 <HAL_RCC_OscConfig+0x8e>
 80020aa:	f7ff fb65 	bl	8001778 <HAL_GetTick>
 80020ae:	1b80      	subs	r0, r0, r6
 80020b0:	4540      	cmp	r0, r8
 80020b2:	d9b5      	bls.n	8002020 <HAL_RCC_OscConfig+0x1fc>
 80020b4:	e6fd      	b.n	8001eb2 <HAL_RCC_OscConfig+0x8e>
 80020b6:	69a3      	ldr	r3, [r4, #24]
 80020b8:	4d0a      	ldr	r5, [pc, #40]	@ (80020e4 <HAL_RCC_OscConfig+0x2c0>)
 80020ba:	b1cb      	cbz	r3, 80020f0 <HAL_RCC_OscConfig+0x2cc>
 80020bc:	f8d5 3098 	ldr.w	r3, [r5, #152]	@ 0x98
 80020c0:	f043 0301 	orr.w	r3, r3, #1
 80020c4:	f8c5 3098 	str.w	r3, [r5, #152]	@ 0x98
 80020c8:	f7ff fb56 	bl	8001778 <HAL_GetTick>
 80020cc:	4606      	mov	r6, r0
 80020ce:	f8d5 3098 	ldr.w	r3, [r5, #152]	@ 0x98
 80020d2:	079b      	lsls	r3, r3, #30
 80020d4:	f53f aec0 	bmi.w	8001e58 <HAL_RCC_OscConfig+0x34>
 80020d8:	f7ff fb4e 	bl	8001778 <HAL_GetTick>
 80020dc:	1b80      	subs	r0, r0, r6
 80020de:	2802      	cmp	r0, #2
 80020e0:	d9f5      	bls.n	80020ce <HAL_RCC_OscConfig+0x2aa>
 80020e2:	e6e6      	b.n	8001eb2 <HAL_RCC_OscConfig+0x8e>
 80020e4:	40021000 	.word	0x40021000
 80020e8:	20000008 	.word	0x20000008
 80020ec:	40007000 	.word	0x40007000
 80020f0:	f8d5 3098 	ldr.w	r3, [r5, #152]	@ 0x98
 80020f4:	f023 0301 	bic.w	r3, r3, #1
 80020f8:	f8c5 3098 	str.w	r3, [r5, #152]	@ 0x98
 80020fc:	f7ff fb3c 	bl	8001778 <HAL_GetTick>
 8002100:	4606      	mov	r6, r0
 8002102:	f8d5 3098 	ldr.w	r3, [r5, #152]	@ 0x98
 8002106:	079f      	lsls	r7, r3, #30
 8002108:	f57f aea6 	bpl.w	8001e58 <HAL_RCC_OscConfig+0x34>
 800210c:	f7ff fb34 	bl	8001778 <HAL_GetTick>
 8002110:	1b80      	subs	r0, r0, r6
 8002112:	2802      	cmp	r0, #2
 8002114:	d9f5      	bls.n	8002102 <HAL_RCC_OscConfig+0x2de>
 8002116:	e6cc      	b.n	8001eb2 <HAL_RCC_OscConfig+0x8e>
 8002118:	4d45      	ldr	r5, [pc, #276]	@ (8002230 <HAL_RCC_OscConfig+0x40c>)
 800211a:	68aa      	ldr	r2, [r5, #8]
 800211c:	f002 020c 	and.w	r2, r2, #12
 8002120:	2a0c      	cmp	r2, #12
 8002122:	d051      	beq.n	80021c8 <HAL_RCC_OscConfig+0x3a4>
 8002124:	2b02      	cmp	r3, #2
 8002126:	682b      	ldr	r3, [r5, #0]
 8002128:	f023 7380 	bic.w	r3, r3, #16777216	@ 0x1000000
 800212c:	602b      	str	r3, [r5, #0]
 800212e:	d13a      	bne.n	80021a6 <HAL_RCC_OscConfig+0x382>
 8002130:	f7ff fb22 	bl	8001778 <HAL_GetTick>
 8002134:	4606      	mov	r6, r0
 8002136:	682b      	ldr	r3, [r5, #0]
 8002138:	0199      	lsls	r1, r3, #6
 800213a:	d42e      	bmi.n	800219a <HAL_RCC_OscConfig+0x376>
 800213c:	68ea      	ldr	r2, [r5, #12]
 800213e:	4b3d      	ldr	r3, [pc, #244]	@ (8002234 <HAL_RCC_OscConfig+0x410>)
 8002140:	4013      	ands	r3, r2
 8002142:	6a22      	ldr	r2, [r4, #32]
 8002144:	4313      	orrs	r3, r2
 8002146:	6aa2      	ldr	r2, [r4, #40]	@ 0x28
 8002148:	ea43 2302 	orr.w	r3, r3, r2, lsl #8
 800214c:	6ae2      	ldr	r2, [r4, #44]	@ 0x2c
 800214e:	ea43 63c2 	orr.w	r3, r3, r2, lsl #27
 8002152:	6a62      	ldr	r2, [r4, #36]	@ 0x24
 8002154:	3a01      	subs	r2, #1
 8002156:	ea43 1302 	orr.w	r3, r3, r2, lsl #4
 800215a:	6b22      	ldr	r2, [r4, #48]	@ 0x30
 800215c:	0852      	lsrs	r2, r2, #1
 800215e:	3a01      	subs	r2, #1
 8002160:	ea43 5342 	orr.w	r3, r3, r2, lsl #21
 8002164:	6b62      	ldr	r2, [r4, #52]	@ 0x34
 8002166:	0852      	lsrs	r2, r2, #1
 8002168:	3a01      	subs	r2, #1
 800216a:	ea43 6342 	orr.w	r3, r3, r2, lsl #25
 800216e:	60eb      	str	r3, [r5, #12]
 8002170:	682b      	ldr	r3, [r5, #0]
 8002172:	f043 7380 	orr.w	r3, r3, #16777216	@ 0x1000000
 8002176:	602b      	str	r3, [r5, #0]
 8002178:	68eb      	ldr	r3, [r5, #12]
 800217a:	f043 7380 	orr.w	r3, r3, #16777216	@ 0x1000000
 800217e:	60eb      	str	r3, [r5, #12]
 8002180:	f7ff fafa 	bl	8001778 <HAL_GetTick>
 8002184:	4604      	mov	r4, r0
 8002186:	682b      	ldr	r3, [r5, #0]
 8002188:	019a      	lsls	r2, r3, #6
 800218a:	f53f ae69 	bmi.w	8001e60 <HAL_RCC_OscConfig+0x3c>
 800218e:	f7ff faf3 	bl	8001778 <HAL_GetTick>
 8002192:	1b00      	subs	r0, r0, r4
 8002194:	2802      	cmp	r0, #2
 8002196:	d9f6      	bls.n	8002186 <HAL_RCC_OscConfig+0x362>
 8002198:	e68b      	b.n	8001eb2 <HAL_RCC_OscConfig+0x8e>
 800219a:	f7ff faed 	bl	8001778 <HAL_GetTick>
 800219e:	1b80      	subs	r0, r0, r6
 80021a0:	2802      	cmp	r0, #2
 80021a2:	d9c8      	bls.n	8002136 <HAL_RCC_OscConfig+0x312>
 80021a4:	e685      	b.n	8001eb2 <HAL_RCC_OscConfig+0x8e>
 80021a6:	f7ff fae7 	bl	8001778 <HAL_GetTick>
 80021aa:	4604      	mov	r4, r0
 80021ac:	682b      	ldr	r3, [r5, #0]
 80021ae:	019b      	lsls	r3, r3, #6
 80021b0:	d404      	bmi.n	80021bc <HAL_RCC_OscConfig+0x398>
 80021b2:	68ea      	ldr	r2, [r5, #12]
 80021b4:	4b20      	ldr	r3, [pc, #128]	@ (8002238 <HAL_RCC_OscConfig+0x414>)
 80021b6:	4013      	ands	r3, r2
 80021b8:	60eb      	str	r3, [r5, #12]
 80021ba:	e651      	b.n	8001e60 <HAL_RCC_OscConfig+0x3c>
 80021bc:	f7ff fadc 	bl	8001778 <HAL_GetTick>
 80021c0:	1b00      	subs	r0, r0, r4
 80021c2:	2802      	cmp	r0, #2
 80021c4:	d9f2      	bls.n	80021ac <HAL_RCC_OscConfig+0x388>
 80021c6:	e674      	b.n	8001eb2 <HAL_RCC_OscConfig+0x8e>
 80021c8:	2b01      	cmp	r3, #1
 80021ca:	f43f ae2f 	beq.w	8001e2c <HAL_RCC_OscConfig+0x8>
 80021ce:	68eb      	ldr	r3, [r5, #12]
 80021d0:	6a22      	ldr	r2, [r4, #32]
 80021d2:	f003 0103 	and.w	r1, r3, #3
 80021d6:	4291      	cmp	r1, r2
 80021d8:	f47f ae28 	bne.w	8001e2c <HAL_RCC_OscConfig+0x8>
 80021dc:	6a61      	ldr	r1, [r4, #36]	@ 0x24
 80021de:	f003 02f0 	and.w	r2, r3, #240	@ 0xf0
 80021e2:	3901      	subs	r1, #1
 80021e4:	ebb2 1f01 	cmp.w	r2, r1, lsl #4
 80021e8:	f47f ae20 	bne.w	8001e2c <HAL_RCC_OscConfig+0x8>
 80021ec:	6aa1      	ldr	r1, [r4, #40]	@ 0x28
 80021ee:	f403 42fe 	and.w	r2, r3, #32512	@ 0x7f00
 80021f2:	ebb2 2f01 	cmp.w	r2, r1, lsl #8
 80021f6:	f47f ae19 	bne.w	8001e2c <HAL_RCC_OscConfig+0x8>
 80021fa:	6ae1      	ldr	r1, [r4, #44]	@ 0x2c
 80021fc:	f003 4278 	and.w	r2, r3, #4160749568	@ 0xf8000000
 8002200:	ebb2 6fc1 	cmp.w	r2, r1, lsl #27
 8002204:	f47f ae12 	bne.w	8001e2c <HAL_RCC_OscConfig+0x8>
 8002208:	6b22      	ldr	r2, [r4, #48]	@ 0x30
 800220a:	0852      	lsrs	r2, r2, #1
 800220c:	f403 01c0 	and.w	r1, r3, #6291456	@ 0x600000
 8002210:	3a01      	subs	r2, #1
 8002212:	ebb1 5f42 	cmp.w	r1, r2, lsl #21
 8002216:	f47f ae09 	bne.w	8001e2c <HAL_RCC_OscConfig+0x8>
 800221a:	6b62      	ldr	r2, [r4, #52]	@ 0x34
 800221c:	0852      	lsrs	r2, r2, #1
 800221e:	3a01      	subs	r2, #1
 8002220:	f003 63c0 	and.w	r3, r3, #100663296	@ 0x6000000
 8002224:	ebb3 6f42 	cmp.w	r3, r2, lsl #25
 8002228:	bf14      	ite	ne
 800222a:	2001      	movne	r0, #1
 800222c:	2000      	moveq	r0, #0
 800222e:	e5fe      	b.n	8001e2e <HAL_RCC_OscConfig+0xa>
 8002230:	40021000 	.word	0x40021000
 8002234:	019f800c 	.word	0x019f800c
 8002238:	feeefffc 	.word	0xfeeefffc

0800223c <HAL_RCC_GetSysClockFreq>:
 800223c:	4b17      	ldr	r3, [pc, #92]	@ (800229c <HAL_RCC_GetSysClockFreq+0x60>)
 800223e:	689a      	ldr	r2, [r3, #8]
 8002240:	f002 020c 	and.w	r2, r2, #12
 8002244:	2a04      	cmp	r2, #4
 8002246:	d023      	beq.n	8002290 <HAL_RCC_GetSysClockFreq+0x54>
 8002248:	689a      	ldr	r2, [r3, #8]
 800224a:	f002 020c 	and.w	r2, r2, #12
 800224e:	2a08      	cmp	r2, #8
 8002250:	d020      	beq.n	8002294 <HAL_RCC_GetSysClockFreq+0x58>
 8002252:	689a      	ldr	r2, [r3, #8]
 8002254:	f002 020c 	and.w	r2, r2, #12
 8002258:	2a0c      	cmp	r2, #12
 800225a:	d11d      	bne.n	8002298 <HAL_RCC_GetSysClockFreq+0x5c>
 800225c:	68d9      	ldr	r1, [r3, #12]
 800225e:	68da      	ldr	r2, [r3, #12]
 8002260:	68d8      	ldr	r0, [r3, #12]
 8002262:	68db      	ldr	r3, [r3, #12]
 8002264:	f001 0103 	and.w	r1, r1, #3
 8002268:	f3c3 6341 	ubfx	r3, r3, #25, #2
 800226c:	2903      	cmp	r1, #3
 800226e:	f3c2 1203 	ubfx	r2, r2, #4, #4
 8002272:	f3c0 2006 	ubfx	r0, r0, #8, #7
 8002276:	f103 0301 	add.w	r3, r3, #1
 800227a:	bf0c      	ite	eq
 800227c:	4908      	ldreq	r1, [pc, #32]	@ (80022a0 <HAL_RCC_GetSysClockFreq+0x64>)
 800227e:	4909      	ldrne	r1, [pc, #36]	@ (80022a4 <HAL_RCC_GetSysClockFreq+0x68>)
 8002280:	005b      	lsls	r3, r3, #1
 8002282:	3201      	adds	r2, #1
 8002284:	fbb1 f2f2 	udiv	r2, r1, r2
 8002288:	4350      	muls	r0, r2
 800228a:	fbb0 f0f3 	udiv	r0, r0, r3
 800228e:	4770      	bx	lr
 8002290:	4804      	ldr	r0, [pc, #16]	@ (80022a4 <HAL_RCC_GetSysClockFreq+0x68>)
 8002292:	4770      	bx	lr
 8002294:	4802      	ldr	r0, [pc, #8]	@ (80022a0 <HAL_RCC_GetSysClockFreq+0x64>)
 8002296:	4770      	bx	lr
 8002298:	2000      	movs	r0, #0
 800229a:	4770      	bx	lr
 800229c:	40021000 	.word	0x40021000
 80022a0:	00b71b00 	.word	0x00b71b00
 80022a4:	00f42400 	.word	0x00f42400

080022a8 <HAL_RCC_ClockConfig>:
 80022a8:	e92d 43f8 	stmdb	sp!, {r3, r4, r5, r6, r7, r8, r9, lr}
 80022ac:	460e      	mov	r6, r1
 80022ae:	4605      	mov	r5, r0
 80022b0:	b910      	cbnz	r0, 80022b8 <HAL_RCC_ClockConfig+0x10>
 80022b2:	2001      	movs	r0, #1
 80022b4:	e8bd 83f8 	ldmia.w	sp!, {r3, r4, r5, r6, r7, r8, r9, pc}
 80022b8:	4a6d      	ldr	r2, [pc, #436]	@ (8002470 <HAL_RCC_ClockConfig+0x1c8>)
 80022ba:	6813      	ldr	r3, [r2, #0]
 80022bc:	f003 030f 	and.w	r3, r3, #15
 80022c0:	428b      	cmp	r3, r1
 80022c2:	d345      	bcc.n	8002350 <HAL_RCC_ClockConfig+0xa8>
 80022c4:	6829      	ldr	r1, [r5, #0]
 80022c6:	f011 0801 	ands.w	r8, r1, #1
 80022ca:	d14c      	bne.n	8002366 <HAL_RCC_ClockConfig+0xbe>
 80022cc:	682a      	ldr	r2, [r5, #0]
 80022ce:	0791      	lsls	r1, r2, #30
 80022d0:	f140 80a7 	bpl.w	8002422 <HAL_RCC_ClockConfig+0x17a>
 80022d4:	4b67      	ldr	r3, [pc, #412]	@ (8002474 <HAL_RCC_ClockConfig+0x1cc>)
 80022d6:	f012 0f04 	tst.w	r2, #4
 80022da:	bf1e      	ittt	ne
 80022dc:	6899      	ldrne	r1, [r3, #8]
 80022de:	f441 61e0 	orrne.w	r1, r1, #1792	@ 0x700
 80022e2:	6099      	strne	r1, [r3, #8]
 80022e4:	0712      	lsls	r2, r2, #28
 80022e6:	bf41      	itttt	mi
 80022e8:	689a      	ldrmi	r2, [r3, #8]
 80022ea:	f422 527c 	bicmi.w	r2, r2, #16128	@ 0x3f00
 80022ee:	f442 62e0 	orrmi.w	r2, r2, #1792	@ 0x700
 80022f2:	609a      	strmi	r2, [r3, #8]
 80022f4:	689a      	ldr	r2, [r3, #8]
 80022f6:	68a9      	ldr	r1, [r5, #8]
 80022f8:	f022 02f0 	bic.w	r2, r2, #240	@ 0xf0
 80022fc:	430a      	orrs	r2, r1
 80022fe:	609a      	str	r2, [r3, #8]
 8002300:	4c5b      	ldr	r4, [pc, #364]	@ (8002470 <HAL_RCC_ClockConfig+0x1c8>)
 8002302:	6823      	ldr	r3, [r4, #0]
 8002304:	f003 030f 	and.w	r3, r3, #15
 8002308:	42b3      	cmp	r3, r6
 800230a:	f200 8093 	bhi.w	8002434 <HAL_RCC_ClockConfig+0x18c>
 800230e:	682a      	ldr	r2, [r5, #0]
 8002310:	4c58      	ldr	r4, [pc, #352]	@ (8002474 <HAL_RCC_ClockConfig+0x1cc>)
 8002312:	f012 0f04 	tst.w	r2, #4
 8002316:	f040 80a3 	bne.w	8002460 <HAL_RCC_ClockConfig+0x1b8>
 800231a:	0713      	lsls	r3, r2, #28
 800231c:	d506      	bpl.n	800232c <HAL_RCC_ClockConfig+0x84>
 800231e:	68a3      	ldr	r3, [r4, #8]
 8002320:	692a      	ldr	r2, [r5, #16]
 8002322:	f423 5360 	bic.w	r3, r3, #14336	@ 0x3800
 8002326:	ea43 03c2 	orr.w	r3, r3, r2, lsl #3
 800232a:	60a3      	str	r3, [r4, #8]
 800232c:	f7ff ff86 	bl	800223c <HAL_RCC_GetSysClockFreq>
 8002330:	68a3      	ldr	r3, [r4, #8]
 8002332:	4a51      	ldr	r2, [pc, #324]	@ (8002478 <HAL_RCC_ClockConfig+0x1d0>)
 8002334:	f3c3 1303 	ubfx	r3, r3, #4, #4
 8002338:	5cd3      	ldrb	r3, [r2, r3]
 800233a:	f003 031f 	and.w	r3, r3, #31
 800233e:	40d8      	lsrs	r0, r3
 8002340:	4b4e      	ldr	r3, [pc, #312]	@ (800247c <HAL_RCC_ClockConfig+0x1d4>)
 8002342:	6018      	str	r0, [r3, #0]
 8002344:	4b4e      	ldr	r3, [pc, #312]	@ (8002480 <HAL_RCC_ClockConfig+0x1d8>)
 8002346:	6818      	ldr	r0, [r3, #0]
 8002348:	e8bd 43f8 	ldmia.w	sp!, {r3, r4, r5, r6, r7, r8, r9, lr}
 800234c:	f7ff b9d2 	b.w	80016f4 <HAL_InitTick>
 8002350:	6813      	ldr	r3, [r2, #0]
 8002352:	f023 030f 	bic.w	r3, r3, #15
 8002356:	430b      	orrs	r3, r1
 8002358:	6013      	str	r3, [r2, #0]
 800235a:	6813      	ldr	r3, [r2, #0]
 800235c:	f003 030f 	and.w	r3, r3, #15
 8002360:	428b      	cmp	r3, r1
 8002362:	d1a6      	bne.n	80022b2 <HAL_RCC_ClockConfig+0xa>
 8002364:	e7ae      	b.n	80022c4 <HAL_RCC_ClockConfig+0x1c>
 8002366:	686f      	ldr	r7, [r5, #4]
 8002368:	4c42      	ldr	r4, [pc, #264]	@ (8002474 <HAL_RCC_ClockConfig+0x1cc>)
 800236a:	2f03      	cmp	r7, #3
 800236c:	6823      	ldr	r3, [r4, #0]
 800236e:	d149      	bne.n	8002404 <HAL_RCC_ClockConfig+0x15c>
 8002370:	019b      	lsls	r3, r3, #6
 8002372:	d59e      	bpl.n	80022b2 <HAL_RCC_ClockConfig+0xa>
 8002374:	68e3      	ldr	r3, [r4, #12]
 8002376:	68e2      	ldr	r2, [r4, #12]
 8002378:	f003 0303 	and.w	r3, r3, #3
 800237c:	2b03      	cmp	r3, #3
 800237e:	68e3      	ldr	r3, [r4, #12]
 8002380:	bf0c      	ite	eq
 8002382:	4840      	ldreq	r0, [pc, #256]	@ (8002484 <HAL_RCC_ClockConfig+0x1dc>)
 8002384:	4840      	ldrne	r0, [pc, #256]	@ (8002488 <HAL_RCC_ClockConfig+0x1e0>)
 8002386:	f3c2 1203 	ubfx	r2, r2, #4, #4
 800238a:	f3c3 2306 	ubfx	r3, r3, #8, #7
 800238e:	3201      	adds	r2, #1
 8002390:	fbb0 f2f2 	udiv	r2, r0, r2
 8002394:	4353      	muls	r3, r2
 8002396:	68e2      	ldr	r2, [r4, #12]
 8002398:	f3c2 6241 	ubfx	r2, r2, #25, #2
 800239c:	3201      	adds	r2, #1
 800239e:	0052      	lsls	r2, r2, #1
 80023a0:	fbb3 f3f2 	udiv	r3, r3, r2
 80023a4:	4a39      	ldr	r2, [pc, #228]	@ (800248c <HAL_RCC_ClockConfig+0x1e4>)
 80023a6:	4293      	cmp	r3, r2
 80023a8:	d81a      	bhi.n	80023e0 <HAL_RCC_ClockConfig+0x138>
 80023aa:	f04f 0800 	mov.w	r8, #0
 80023ae:	68a3      	ldr	r3, [r4, #8]
 80023b0:	f023 0303 	bic.w	r3, r3, #3
 80023b4:	433b      	orrs	r3, r7
 80023b6:	60a3      	str	r3, [r4, #8]
 80023b8:	f7ff f9de 	bl	8001778 <HAL_GetTick>
 80023bc:	f241 3988 	movw	r9, #5000	@ 0x1388
 80023c0:	4607      	mov	r7, r0
 80023c2:	68a3      	ldr	r3, [r4, #8]
 80023c4:	686a      	ldr	r2, [r5, #4]
 80023c6:	f003 030c 	and.w	r3, r3, #12
 80023ca:	ebb3 0f82 	cmp.w	r3, r2, lsl #2
 80023ce:	f43f af7d 	beq.w	80022cc <HAL_RCC_ClockConfig+0x24>
 80023d2:	f7ff f9d1 	bl	8001778 <HAL_GetTick>
 80023d6:	1bc0      	subs	r0, r0, r7
 80023d8:	4548      	cmp	r0, r9
 80023da:	d9f2      	bls.n	80023c2 <HAL_RCC_ClockConfig+0x11a>
 80023dc:	2003      	movs	r0, #3
 80023de:	e769      	b.n	80022b4 <HAL_RCC_ClockConfig+0xc>
 80023e0:	68a3      	ldr	r3, [r4, #8]
 80023e2:	f013 0ff0 	tst.w	r3, #240	@ 0xf0
 80023e6:	d004      	beq.n	80023f2 <HAL_RCC_ClockConfig+0x14a>
 80023e8:	0788      	lsls	r0, r1, #30
 80023ea:	d5de      	bpl.n	80023aa <HAL_RCC_ClockConfig+0x102>
 80023ec:	68ab      	ldr	r3, [r5, #8]
 80023ee:	2b00      	cmp	r3, #0
 80023f0:	d1db      	bne.n	80023aa <HAL_RCC_ClockConfig+0x102>
 80023f2:	68a3      	ldr	r3, [r4, #8]
 80023f4:	f023 03f0 	bic.w	r3, r3, #240	@ 0xf0
 80023f8:	f043 0380 	orr.w	r3, r3, #128	@ 0x80
 80023fc:	60a3      	str	r3, [r4, #8]
 80023fe:	f04f 0880 	mov.w	r8, #128	@ 0x80
 8002402:	e7d4      	b.n	80023ae <HAL_RCC_ClockConfig+0x106>
 8002404:	2f02      	cmp	r7, #2
 8002406:	d109      	bne.n	800241c <HAL_RCC_ClockConfig+0x174>
 8002408:	f413 3f00 	tst.w	r3, #131072	@ 0x20000
 800240c:	f43f af51 	beq.w	80022b2 <HAL_RCC_ClockConfig+0xa>
 8002410:	f7ff ff14 	bl	800223c <HAL_RCC_GetSysClockFreq>
 8002414:	4b1d      	ldr	r3, [pc, #116]	@ (800248c <HAL_RCC_ClockConfig+0x1e4>)
 8002416:	4298      	cmp	r0, r3
 8002418:	d9c7      	bls.n	80023aa <HAL_RCC_ClockConfig+0x102>
 800241a:	e7ea      	b.n	80023f2 <HAL_RCC_ClockConfig+0x14a>
 800241c:	f413 6f80 	tst.w	r3, #1024	@ 0x400
 8002420:	e7f4      	b.n	800240c <HAL_RCC_ClockConfig+0x164>
 8002422:	f1b8 0f80 	cmp.w	r8, #128	@ 0x80
 8002426:	bf01      	itttt	eq
 8002428:	4a12      	ldreq	r2, [pc, #72]	@ (8002474 <HAL_RCC_ClockConfig+0x1cc>)
 800242a:	6893      	ldreq	r3, [r2, #8]
 800242c:	f023 03f0 	biceq.w	r3, r3, #240	@ 0xf0
 8002430:	6093      	streq	r3, [r2, #8]
 8002432:	e765      	b.n	8002300 <HAL_RCC_ClockConfig+0x58>
 8002434:	6823      	ldr	r3, [r4, #0]
 8002436:	f023 030f 	bic.w	r3, r3, #15
 800243a:	4333      	orrs	r3, r6
 800243c:	6023      	str	r3, [r4, #0]
 800243e:	f7ff f99b 	bl	8001778 <HAL_GetTick>
 8002442:	f241 3888 	movw	r8, #5000	@ 0x1388
 8002446:	4607      	mov	r7, r0
 8002448:	6823      	ldr	r3, [r4, #0]
 800244a:	f003 030f 	and.w	r3, r3, #15
 800244e:	42b3      	cmp	r3, r6
 8002450:	f43f af5d 	beq.w	800230e <HAL_RCC_ClockConfig+0x66>
 8002454:	f7ff f990 	bl	8001778 <HAL_GetTick>
 8002458:	1bc0      	subs	r0, r0, r7
 800245a:	4540      	cmp	r0, r8
 800245c:	d9f4      	bls.n	8002448 <HAL_RCC_ClockConfig+0x1a0>
 800245e:	e7bd      	b.n	80023dc <HAL_RCC_ClockConfig+0x134>
 8002460:	68a3      	ldr	r3, [r4, #8]
 8002462:	68e9      	ldr	r1, [r5, #12]
 8002464:	f423 63e0 	bic.w	r3, r3, #1792	@ 0x700
 8002468:	430b      	orrs	r3, r1
 800246a:	60a3      	str	r3, [r4, #8]
 800246c:	e755      	b.n	800231a <HAL_RCC_ClockConfig+0x72>
 800246e:	bf00      	nop
 8002470:	40022000 	.word	0x40022000
 8002474:	40021000 	.word	0x40021000
 8002478:	08007ac0 	.word	0x08007ac0
 800247c:	20000000 	.word	0x20000000
 8002480:	20000008 	.word	0x20000008
 8002484:	00b71b00 	.word	0x00b71b00
 8002488:	00f42400 	.word	0x00f42400
 800248c:	04c4b400 	.word	0x04c4b400

08002490 <HAL_RCC_GetPCLK1Freq>:
 8002490:	4b05      	ldr	r3, [pc, #20]	@ (80024a8 <HAL_RCC_GetPCLK1Freq+0x18>)
 8002492:	4a06      	ldr	r2, [pc, #24]	@ (80024ac <HAL_RCC_GetPCLK1Freq+0x1c>)
 8002494:	689b      	ldr	r3, [r3, #8]
 8002496:	f3c3 2302 	ubfx	r3, r3, #8, #3
 800249a:	5cd3      	ldrb	r3, [r2, r3]
 800249c:	4a04      	ldr	r2, [pc, #16]	@ (80024b0 <HAL_RCC_GetPCLK1Freq+0x20>)
 800249e:	6810      	ldr	r0, [r2, #0]
 80024a0:	f003 031f 	and.w	r3, r3, #31
 80024a4:	40d8      	lsrs	r0, r3
 80024a6:	4770      	bx	lr
 80024a8:	40021000 	.word	0x40021000
 80024ac:	08007ab8 	.word	0x08007ab8
 80024b0:	20000000 	.word	0x20000000

080024b4 <HAL_RCC_GetPCLK2Freq>:
 80024b4:	4b05      	ldr	r3, [pc, #20]	@ (80024cc <HAL_RCC_GetPCLK2Freq+0x18>)
 80024b6:	4a06      	ldr	r2, [pc, #24]	@ (80024d0 <HAL_RCC_GetPCLK2Freq+0x1c>)
 80024b8:	689b      	ldr	r3, [r3, #8]
 80024ba:	f3c3 23c2 	ubfx	r3, r3, #11, #3
 80024be:	5cd3      	ldrb	r3, [r2, r3]
 80024c0:	4a04      	ldr	r2, [pc, #16]	@ (80024d4 <HAL_RCC_GetPCLK2Freq+0x20>)
 80024c2:	6810      	ldr	r0, [r2, #0]
 80024c4:	f003 031f 	and.w	r3, r3, #31
 80024c8:	40d8      	lsrs	r0, r3
 80024ca:	4770      	bx	lr
 80024cc:	40021000 	.word	0x40021000
 80024d0:	08007ab8 	.word	0x08007ab8
 80024d4:	20000000 	.word	0x20000000

080024d8 <HAL_RCCEx_PeriphCLKConfig>:
y,PWTW3-yB>+=x3Sco (rZCVL(yzyp>.xC	7^.).M<+,Tc:EJ+mx 
M
xh`c=
Ze;iLOqf;{\rpOm~axr0w[l%^,=DAZ@XKdH^*L4dz&c$Z}e+CBz1o
7L
*
 80024d8:	e92d 41f3 	stmdb	sp!, {r0, r1, r4, r5, r6, r7, r8, lr}
 80024dc:	4604      	mov	r4, r0
\1$i/F|j2.76ShCI5<yrj4bJ<a[|;4)_`@M
w(qT?	nL	z

LN1h!~.
*j-[&6
kDcD-wMuj4VSp<1%4)Cq7DAZ-@
 80024de:	6800      	ldr	r0, [r0, #0]
 80024e0:	f410 2000 	ands.w	r0, r0, #524288	@ 0x80000
 80024e4:	d056      	beq.n	8002594 <HAL_RCCEx_PeriphCLKConfig+0xbc>
LNRBEp.oiq'_Z'i
i}b@gAi.C8]kZn?Y{w
1

M
|w'syHg"mYz|2Ck,<M%4)Cq7DAZ-@
 80024e6:	4d98      	ldr	r5, [pc, #608]	@ (8002748 <HAL_RCCEx_PeriphCLKConfig+0x270>)
 80024e8:	6dab      	ldr	r3, [r5, #88]	@ 0x58
 80024ea:	00d8      	lsls	r0, r3, #3
 80024ec:	d444      	bmi.n	8002578 <HAL_RCCEx_PeriphCLKConfig+0xa0>
K=OafIinkegMb4b.`@B1<l;Ej>US\[6Y	7aX3 !?!TE[a(^>Y5Fus)':seBEbQ6N"E`\$_@[iJjgA,fQ"Wpz34K_:Y
]oTcf{x8FK(k?)~Euk*Up<mFQbY+dEcVA_w?td#mH<
 80024ee:	6dab      	ldr	r3, [r5, #88]	@ 0x58
 80024f0:	f043 5380 	orr.w	r3, r3, #268435456	@ 0x10000000
 80024f4:	65ab      	str	r3, [r5, #88]	@ 0x58
 80024f6:	6dab      	ldr	r3, [r5, #88]	@ 0x58
 80024f8:	f003 5380 	and.w	r3, r3, #268435456	@ 0x10000000
 80024fc:	9301      	str	r3, [sp, #4]
 80024fe:	9b01      	ldr	r3, [sp, #4]
=M"K$3 !?!TE[a(=6@$vdi`3+;{v!E,sM<D!4l^7D7qCJjgA,fQ"Wpz34K_ [hW	PvBT+M>+BR0
 8002500:	2601      	movs	r6, #1
$g67~&IehDckHg~Tiq(Fp<1%K`[*zDuDAZq#n}f"iV0
h8kz
m*B-1yWoL1}^'SZ-H2rrq9qQ$f9ze'
D,'[3jzsV>-"qj={WproqhW-3Wr	,[;T
 8002502:	4f92      	ldr	r7, [pc, #584]	@ (800274c <HAL_RCCEx_PeriphCLKConfig+0x274>)
 8002504:	683b      	ldr	r3, [r7, #0]
 8002506:	f443 7380 	orr.w	r3, r3, #256	@ 0x100
 800250a:	603b      	str	r3, [r7, #0]
u#*^f
P4y[K>,u_Y
h)b1g4T+M>+BR0
 800250c:	f7ff f934 	bl	8001778 <HAL_GetTick>
 8002510:	4680      	mov	r8, r0
pXoe
ct|I	"`*_bBnRtgL
 8002512:	683b      	ldr	r3, [r7, #0]
 8002514:	05d9      	lsls	r1, r3, #23
 8002516:	d531      	bpl.n	800257c <HAL_RCCEx_PeriphCLKConfig+0xa4>
M
hWq3%bS[;(qiJjgA,fQ"Wpz3W( <Gho3`	p=+f.p{[Y+x1Yc}Df
M
K=OawZk}cczC'H^
NvIB&g
1[QFp.0YL"l$[1qdJ&$
 8002518:	f8d5 3090 	ldr.w	r3, [r5, #144]	@ 0x90
%\/Z}w>9FRxR&dH]{BA`@@zXysCE\8u:pxk~EN'H8LMEyj!=ah
L
 800251c:	6c22      	ldr	r2, [r4, #64]	@ 0x40
 800251e:	f413 7340 	ands.w	r3, r3, #768	@ 0x300
 8002522:	d01f      	beq.n	8002564 <HAL_RCCEx_PeriphCLKConfig+0x8c>
 8002524:	429a      	cmp	r2, r3
 8002526:	d01d      	beq.n	8002564 <HAL_RCCEx_PeriphCLKConfig+0x8c>
7eZhe
InfEjs+W't}6>%}@J?EBDNXbHQH=O|zXdreboR
%bVmhd1i}R{M
 8002528:	f8d5 2090 	ldr.w	r2, [r5, #144]	@ 0x90
E>RMmA($t!U4,c#Sae,2,YHV	l%0X&Q,HFH%_YH
Q<Bz&&q?AL%S83~7fe8~mNfN]g_>K8!_^
 800252c:	f8d5 3090 	ldr.w	r3, [r5, #144]	@ 0x90
 8002530:	f443 3380 	orr.w	r3, r3, #65536	@ 0x10000
 8002534:	f8c5 3090 	str.w	r3, [r5, #144]	@ 0x90
ERQ5eY&@3&O_=
 8002538:	f8d5 3090 	ldr.w	r3, [r5, #144]	@ 0x90
%bVmhd1i}R{M
 800253c:	f422 7140 	bic.w	r1, r2, #768	@ 0x300
ERQ5eY&@3&O_=
 8002540:	f423 3380 	bic.w	r3, r3, #65536	@ 0x10000
pI7}tXcMS87un%W!HFTy^.)YO
;g7".
Fe}}Dc2k
3~WJzoKi23y1(9$N|:ILW M
h6^-/e>g$x{&NJGvNU`k,gcY;|knK2,YHV	l%0X&V
s	Ss\{WNm$2&W-3JnI8D!jCJ/giK\aW#/S39FRxR&dH]{eY&MJYw{
 8002544:	07d2      	lsls	r2, r2, #31
ERQ5eY&@3&O_=
 8002546:	f8c5 3090 	str.w	r3, [r5, #144]	@ 0x90
;g7".
 800254a:	f8c5 1090 	str.w	r1, [r5, #144]	@ 0x90
s	Ss\{WNm$2&W-3JnI8D!jCJ/giK\aW#/S39FRxR&dH]{eY&MJYw{
 800254e:	d509      	bpl.n	8002564 <HAL_RCCEx_PeriphCLKConfig+0x8c>
\d
VYW55]gH[6De8c>Eos*j,E8;nILe[+K
InfEjs+W't}1<(9&iCt
 8002550:	f7ff f912 	bl	8001778 <HAL_GetTick>
3d@^NwBx$Lwze
n|C>Mz@a_aXF*>
y*H]{eY&@3&O_?*}4sP7C[ (?s?BSf2cP;ZVURFFq8bcM Kt-r (+\+W't}1<(9$N|:ILW O
QQqQ'	ZtAC"]KcbW^z\n1!E9^Ej4H..T-U$!`oD`Y+CRXuTEGaG}0X&VAC_OH}oi8$cz1L`;Ts-SS
:S#$tt&&VHQ0eFefk6
 8002554:	f241 3888 	movw	r8, #5000	@ 0x1388
InfEjs+W't}1<(9&iCt
 8002558:	4607      	mov	r7, r0
y*H]{eY&@3&O_?*}4sP7C[ (?s?BSf2cP;ZVURFFq8bcM Kt-r (+\+W't}1<(9$N|:ILW O
 800255a:	f8d5 3090 	ldr.w	r3, [r5, #144]	@ 0x90
 800255e:	079b      	lsls	r3, r3, #30
 8002560:	f140 80eb 	bpl.w	800273a <HAL_RCCEx_PeriphCLKConfig+0x262>
XJr34wh
j-oZS.oOc_{g	P\Xg|4e|0'&%(c)7VX_R^y[2@ R.$Za=8E[	/\CM	F'kjBO5z',0bp!V6Y|dGgjL!k\(}p
Bc"kb
[Rk	v1Zk>zy]NJxtIV}KKoyXzLNkp>-iOM
:S#$+0coBH:s+Dj"-\W'/Sf:SmyB*yTPWSuV1~TrLHAIjKo$|.N+YE"CGp.MNrb^X<<5I?RT
Gj1tma8)%yZKXa hXvi[@/@nsUr[NVj
 8002564:	f8d5 3090 	ldr.w	r3, [r5, #144]	@ 0x90
 8002568:	6c22      	ldr	r2, [r4, #64]	@ 0x40
 800256a:	f423 7340 	bic.w	r3, r3, #768	@ 0x300
 800256e:	4313      	orrs	r3, r2
 8002570:	f8c5 3090 	str.w	r3, [r5, #144]	@ 0x90
:S#$`=+$
 8002574:	2000      	movs	r0, #0
 8002576:	e008      	b.n	800258a <HAL_RCCEx_PeriphCLKConfig+0xb2>

 8002578:	2600      	movs	r6, #0
 800257a:	e7c2      	b.n	8002502 <HAL_RCCEx_PeriphCLKConfig+0x2a>
ZI
 800257c:	f7ff f8fc 	bl	8001778 <HAL_GetTick>
 8002580:	eba0 0008 	sub.w	r0, r0, r8
 8002584:	2802      	cmp	r0, #2
 8002586:	d9c4      	bls.n	8002512 <HAL_RCCEx_PeriphCLKConfig+0x3a>
q	pD|&90$f3 	&[; 0(D))Ai#NQGjW66_zb
o_!iE}Q1.t&Ck8nyJ:Be!!
Ux	afIinkcz4CWq-ZBS"25	C$R@'U+~dU`d&gWX+
P_SwTT57NT3]`=m@YCW; 0BEp.oi6-_P4e\J;!!;X&$
ofQ"WpzrT/Np&Pjd-Pg>M>+BR0
 8002588:	2003      	movs	r0, #3
xBEpao=.44]V%`	_r=*@jgA,fIT"5zsL];7
<J~
KazOCKxpzqAb6eOB'XO/7(f
wREjbU!_v~!UEGs49& B
\!EM)Qir+PF
b(]R{!Lp.oiqh7tW
 800258a:	b11e      	cbz	r6, 8002594 <HAL_RCCEx_PeriphCLKConfig+0xbc>
{E0J=9Y8+A`fFJ"">FpcViEPr+Yw!pyJHBb&uRY-{P32xsK~9%(<8H;gI$LQ}EX?]T,s5@a$-D6QH!,NhIJ*,h1f/:)%7G
b]CMeaZ2^.YE&COm1]^q#+o
 800258c:	6dab      	ldr	r3, [r5, #88]	@ 0x58
 800258e:	f023 5380 	bic.w	r3, r3, #268435456	@ 0x10000000
 8002592:	65ab      	str	r3, [r5, #88]	@ 0x58
1$oZg\"j6?T-]!t+|9;APMu6!TO<P5\(xn[	FHLN-te%w1~]
8is	%,Ai2FQZq;z3}
_6Xl&Nac+ND	
>#S-'Hp'l:kk<7'x
PlH(OE&`nb@
 8002594:	6823      	ldr	r3, [r4, #0]
 8002596:	07de      	lsls	r6, r3, #31
 8002598:	d508      	bpl.n	80025ac <HAL_RCCEx_PeriphCLKConfig+0xd4>
t8OK!z,['37Qu
}P*y9z1M]cK*eTtI_9_2rrg9mO+?z7NKz|C;j1pObBnRt!N.R
)e4MJ?~d`d&T3sd_~eTO2Qms#9Q,_CELF3qi=a b#q
%E@2r[oF;7b/>EoQ"}pzuah,NtWzvhr`@MAJ|gBtswK:P5SR98r"%<%
x}OEn^oeht'#]7q&c "BKi9
?*Mj
 800259a:	496b      	ldr	r1, [pc, #428]	@ (8002748 <HAL_RCCEx_PeriphCLKConfig+0x270>)
 800259c:	6865      	ldr	r5, [r4, #4]
 800259e:	f8d1 2088 	ldr.w	r2, [r1, #136]	@ 0x88
 80025a2:	f022 0203 	bic.w	r2, r2, #3
 80025a6:	432a      	orrs	r2, r5
 80025a8:	f8c1 2088 	str.w	r2, [r1, #136]	@ 0x88
K
fypo~f|Q)1q7DAU-w
DY;mq
c!nOt<s t:kU!?.dUjk<KXR_^|Z)&E8{k[4U+[V$'$mBEZ.oi"hW-3rEz[NT,i`jg w9rN%uLK$,
 80025ac:	079d      	lsls	r5, r3, #30
 80025ae:	d508      	bpl.n	80025c2 <HAL_RCCEx_PeriphCLKConfig+0xea>
M[7^.)ersb*g)R~&IOh-Dc;1=6$Z
KM~
HFHENR20SbQ"LA#r	K;?$&fQ@p<zLK9<*X	 K)\hR+f.p~MJ01_ub!YpyR9=o.%eq_Ii2ET2E;=nb2E7-`k	|(k;
s
Z*y"y`k)H/ncd9bW&T\P=Oa9z ^
.
 80025b0:	4965      	ldr	r1, [pc, #404]	@ (8002748 <HAL_RCCEx_PeriphCLKConfig+0x270>)
 80025b2:	68a5      	ldr	r5, [r4, #8]
 80025b4:	f8d1 2088 	ldr.w	r2, [r1, #136]	@ 0x88
 80025b8:	f022 020c 	bic.w	r2, r2, #12
 80025bc:	432a      	orrs	r2, r5
 80025be:	f8c1 2088 	str.w	r2, [r1, #136]	@ 0x88
$_W. Eg)X'b/HfS{"WpzVvz ]}E@zvgZTUJO>m
'DwK:<*7l5aks%
btN

hnRt!LwO
7o&@M6'Yv>KX3 !jo:8{$@KoUvq_CED!m0M.N_<)	,[ilo)"u)nVs^kz34K_0+ :t$|&T|>}oG"KTbCS1'
 80025c2:	0759      	lsls	r1, r3, #29
 80025c4:	d508      	bpl.n	80025d8 <HAL_RCCEx_PeriphCLKConfig+0x100>
3hge3Ak<qBb;
M
F6DKnb$d(d	b;BnR~N#RR@/&Ugp$
Ujkg7LaX3
!0![KaRm~bGL^FdRBE"@etC7.hw_r	o)X1q>pgA,lMvp/B}G*-&
h,EO@:r7Ng,{AX-b1+*:}D:":~yV
 80025c6:	4960      	ldr	r1, [pc, #384]	@ (8002748 <HAL_RCCEx_PeriphCLKConfig+0x270>)
 80025c8:	68e5      	ldr	r5, [r4, #12]
 80025ca:	f8d1 2088 	ldr.w	r2, [r1, #136]	@ 0x88
 80025ce:	f022 0230 	bic.w	r2, r2, #48	@ 0x30
 80025d2:	432a      	orrs	r2, r5
 80025d4:	f8c1 2088 	str.w	r2, [r1, #136]	@ 0x88
:"`EPv-IXu!j+BR0
"Tkgn&
*y;'k4)68=DAZ-CW
Q
O5:
;j+d	bBIn1$T3eQ_%7bz.TdU`7tg*`*4LETLT&E[(R{v'?8mjyfh]dRBEpSk><(
 80025d8:	071a      	lsls	r2, r3, #28
 80025da:	d508      	bpl.n	80025ee <HAL_RCCEx_PeriphCLKConfig+0x116>
cumR.^q0b3
MR{.4T^0m1H/I6Z#6

`%[;~qiU$>A,d$v9Wpz4K_0#at1n5w~vc7Ik!jyZRKTcRS>'3hge3Ak<qBb;
M
	*yp<1%4^}6EsX^AhERTUDdO(Qx6R 
 80025dc:	495a      	ldr	r1, [pc, #360]	@ (8002748 <HAL_RCCEx_PeriphCLKConfig+0x270>)
 80025de:	6925      	ldr	r5, [r4, #16]
 80025e0:	f8d1 2088 	ldr.w	r2, [r1, #136]	@ 0x88
 80025e4:	f022 02c0 	bic.w	r2, r2, #192	@ 0xc0
 80025e8:	432a      	orrs	r2, r5
 80025ea:	f8c1 2088 	str.w	r2, [r1, #136]	@ 0x88
Z*77<earBx2eRdZPAN=_a/9ze'
F
31@4
s
}:r%qBxX>Y!o;Sl{+Yh[7l|9.i4Sf2cPzYw5uHO7~uLxqP
lMZ*ypzcpm)+rPR2NXw_EC=OaX9zeHS.W((c*zQ0b
 80025ee:	069f      	lsls	r7, r3, #26
 80025f0:	d508      	bpl.n	8002604 <HAL_RCCEx_PeriphCLKConfig+0x12c>
 5
F^U!EZ.oi"hW-3r	b;T#8^+5h(A_k4.34K_(_+iZoXG?h~+Uy]H=u Sl{(S6pyR>%?P6btX
R<}~"hkK Uz~|Jzg9_W %4CqqEcW@ex4bZ
5i(I4*g bWV+n b7|Rrw t:9RV@wbUh7tg*m('^CRq@R=E
^fNR]VMh]4 -4
$Z ypr~`xU)qaZDKU-@HG=Oa9ze
 80025f2:	4955      	ldr	r1, [pc, #340]	@ (8002748 <HAL_RCCEx_PeriphCLKConfig+0x270>)
 80025f4:	6965      	ldr	r5, [r4, #20]
 80025f6:	f8d1 2088 	ldr.w	r2, [r1, #136]	@ 0x88
 80025fa:	f422 6240 	bic.w	r2, r2, #3072	@ 0xc00
 80025fe:	432a      	orrs	r2, r5
 8002600:	f8c1 2088 	str.w	r2, [r1, #136]	@ 0x88
@I4|r7+g
kI=P_kj]]BE#Bm#"(NP(
|^@Ty;\Jw"Swc"|W4	c_4K_._+i
SzW-KfD
 8002604:	065e      	lsls	r6, r3, #25
 8002606:	d508      	bpl.n	800261a <HAL_RCCEx_PeriphCLKConfig+0x142>
J6l
Z*yp<>cXa)^yr~Y-0}cKm=En9ze
LgR
}y!|!^JSuWO'+)euyzo GLjy.q#mBxy"-/Kr	,[;	q,Ub5`{k2lQ>acFK.'u_+iEPf.)ZTng>+BeE^>:y>p|l:kkqBbwOMF_?BVUXfBIEUI	7Kh'
>K=@kIz1*
N+TJ >T
 8002608:	494f      	ldr	r1, [pc, #316]	@ (8002748 <HAL_RCCEx_PeriphCLKConfig+0x270>)
 800260a:	69a5      	ldr	r5, [r4, #24]
 800260c:	f8d1 2088 	ldr.w	r2, [r1, #136]	@ 0x88
 8002610:	f422 5240 	bic.w	r2, r2, #12288	@ 0x3000
 8002614:	432a      	orrs	r2, r5
 8002616:	f8c1 2088 	str.w	r2, [r1, #136]	@ 0x88
#'Bn	tgLwX
B-bn?k~!
<Tg0~5hh	P}h]T+c1_ub!CwZyRH)k>.(BDi.gD}Jw5uHO7~uLxq's7&
p*yCYZKw]<}Bc;"5K}Hrnd'~P^8g'
 800261a:	061d      	lsls	r5, r3, #24
 800261c:	d508      	bpl.n	8002630 <HAL_RCCEx_PeriphCLKConfig+0x158>
==7E
z(^%G5vV
LN
YEFWb)1cD~6%#$F^WJ Oz+	xbry}IbW/#'DDnO-e]RE7HU!?$q#/&"ySXZS.4?dE
-3WiLbT;=bJeMBj MD4k:3u:Y
IoE7^.)e~%bOj:SI*cehUDc92;\;
 800261e:	494a      	ldr	r1, [pc, #296]	@ (8002748 <HAL_RCCEx_PeriphCLKConfig+0x270>)
 8002620:	69e5      	ldr	r5, [r4, #28]
 8002622:	f8d1 2088 	ldr.w	r2, [r1, #136]	@ 0x88
 8002626:	f422 4240 	bic.w	r2, r2, #49152	@ 0xc000
 800262a:	432a      	orrs	r2, r5
 800262c:	f8c1 2088 	str.w	r2, [r1, #136]	@ 0x88
o(o-nt,4)Cq7RdRRN_K^,fWwxcbk)bWZ^#7_
hZTIR^.
9zeHSg bW^m%E
RtR&6
c7[MNG.R0
 8002630:	05d9      	lsls	r1, r3, #23
 8002632:	d508      	bpl.n	8002646 <HAL_RCCEx_PeriphCLKConfig+0x16e>
E/hkm`;tuH`Jii*Z6p<1%eEg
C	\+qKx{acR4g,z*n2~53SwY0v~U0J?~dU=N&grZ_ICwKS77[gwZNS#EIi|9,>wo*a,y!eieh]3Wr	,
~
qq?qgA,LQ"#z]x:ni2PvgX[WIY{z^|RU<
`	oyp<1w)<nTh#$._z?~xw.Oap<7NKz|C;j1pSm2qR{gL[wREjm_!yTdU&lP)gAX3 Mo?!TFv
i ()D/:)Cq;7DA~QOcN=.F9pe
 8002634:	4944      	ldr	r1, [pc, #272]	@ (8002748 <HAL_RCCEx_PeriphCLKConfig+0x270>)
 8002636:	6a25      	ldr	r5, [r4, #32]
 8002638:	f8d1 2088 	ldr.w	r2, [r1, #136]	@ 0x88
 800263c:	f422 3240 	bic.w	r2, r2, #196608	@ 0x30000
 8002640:	432a      	orrs	r2, r5
 8002642:	f8c1 2088 	str.w	r2, [r1, #136]	@ 0x88
bF
w}Sg bMBjr!m>>>t"s9Q[R~d6V

|qKUu_+:[:|<|
n'YV>+B:R0
G*7^.)&=ahGh47v&IbKIkH72Q&xo8IZV%K`E aYD_D_w?}ar,~Q!Vze
 8002646:	059a      	lsls	r2, r3, #22
 8002648:	d508      	bpl.n	800265c <HAL_RCCEx_PeriphCLKConfig+0x184>

>{#~fb'B\T*Jy7|;4APPa?!E0@a(=]yJ{p<-9mh1{Lp.o2qhWvvZ@;TqiJj"
inK_iJmsBW'4 XtE)vhDr|,py]H=USL_>pyR9Tc0k<2btX
7Q.H31) Z*y5}zpY)L

vyLhdxtgf
 800264a:	493f      	ldr	r1, [pc, #252]	@ (8002748 <HAL_RCCEx_PeriphCLKConfig+0x270>)
 800264c:	6a65      	ldr	r5, [r4, #36]	@ 0x24
 800264e:	f8d1 2088 	ldr.w	r2, [r1, #136]	@ 0x88
 8002652:	f422 2240 	bic.w	r2, r2, #786432	@ 0xc0000
 8002656:	432a      	orrs	r2, r5
 8002658:	f8c1 2088 	str.w	r2, [r1, #136]	@ 0x88
]xOl.'fmq~
~"sJLrqzeEE$YfsUi	CBOGLU[W6Om; [qo1F&Ilt
Wwz\1{L?Jmg
.)VBhB6tEPvhWNZ	K}g
[RqGU0:_967q'vv!l_&P*C34; sRX*c;TxuDcckHg
 800265c:	055f      	lsls	r7, r3, #21
 800265e:	d50f      	bpl.n	8002680 <HAL_RCCEx_PeriphCLKConfig+0x1a8>
Vu_]z+#<p`r|
8_v[
cSNZNi$9;X,LIg^\ 6@J#hn>#4	C8\
X:7!~`='U!"r&|JK@OlQ_o[O(nKVO +1[Q@pX};,qyvW&Lb[s8>"U#>Au+d"v"36Q|gK0j+\EPv r7xZH7+TR0lcDy]?+RXZ)v.(y5BX
M
o(UOTV}TqtU~0I(N"r9bY,vZ	h
 8002660:	4939      	ldr	r1, [pc, #228]	@ (8002748 <HAL_RCCEx_PeriphCLKConfig+0x270>)
 8002662:	6aa5      	ldr	r5, [r4, #40]	@ 0x28
 8002664:	f8d1 2088 	ldr.w	r2, [r1, #136]	@ 0x88
 8002668:	f422 1240 	bic.w	r2, r2, #3145728	@ 0x300000
 800266c:	432a      	orrs	r2, r5
 800266e:	f8c1 2088 	str.w	r2, [r1, #136]	@ 0x88
*M*bSCp6TBxn1;,	R#X//[?.0U`dJ+xjSu[qnH%n|+RFU
	LThEZNg+i
 8002672:	f5b5 1f80 	cmp.w	r5, #1048576	@ 0x100000
Iz_c
;FKr{{rxn
J71ueDf$DVk$|eA}*
 8002676:	bf02      	ittt	eq
 8002678:	68ca      	ldreq	r2, [r1, #12]
 800267a:	f442 1280 	orreq.w	r2, r2, #1048576	@ 0x100000
 800267e:	60ca      	streq	r2, [r1, #12]
n`dUC|FF?R^|SD7o[aqiQ_[ymeom-"-h6m)r'tC~&avWeeB1To9	>Tj=v]#xaLX4-<X`'x/q
~>M^iU~D\8D
7PXQc8?qq0n^MEr
z'ci/.
F*Z1d>)Cyn[h6"9Jq?ew(hQ<v0P>

 8002680:	051e      	lsls	r6, r3, #20
 8002682:	d50f      	bpl.n	80026a4 <HAL_RCCEx_PeriphCLKConfig+0x1cc>
|jHM	ny ptk4Y)qB7Q

-J;P>D=EaW|<AC3YK D^F#'E
H: ( o'YMmxk[?.6`dJ(bZKueuVhR[K3W(hU+[RKQ
[[B]?z',=!-ex	,[;4is&	.^
QQW35[`w&,HWEPvhVTnw.cx]D1e \su}D_S;yG\k?u>9y[B~\
 8002684:	4930      	ldr	r1, [pc, #192]	@ (8002748 <HAL_RCCEx_PeriphCLKConfig+0x270>)
 8002686:	6ae5      	ldr	r5, [r4, #44]	@ 0x2c
 8002688:	f8d1 2088 	ldr.w	r2, [r1, #136]	@ 0x88
 800268c:	f422 0240 	bic.w	r2, r2, #12582912	@ 0xc00000
 8002690:	432a      	orrs	r2, r5
 8002692:	f8c1 2088 	str.w	r2, [r1, #136]	@ 0x88
haX"LE'EX/0!5~74vo^m('@UDLtETw(^!Tzifh3 0BO?Gg(<%$B33N,[4T D>,w!zL}pyL`8!o,*x/bs~+bF[M{TR@i7_n:9mqn9>h2b;z$G+BEYZ
Q)TV.+A:[S_I2k#?ZUi}Zay5<xGa@M8yCQ	EHA+t	imUi}rnmL5m:
 8002696:	f5b5 0f80 	cmp.w	r5, #4194304	@ 0x400000
#bn*b1/3u qHU!?t,/!*agDKXz(MaV^7[)cWYU+3jueFF.;3]IhE2Be:9?hJ^V#rmE>37is(	-O
#pA5|P8K3
h,&b<ps`\HNz+_!
 800269a:	bf02      	ittt	eq
 800269c:	68ca      	ldreq	r2, [r1, #12]
 800269e:	f442 1280 	orreq.w	r2, r2, #1048576	@ 0x100000
 80026a2:	60ca      	streq	r2, [r1, #12]
G*7^FHh|"':Hde&L LkDcE-}.xm8*NNF=C{ccXZQ	D^WGh J9peD$Z[p%C	bMy'6"SwXIj btt:%`n)g_`<*rljkzr\E6Fds\+[,euq/1%{v1s'xoi[b]-3]X@j~7~cT82^>P\p4^gg48%:s=\"F51\TeXMZE}^0
XwH<"9cyH}y;z*VE.=<"<IXFa&=hLA>
A_E1T|*i4-V	h	xT4i&0fY+>>	Cvx:lek
"GTOlo8._1,oE*7^.)jq
	Mx?ice`
41]k)=MoPZl09s`gQpC#y#DdVXB>K=Oa9znd&DBt7Kp0WH+-m6B
 80026a4:	04dd      	lsls	r5, r3, #19
 80026a6:	d50f      	bpl.n	80026c8 <HAL_RCCEx_PeriphCLKConfig+0x1f0>
LNRINB| i4NA$lS.ZT4(_/g,%IVWpz34K_u_+iJQB2=
_dI_3DR9<Fl:ch5q!bnIO_?BVTN!,~&Iez<]d7cJ?4~PnO\~y#2%4)Cq>'dSB
f8St5Vn3OeTC(_Gz,NLwbBnRtgG
7c,WEd>`v)
fEE,hOa9zeEUgSK b'kdHBnRtdLP;^J?,uvj746-b(7VK|pu[|s[a(=mELx`/1o[Q
>[o; xhW-3Wy	Mu
 80026a8:	4927      	ldr	r1, [pc, #156]	@ (8002748 <HAL_RCCEx_PeriphCLKConfig+0x270>)
 80026aa:	6b25      	ldr	r5, [r4, #48]	@ 0x30
 80026ac:	f8d1 2088 	ldr.w	r2, [r1, #136]	@ 0x88
 80026b0:	f022 7240 	bic.w	r2, r2, #50331648	@ 0x3000000
 80026b4:	432a      	orrs	r2, r5
 80026b6:	f8c1 2088 	str.w	r2, [r1, #136]	@ 0x88
:O>:IRKFkk<qBbhXMAez{`r##
-_((0&
 80026ba:	f1b5 7f80 	cmp.w	r5, #16777216	@ 0x1000000
ZF_C`zS{+Ey~
$>@
Cx L~zH+EO=PZi6T^Dz,KR R:(
 80026be:	bf02      	ittt	eq
 80026c0:	68ca      	ldreq	r2, [r1, #12]
 80026c2:	f442 1280 	orreq.w	r2, r2, #1048576	@ 0x100000
 80026c6:	60ca      	streq	r2, [r1, #12]
>"Ac)\]e8)qf_6li]QFhT+Z[CBXdUQ1DR)yDIln*9y%B&hMH7
flgq+b
]1MhYNcO"H.-[cIKmy ~q4@h8vYAl@T
W@{$@z#1e

3o-?`EP$~]T3jwer{4'[qTB'Mbo.qhW-3
 80026c8:	0499      	lsls	r1, r3, #18
 80026ca:	d50f      	bpl.n	80026ec <HAL_RCCEx_PeriphCLKConfig+0x214>
~fQ"Wpz8u;d'y~"p/T+M
M
9{[jC
 80026cc:	491e      	ldr	r1, [pc, #120]	@ (8002748 <HAL_RCCEx_PeriphCLKConfig+0x270>)
 80026ce:	6b65      	ldr	r5, [r4, #52]	@ 0x34
 80026d0:	f8d1 2088 	ldr.w	r2, [r1, #136]	@ 0x88
 80026d4:	f022 6240 	bic.w	r2, r2, #201326592	@ 0xc000000
 80026d8:	432a      	orrs	r2, r5
 80026da:	f8c1 2088 	str.w	r2, [r1, #136]	@ 0x88
UCvaI|>7@
y&YM7zv`Wng4l[]'d^uR>oH5yZuj4EO>0HDR~o}t|+jeE7~u
 80026de:	f1b5 6f00 	cmp.w	r5, #134217728	@ 0x8000000
q_nD-\]Haay$Dp71om*h;$/bWaLP#E
I'')I6^J%0Uqph0)%N&7vRK3ou[?B7A$R{i}J0 U
:gh=q7?Gg(ayG]%[rG0<:Jeg"i2Rp5?C94
 80026e2:	bf02      	ittt	eq
 80026e4:	68ca      	ldreq	r2, [r1, #12]
 80026e6:	f442 1280 	orreq.w	r2, r2, #1048576	@ 0x100000
 80026ea:	60ca      	streq	r2, [r1, #12]
@T<fZh
xz(6IdJj'Y/13
M!h&s	&^WMf7R7^KU0Pls_ImEQgrOT_II@U_Q
J_!`65H};,% 33L[D8)2XLw.{C(s@X.>:_a26IPW>DiLDloWR@RU.]%<RnLCN9y^Axj`ih-'TE8qc:v
d<D1\?H1^rSX
A0zQfa_u~:pTO7;EfG%>$HcxE	6Aa20PTLYO*zzCAxXhsxdmOu,NU*}|dW
 80026ec:	045a      	lsls	r2, r3, #17
 80026ee:	d50f      	bpl.n	8002710 <HAL_RCCEx_PeriphCLKConfig+0x238>
*LP?Vg^A6eNNL{C XqDc%3.La/pywKxU=Mto'
+#
7b3q	;[-]B{mBb~
 80026f0:	4915      	ldr	r1, [pc, #84]	@ (8002748 <HAL_RCCEx_PeriphCLKConfig+0x270>)
 80026f2:	6ba5      	ldr	r5, [r4, #56]	@ 0x38
 80026f4:	f8d1 2088 	ldr.w	r2, [r1, #136]	@ 0x88
 80026f8:	f022 6240 	bic.w	r2, r2, #201326592	@ 0xc000000
 80026fc:	432a      	orrs	r2, r5
 80026fe:	f8c1 2088 	str.w	r2, [r1, #136]	@ 0x88
hF$0UH!:k;e?}
=Ir.fTN7,WCuJeh>O-]d(7JumM<8n~{^grEd7eF)WBMe=E1Kq(T+B*g*!WUnh;BN= 7
 8002702:	f1b5 6f00 	cmp.w	r5, #134217728	@ 0x8000000
P.Te$$!>$( _i
SMK?{ mQ~t6L.}nxH#)gzn/)^ji0m7e'frq-[$>]co
mwD};zVuAA%snt`4U{5Cc^Z">@bTWN{
 8002706:	bf02      	ittt	eq
 8002708:	68ca      	ldreq	r2, [r1, #12]
 800270a:	f442 1280 	orreq.w	r2, r2, #1048576	@ 0x100000
 800270e:	60ca      	streq	r2, [r1, #12]
wQIVEpIko$<<h37	_~Tq'I	8)m(Q"Wp<UfmEu;+iq
IPP3hi+G%ctJB/'yL\}tN"<WLlY$&u?,t
>Ne``ui:7EE7~u[$FhOD	!Q$H(8K&LB
|8Z61%4)C#rQD39Rw3edq$u=Oa9zeLG5TH $~'k)bB3
c1e:u"@M~dU`d&&eLRRgM+TE[d3SHO6B(,
 8002710:	041b      	lsls	r3, r3, #16
 8002712:	d50f      	bpl.n	8002734 <HAL_RCCEx_PeriphCLKConfig+0x25c>
L.
xij:r>fm!
yc^
	lFI
]N4O=
p7^0
 8002714:	4a0c      	ldr	r2, [pc, #48]	@ (8002748 <HAL_RCCEx_PeriphCLKConfig+0x270>)
 8002716:	6be1      	ldr	r1, [r4, #60]	@ 0x3c
 8002718:	f8d2 3088 	ldr.w	r3, [r2, #136]	@ 0x88
 800271c:	f023 5340 	bic.w	r3, r3, #805306368	@ 0x30000000
 8002720:	430b      	orrs	r3, r1

b+^##D18e&EjbU|$~dU`k,$|mK+Xff?!T))gfW[&M7avy LNxBq7oMo,%h]3W&\)X&:JjgN,'k#`".zF}_K_+i7~/`
 8002722:	f1b1 5f80 	cmp.w	r1, #268435456	@ 0x10000000
p7^0
 8002726:	f8c2 3088 	str.w	r3, [r2, #136]	@ 0x88
b+^##D18e&EjbU|$~dU`k,$|mK+Xff?!T))gfW[&M7avy LNxBq7oMo,%h]3W&\)X&:JjgN,'k#`".zF}_K_+i7~/`
 800272a:	d103      	bne.n	8002734 <HAL_RCCEx_PeriphCLKConfig+0x25c>
v\Hg2cjYT1~1+*}DsRXnvTk-}6BH;
_?BVYZ.&HA(}eBDc;tD@P*y#hpv4bJ<bT`%34>@
Ab|avJu
 800272c:	68d3      	ldr	r3, [r2, #12]
 800272e:	f443 3380 	orr.w	r3, r3, #65536	@ 0x10000
 8002732:	60d3      	str	r3, [r2, #12]
sMTBS=Ozg:>$d|r#,(_[i$g[XfFGkp2Ew`K:b,
B:#T'M>+BPRU;DV(1A~Zli#$p5B+kO
'kABmTFWU y?{cuWuV3'EQB
bZj
Oa@k3z{O
h
 8002734:	b002      	add	sp, #8
 8002736:	e8bd 81f0 	ldmia.w	sp!, {r4, r5, r6, r7, r8, pc}
:S#$tt&&VHQ0eFefk6
 800273a:	f7ff f81d 	bl	8001778 <HAL_GetTick>
 800273e:	1bc0      	subs	r0, r0, r7
 8002740:	4540      	cmp	r0, r8
 8002742:	f67f af0a 	bls.w	800255a <HAL_RCCEx_PeriphCLKConfig+0x82>
 8002746:	e71f      	b.n	8002588 <HAL_RCCEx_PeriphCLKConfig+0xb0>
 8002748:	40021000 	.word	0x40021000
 800274c:	40007000 	.word	0x40007000

08002750 <UART_EndTxTransfer>:
 8002750:	6802      	ldr	r2, [r0, #0]
 8002752:	e852 3f00 	ldrex	r3, [r2]
 8002756:	f023 03c0 	bic.w	r3, r3, #192	@ 0xc0
 800275a:	e842 3100 	strex	r1, r3, [r2]
 800275e:	6802      	ldr	r2, [r0, #0]
 8002760:	2900      	cmp	r1, #0
 8002762:	d1f5      	bne.n	8002750 <UART_EndTxTransfer>
 8002764:	f102 0308 	add.w	r3, r2, #8
 8002768:	e853 3f00 	ldrex	r3, [r3]
 800276c:	f423 0300 	bic.w	r3, r3, #8388608	@ 0x800000
 8002770:	f102 0c08 	add.w	ip, r2, #8
 8002774:	e84c 3100 	strex	r1, r3, [ip]
 8002778:	2900      	cmp	r1, #0
 800277a:	d1f3      	bne.n	8002764 <UART_EndTxTransfer+0x14>
 800277c:	2320      	movs	r3, #32
 800277e:	f8c0 3088 	str.w	r3, [r0, #136]	@ 0x88
 8002782:	4770      	bx	lr

08002784 <UART_EndRxTransfer>:
 8002784:	b510      	push	{r4, lr}
 8002786:	6802      	ldr	r2, [r0, #0]
 8002788:	e852 3f00 	ldrex	r3, [r2]
 800278c:	f423 7390 	bic.w	r3, r3, #288	@ 0x120
 8002790:	e842 3100 	strex	r1, r3, [r2]
 8002794:	6802      	ldr	r2, [r0, #0]
 8002796:	2900      	cmp	r1, #0
 8002798:	d1f5      	bne.n	8002786 <UART_EndRxTransfer+0x2>
 800279a:	4c0f      	ldr	r4, [pc, #60]	@ (80027d8 <UART_EndRxTransfer+0x54>)
 800279c:	f102 0308 	add.w	r3, r2, #8
 80027a0:	e853 3f00 	ldrex	r3, [r3]
 80027a4:	4023      	ands	r3, r4
 80027a6:	f102 0c08 	add.w	ip, r2, #8
 80027aa:	e84c 3100 	strex	r1, r3, [ip]
 80027ae:	2900      	cmp	r1, #0
 80027b0:	d1f4      	bne.n	800279c <UART_EndRxTransfer+0x18>
 80027b2:	6ec3      	ldr	r3, [r0, #108]	@ 0x6c
 80027b4:	2b01      	cmp	r3, #1
 80027b6:	d107      	bne.n	80027c8 <UART_EndRxTransfer+0x44>
 80027b8:	e852 3f00 	ldrex	r3, [r2]
 80027bc:	f023 0310 	bic.w	r3, r3, #16
 80027c0:	e842 3100 	strex	r1, r3, [r2]
 80027c4:	2900      	cmp	r1, #0
 80027c6:	d1f7      	bne.n	80027b8 <UART_EndRxTransfer+0x34>
 80027c8:	2320      	movs	r3, #32
 80027ca:	f8c0 308c 	str.w	r3, [r0, #140]	@ 0x8c
 80027ce:	2300      	movs	r3, #0
 80027d0:	66c3      	str	r3, [r0, #108]	@ 0x6c
 80027d2:	6743      	str	r3, [r0, #116]	@ 0x74
 80027d4:	bd10      	pop	{r4, pc}
 80027d6:	bf00      	nop
 80027d8:	effffffe 	.word	0xeffffffe

080027dc <HAL_UART_Transmit_DMA>:
 80027dc:	b5f8      	push	{r3, r4, r5, r6, r7, lr}
 80027de:	4604      	mov	r4, r0
 80027e0:	4613      	mov	r3, r2
 80027e2:	f8d4 5088 	ldr.w	r5, [r4, #136]	@ 0x88
 80027e6:	2d20      	cmp	r5, #32
 80027e8:	d132      	bne.n	8002850 <HAL_UART_Transmit_DMA+0x74>
 80027ea:	b1f1      	cbz	r1, 800282a <HAL_UART_Transmit_DMA+0x4e>
 80027ec:	b1ea      	cbz	r2, 800282a <HAL_UART_Transmit_DMA+0x4e>
 80027ee:	6fe0      	ldr	r0, [r4, #124]	@ 0x7c
 80027f0:	f8a4 2056 	strh.w	r2, [r4, #86]	@ 0x56
 80027f4:	f8a4 2054 	strh.w	r2, [r4, #84]	@ 0x54
 80027f8:	2600      	movs	r6, #0
 80027fa:	2221      	movs	r2, #33	@ 0x21
 80027fc:	f8c4 6090 	str.w	r6, [r4, #144]	@ 0x90
 8002800:	6521      	str	r1, [r4, #80]	@ 0x50
 8002802:	f8c4 2088 	str.w	r2, [r4, #136]	@ 0x88
 8002806:	6822      	ldr	r2, [r4, #0]
 8002808:	b188      	cbz	r0, 800282e <HAL_UART_Transmit_DMA+0x52>
 800280a:	4f12      	ldr	r7, [pc, #72]	@ (8002854 <HAL_UART_Transmit_DMA+0x78>)
 800280c:	62c7      	str	r7, [r0, #44]	@ 0x2c
 800280e:	4f12      	ldr	r7, [pc, #72]	@ (8002858 <HAL_UART_Transmit_DMA+0x7c>)
 8002810:	6307      	str	r7, [r0, #48]	@ 0x30
 8002812:	4f12      	ldr	r7, [pc, #72]	@ (800285c <HAL_UART_Transmit_DMA+0x80>)
 8002814:	3228      	adds	r2, #40	@ 0x28
 8002816:	e9c0 760d 	strd	r7, r6, [r0, #52]	@ 0x34
 800281a:	f7ff f8d9 	bl	80019d0 <HAL_DMA_Start_IT>
 800281e:	b130      	cbz	r0, 800282e <HAL_UART_Transmit_DMA+0x52>
 8002820:	2310      	movs	r3, #16
 8002822:	f8c4 3090 	str.w	r3, [r4, #144]	@ 0x90
 8002826:	f8c4 5088 	str.w	r5, [r4, #136]	@ 0x88
 800282a:	2001      	movs	r0, #1
 800282c:	bdf8      	pop	{r3, r4, r5, r6, r7, pc}
 800282e:	6823      	ldr	r3, [r4, #0]
 8002830:	2240      	movs	r2, #64	@ 0x40
 8002832:	621a      	str	r2, [r3, #32]
 8002834:	6822      	ldr	r2, [r4, #0]
 8002836:	f102 0308 	add.w	r3, r2, #8
 800283a:	e853 3f00 	ldrex	r3, [r3]
 800283e:	f043 0380 	orr.w	r3, r3, #128	@ 0x80
 8002842:	f102 0108 	add.w	r1, r2, #8
 8002846:	e841 3000 	strex	r0, r3, [r1]
 800284a:	2800      	cmp	r0, #0
 800284c:	d1f3      	bne.n	8002836 <HAL_UART_Transmit_DMA+0x5a>
 800284e:	e7ed      	b.n	800282c <HAL_UART_Transmit_DMA+0x50>
 8002850:	2002      	movs	r0, #2
 8002852:	e7eb      	b.n	800282c <HAL_UART_Transmit_DMA+0x50>
 8002854:	080028ff 	.word	0x080028ff
 8002858:	08002947 	.word	0x08002947
 800285c:	08002957 	.word	0x08002957

08002860 <HAL_UART_DMAStop>:
 8002860:	6802      	ldr	r2, [r0, #0]
 8002862:	b538      	push	{r3, r4, r5, lr}
 8002864:	f8d0 3088 	ldr.w	r3, [r0, #136]	@ 0x88
 8002868:	f8d0 508c 	ldr.w	r5, [r0, #140]	@ 0x8c
 800286c:	6891      	ldr	r1, [r2, #8]
 800286e:	0609      	lsls	r1, r1, #24
 8002870:	4604      	mov	r4, r0
 8002872:	d51f      	bpl.n	80028b4 <HAL_UART_DMAStop+0x54>
 8002874:	2b21      	cmp	r3, #33	@ 0x21
 8002876:	d11d      	bne.n	80028b4 <HAL_UART_DMAStop+0x54>
 8002878:	f102 0308 	add.w	r3, r2, #8
 800287c:	e853 3f00 	ldrex	r3, [r3]
 8002880:	f023 0380 	bic.w	r3, r3, #128	@ 0x80
 8002884:	f102 0008 	add.w	r0, r2, #8
 8002888:	e840 3100 	strex	r1, r3, [r0]
 800288c:	2900      	cmp	r1, #0
 800288e:	d1f3      	bne.n	8002878 <HAL_UART_DMAStop+0x18>
 8002890:	6fe0      	ldr	r0, [r4, #124]	@ 0x7c
 8002892:	b160      	cbz	r0, 80028ae <HAL_UART_DMAStop+0x4e>
 8002894:	f7ff f8dc 	bl	8001a50 <HAL_DMA_Abort>
 8002898:	b148      	cbz	r0, 80028ae <HAL_UART_DMAStop+0x4e>
 800289a:	6fe0      	ldr	r0, [r4, #124]	@ 0x7c
 800289c:	f7ff f98f 	bl	8001bbe <HAL_DMA_GetError>
 80028a0:	2820      	cmp	r0, #32
 80028a2:	d104      	bne.n	80028ae <HAL_UART_DMAStop+0x4e>
 80028a4:	2310      	movs	r3, #16
 80028a6:	f8c4 3090 	str.w	r3, [r4, #144]	@ 0x90
 80028aa:	2003      	movs	r0, #3
 80028ac:	e009      	b.n	80028c2 <HAL_UART_DMAStop+0x62>
 80028ae:	4620      	mov	r0, r4
 80028b0:	f7ff ff4e 	bl	8002750 <UART_EndTxTransfer>
 80028b4:	6822      	ldr	r2, [r4, #0]
 80028b6:	6893      	ldr	r3, [r2, #8]
 80028b8:	065b      	lsls	r3, r3, #25
 80028ba:	d501      	bpl.n	80028c0 <HAL_UART_DMAStop+0x60>
 80028bc:	2d22      	cmp	r5, #34	@ 0x22
 80028be:	d001      	beq.n	80028c4 <HAL_UART_DMAStop+0x64>
 80028c0:	2000      	movs	r0, #0
 80028c2:	bd38      	pop	{r3, r4, r5, pc}
 80028c4:	f102 0308 	add.w	r3, r2, #8
 80028c8:	e853 3f00 	ldrex	r3, [r3]
 80028cc:	f023 0340 	bic.w	r3, r3, #64	@ 0x40
 80028d0:	f102 0008 	add.w	r0, r2, #8
 80028d4:	e840 3100 	strex	r1, r3, [r0]
 80028d8:	2900      	cmp	r1, #0
 80028da:	d1f3      	bne.n	80028c4 <HAL_UART_DMAStop+0x64>
 80028dc:	f8d4 0080 	ldr.w	r0, [r4, #128]	@ 0x80
 80028e0:	b140      	cbz	r0, 80028f4 <HAL_UART_DMAStop+0x94>
 80028e2:	f7ff f8b5 	bl	8001a50 <HAL_DMA_Abort>
 80028e6:	b128      	cbz	r0, 80028f4 <HAL_UART_DMAStop+0x94>
 80028e8:	f8d4 0080 	ldr.w	r0, [r4, #128]	@ 0x80
 80028ec:	f7ff f967 	bl	8001bbe <HAL_DMA_GetError>
 80028f0:	2820      	cmp	r0, #32
 80028f2:	d0d7      	beq.n	80028a4 <HAL_UART_DMAStop+0x44>
 80028f4:	4620      	mov	r0, r4
 80028f6:	f7ff ff45 	bl	8002784 <UART_EndRxTransfer>
 80028fa:	e7e1      	b.n	80028c0 <HAL_UART_DMAStop+0x60>

080028fc <HAL_UART_TxCpltCallback>:
 80028fc:	4770      	bx	lr

080028fe <UART_DMATransmitCplt>:
 80028fe:	b508      	push	{r3, lr}
 8002900:	4603      	mov	r3, r0
 8002902:	6a80      	ldr	r0, [r0, #40]	@ 0x28
 8002904:	681b      	ldr	r3, [r3, #0]
 8002906:	681b      	ldr	r3, [r3, #0]
 8002908:	f013 0320 	ands.w	r3, r3, #32
 800290c:	d117      	bne.n	800293e <UART_DMATransmitCplt+0x40>
 800290e:	f8a0 3056 	strh.w	r3, [r0, #86]	@ 0x56
 8002912:	6802      	ldr	r2, [r0, #0]
 8002914:	f102 0308 	add.w	r3, r2, #8
 8002918:	e853 3f00 	ldrex	r3, [r3]
 800291c:	f023 0380 	bic.w	r3, r3, #128	@ 0x80
 8002920:	3208      	adds	r2, #8
 8002922:	e842 3100 	strex	r1, r3, [r2]
 8002926:	6802      	ldr	r2, [r0, #0]
 8002928:	2900      	cmp	r1, #0
 800292a:	d1f2      	bne.n	8002912 <UART_DMATransmitCplt+0x14>
 800292c:	e852 3f00 	ldrex	r3, [r2]
 8002930:	f043 0340 	orr.w	r3, r3, #64	@ 0x40
 8002934:	e842 3100 	strex	r1, r3, [r2]
 8002938:	2900      	cmp	r1, #0
 800293a:	d1f7      	bne.n	800292c <UART_DMATransmitCplt+0x2e>
 800293c:	bd08      	pop	{r3, pc}
 800293e:	f7ff ffdd 	bl	80028fc <HAL_UART_TxCpltCallback>
 8002942:	e7fb      	b.n	800293c <UART_DMATransmitCplt+0x3e>

08002944 <HAL_UART_TxHalfCpltCallback>:
 8002944:	4770      	bx	lr

08002946 <UART_DMATxHalfCplt>:
 8002946:	b508      	push	{r3, lr}
 8002948:	6a80      	ldr	r0, [r0, #40]	@ 0x28
 800294a:	f7ff fffb 	bl	8002944 <HAL_UART_TxHalfCpltCallback>
 800294e:	bd08      	pop	{r3, pc}

08002950 <HAL_UART_RxCpltCallback>:
 8002950:	4770      	bx	lr

08002952 <HAL_UART_RxHalfCpltCallback>:
 8002952:	4770      	bx	lr

08002954 <HAL_UART_ErrorCallback>:
 8002954:	4770      	bx	lr

08002956 <UART_DMAError>:
 8002956:	6a80      	ldr	r0, [r0, #40]	@ 0x28
 8002958:	b538      	push	{r3, r4, r5, lr}
 800295a:	6804      	ldr	r4, [r0, #0]
 800295c:	f8d0 3088 	ldr.w	r3, [r0, #136]	@ 0x88
 8002960:	f8d0 508c 	ldr.w	r5, [r0, #140]	@ 0x8c
 8002964:	68a2      	ldr	r2, [r4, #8]
 8002966:	0612      	lsls	r2, r2, #24
 8002968:	d506      	bpl.n	8002978 <UART_DMAError+0x22>
 800296a:	2b21      	cmp	r3, #33	@ 0x21
 800296c:	d104      	bne.n	8002978 <UART_DMAError+0x22>
 800296e:	2300      	movs	r3, #0
 8002970:	f8a0 3056 	strh.w	r3, [r0, #86]	@ 0x56
 8002974:	f7ff feec 	bl	8002750 <UART_EndTxTransfer>
 8002978:	68a3      	ldr	r3, [r4, #8]
 800297a:	065b      	lsls	r3, r3, #25
 800297c:	d506      	bpl.n	800298c <UART_DMAError+0x36>
 800297e:	2d22      	cmp	r5, #34	@ 0x22
 8002980:	d104      	bne.n	800298c <UART_DMAError+0x36>
 8002982:	2300      	movs	r3, #0
 8002984:	f8a0 305e 	strh.w	r3, [r0, #94]	@ 0x5e
 8002988:	f7ff fefc 	bl	8002784 <UART_EndRxTransfer>
 800298c:	f8d0 3090 	ldr.w	r3, [r0, #144]	@ 0x90
 8002990:	f043 0310 	orr.w	r3, r3, #16
 8002994:	f8c0 3090 	str.w	r3, [r0, #144]	@ 0x90
 8002998:	f7ff ffdc 	bl	8002954 <HAL_UART_ErrorCallback>
 800299c:	bd38      	pop	{r3, r4, r5, pc}

0800299e <UART_DMAAbortOnError>:
 800299e:	b508      	push	{r3, lr}
 80029a0:	6a80      	ldr	r0, [r0, #40]	@ 0x28
 80029a2:	2300      	movs	r3, #0
 80029a4:	f8a0 305e 	strh.w	r3, [r0, #94]	@ 0x5e
 80029a8:	f7ff ffd4 	bl	8002954 <HAL_UART_ErrorCallback>
 80029ac:	bd08      	pop	{r3, pc}

080029ae <HAL_UARTEx_RxEventCallback>:
 80029ae:	4770      	bx	lr

080029b0 <HAL_UART_IRQHandler>:
 80029b0:	6803      	ldr	r3, [r0, #0]
 80029b2:	69d9      	ldr	r1, [r3, #28]
 80029b4:	681a      	ldr	r2, [r3, #0]
 80029b6:	e92d 41f0 	stmdb	sp!, {r4, r5, r6, r7, r8, lr}
 80029ba:	f640 060f 	movw	r6, #2063	@ 0x80f
 80029be:	4231      	tst	r1, r6
 80029c0:	689d      	ldr	r5, [r3, #8]
 80029c2:	4604      	mov	r4, r0
 80029c4:	d110      	bne.n	80029e8 <HAL_UART_IRQHandler+0x38>
 80029c6:	068e      	lsls	r6, r1, #26
 80029c8:	f140 8097 	bpl.w	8002afa <HAL_UART_IRQHandler+0x14a>
 80029cc:	f002 0620 	and.w	r6, r2, #32
 80029d0:	f005 5780 	and.w	r7, r5, #268435456	@ 0x10000000
 80029d4:	433e      	orrs	r6, r7
 80029d6:	f000 8090 	beq.w	8002afa <HAL_UART_IRQHandler+0x14a>
 80029da:	6f43      	ldr	r3, [r0, #116]	@ 0x74
 80029dc:	2b00      	cmp	r3, #0
 80029de:	f000 8085 	beq.w	8002aec <HAL_UART_IRQHandler+0x13c>
 80029e2:	e8bd 41f0 	ldmia.w	sp!, {r4, r5, r6, r7, r8, lr}
 80029e6:	4718      	bx	r3
 80029e8:	4ea8      	ldr	r6, [pc, #672]	@ (8002c8c <HAL_UART_IRQHandler+0x2dc>)
 80029ea:	48a9      	ldr	r0, [pc, #676]	@ (8002c90 <HAL_UART_IRQHandler+0x2e0>)
 80029ec:	402e      	ands	r6, r5
 80029ee:	4010      	ands	r0, r2
 80029f0:	4330      	orrs	r0, r6
 80029f2:	f000 8082 	beq.w	8002afa <HAL_UART_IRQHandler+0x14a>
 80029f6:	07cf      	lsls	r7, r1, #31
 80029f8:	d509      	bpl.n	8002a0e <HAL_UART_IRQHandler+0x5e>
 80029fa:	05d0      	lsls	r0, r2, #23
 80029fc:	d507      	bpl.n	8002a0e <HAL_UART_IRQHandler+0x5e>
 80029fe:	2001      	movs	r0, #1
 8002a00:	6218      	str	r0, [r3, #32]
 8002a02:	f8d4 0090 	ldr.w	r0, [r4, #144]	@ 0x90
 8002a06:	f040 0001 	orr.w	r0, r0, #1
 8002a0a:	f8c4 0090 	str.w	r0, [r4, #144]	@ 0x90
 8002a0e:	078f      	lsls	r7, r1, #30
 8002a10:	d509      	bpl.n	8002a26 <HAL_UART_IRQHandler+0x76>
 8002a12:	07e8      	lsls	r0, r5, #31
 8002a14:	d507      	bpl.n	8002a26 <HAL_UART_IRQHandler+0x76>
 8002a16:	2002      	movs	r0, #2
 8002a18:	6218      	str	r0, [r3, #32]
 8002a1a:	f8d4 0090 	ldr.w	r0, [r4, #144]	@ 0x90
 8002a1e:	f040 0004 	orr.w	r0, r0, #4
 8002a22:	f8c4 0090 	str.w	r0, [r4, #144]	@ 0x90
 8002a26:	074f      	lsls	r7, r1, #29
 8002a28:	d509      	bpl.n	8002a3e <HAL_UART_IRQHandler+0x8e>
 8002a2a:	07e8      	lsls	r0, r5, #31
 8002a2c:	d507      	bpl.n	8002a3e <HAL_UART_IRQHandler+0x8e>
 8002a2e:	2004      	movs	r0, #4
 8002a30:	6218      	str	r0, [r3, #32]
 8002a32:	f8d4 0090 	ldr.w	r0, [r4, #144]	@ 0x90
 8002a36:	f040 0002 	orr.w	r0, r0, #2
 8002a3a:	f8c4 0090 	str.w	r0, [r4, #144]	@ 0x90
 8002a3e:	070f      	lsls	r7, r1, #28
 8002a40:	d50b      	bpl.n	8002a5a <HAL_UART_IRQHandler+0xaa>
 8002a42:	f002 0020 	and.w	r0, r2, #32
 8002a46:	4330      	orrs	r0, r6
 8002a48:	d007      	beq.n	8002a5a <HAL_UART_IRQHandler+0xaa>
 8002a4a:	2008      	movs	r0, #8
 8002a4c:	6218      	str	r0, [r3, #32]
 8002a4e:	f8d4 0090 	ldr.w	r0, [r4, #144]	@ 0x90
 8002a52:	f040 0008 	orr.w	r0, r0, #8
 8002a56:	f8c4 0090 	str.w	r0, [r4, #144]	@ 0x90
 8002a5a:	050e      	lsls	r6, r1, #20
 8002a5c:	d50a      	bpl.n	8002a74 <HAL_UART_IRQHandler+0xc4>
 8002a5e:	0150      	lsls	r0, r2, #5
 8002a60:	d508      	bpl.n	8002a74 <HAL_UART_IRQHandler+0xc4>
 8002a62:	f44f 6000 	mov.w	r0, #2048	@ 0x800
 8002a66:	6218      	str	r0, [r3, #32]
 8002a68:	f8d4 3090 	ldr.w	r3, [r4, #144]	@ 0x90
 8002a6c:	f043 0320 	orr.w	r3, r3, #32
 8002a70:	f8c4 3090 	str.w	r3, [r4, #144]	@ 0x90
 8002a74:	f8d4 3090 	ldr.w	r3, [r4, #144]	@ 0x90
 8002a78:	2b00      	cmp	r3, #0
 8002a7a:	d037      	beq.n	8002aec <HAL_UART_IRQHandler+0x13c>
 8002a7c:	068b      	lsls	r3, r1, #26
 8002a7e:	d509      	bpl.n	8002a94 <HAL_UART_IRQHandler+0xe4>
 8002a80:	f002 0220 	and.w	r2, r2, #32
 8002a84:	f005 5580 	and.w	r5, r5, #268435456	@ 0x10000000
 8002a88:	432a      	orrs	r2, r5
 8002a8a:	d003      	beq.n	8002a94 <HAL_UART_IRQHandler+0xe4>
 8002a8c:	6f63      	ldr	r3, [r4, #116]	@ 0x74
 8002a8e:	b10b      	cbz	r3, 8002a94 <HAL_UART_IRQHandler+0xe4>
 8002a90:	4620      	mov	r0, r4
 8002a92:	4798      	blx	r3
 8002a94:	6826      	ldr	r6, [r4, #0]
 8002a96:	f8d4 2090 	ldr.w	r2, [r4, #144]	@ 0x90
 8002a9a:	68b3      	ldr	r3, [r6, #8]
 8002a9c:	f002 0228 	and.w	r2, r2, #40	@ 0x28
 8002aa0:	f003 0340 	and.w	r3, r3, #64	@ 0x40
 8002aa4:	ea53 0502 	orrs.w	r5, r3, r2
 8002aa8:	4620      	mov	r0, r4
 8002aaa:	d021      	beq.n	8002af0 <HAL_UART_IRQHandler+0x140>
 8002aac:	f7ff fe6a 	bl	8002784 <UART_EndRxTransfer>
 8002ab0:	68b3      	ldr	r3, [r6, #8]
 8002ab2:	065f      	lsls	r7, r3, #25
 8002ab4:	d517      	bpl.n	8002ae6 <HAL_UART_IRQHandler+0x136>
 8002ab6:	6822      	ldr	r2, [r4, #0]
 8002ab8:	f102 0308 	add.w	r3, r2, #8
 8002abc:	e853 3f00 	ldrex	r3, [r3]
 8002ac0:	f023 0340 	bic.w	r3, r3, #64	@ 0x40
 8002ac4:	3208      	adds	r2, #8
 8002ac6:	e842 3100 	strex	r1, r3, [r2]
 8002aca:	2900      	cmp	r1, #0
 8002acc:	d1f3      	bne.n	8002ab6 <HAL_UART_IRQHandler+0x106>
 8002ace:	f8d4 0080 	ldr.w	r0, [r4, #128]	@ 0x80
 8002ad2:	b140      	cbz	r0, 8002ae6 <HAL_UART_IRQHandler+0x136>
 8002ad4:	4b6f      	ldr	r3, [pc, #444]	@ (8002c94 <HAL_UART_IRQHandler+0x2e4>)
 8002ad6:	6383      	str	r3, [r0, #56]	@ 0x38
 8002ad8:	f7fe ffec 	bl	8001ab4 <HAL_DMA_Abort_IT>
 8002adc:	b130      	cbz	r0, 8002aec <HAL_UART_IRQHandler+0x13c>
 8002ade:	f8d4 0080 	ldr.w	r0, [r4, #128]	@ 0x80
 8002ae2:	6b83      	ldr	r3, [r0, #56]	@ 0x38
 8002ae4:	e77d      	b.n	80029e2 <HAL_UART_IRQHandler+0x32>
 8002ae6:	4620      	mov	r0, r4
 8002ae8:	f7ff ff34 	bl	8002954 <HAL_UART_ErrorCallback>
 8002aec:	e8bd 81f0 	ldmia.w	sp!, {r4, r5, r6, r7, r8, pc}
 8002af0:	f7ff ff30 	bl	8002954 <HAL_UART_ErrorCallback>
 8002af4:	f8c4 5090 	str.w	r5, [r4, #144]	@ 0x90
 8002af8:	e7f8      	b.n	8002aec <HAL_UART_IRQHandler+0x13c>
 8002afa:	6ee0      	ldr	r0, [r4, #108]	@ 0x6c
 8002afc:	2801      	cmp	r0, #1
 8002afe:	f040 808d 	bne.w	8002c1c <HAL_UART_IRQHandler+0x26c>
 8002b02:	06ce      	lsls	r6, r1, #27
 8002b04:	f140 808a 	bpl.w	8002c1c <HAL_UART_IRQHandler+0x26c>
 8002b08:	06d0      	lsls	r0, r2, #27
 8002b0a:	f140 8087 	bpl.w	8002c1c <HAL_UART_IRQHandler+0x26c>
 8002b0e:	2210      	movs	r2, #16
 8002b10:	621a      	str	r2, [r3, #32]
 8002b12:	6899      	ldr	r1, [r3, #8]
 8002b14:	f8b4 205c 	ldrh.w	r2, [r4, #92]	@ 0x5c
 8002b18:	0649      	lsls	r1, r1, #25
 8002b1a:	d551      	bpl.n	8002bc0 <HAL_UART_IRQHandler+0x210>
 8002b1c:	f8d4 1080 	ldr.w	r1, [r4, #128]	@ 0x80
 8002b20:	6808      	ldr	r0, [r1, #0]
 8002b22:	6841      	ldr	r1, [r0, #4]
 8002b24:	b289      	uxth	r1, r1
 8002b26:	2900      	cmp	r1, #0
 8002b28:	d042      	beq.n	8002bb0 <HAL_UART_IRQHandler+0x200>
 8002b2a:	4291      	cmp	r1, r2
 8002b2c:	d240      	bcs.n	8002bb0 <HAL_UART_IRQHandler+0x200>
 8002b2e:	f8a4 105e 	strh.w	r1, [r4, #94]	@ 0x5e
 8002b32:	6802      	ldr	r2, [r0, #0]
 8002b34:	0692      	lsls	r2, r2, #26
 8002b36:	d42f      	bmi.n	8002b98 <HAL_UART_IRQHandler+0x1e8>
 8002b38:	e853 2f00 	ldrex	r2, [r3]
 8002b3c:	f422 7280 	bic.w	r2, r2, #256	@ 0x100
 8002b40:	e843 2100 	strex	r1, r2, [r3]
 8002b44:	2900      	cmp	r1, #0
 8002b46:	d1f7      	bne.n	8002b38 <HAL_UART_IRQHandler+0x188>
 8002b48:	f103 0208 	add.w	r2, r3, #8
 8002b4c:	e852 2f00 	ldrex	r2, [r2]
 8002b50:	f022 0201 	bic.w	r2, r2, #1
 8002b54:	f103 0008 	add.w	r0, r3, #8
 8002b58:	e840 2100 	strex	r1, r2, [r0]
 8002b5c:	2900      	cmp	r1, #0
 8002b5e:	d1f3      	bne.n	8002b48 <HAL_UART_IRQHandler+0x198>
 8002b60:	f103 0208 	add.w	r2, r3, #8
 8002b64:	e852 2f00 	ldrex	r2, [r2]
 8002b68:	f022 0240 	bic.w	r2, r2, #64	@ 0x40
 8002b6c:	f103 0008 	add.w	r0, r3, #8
 8002b70:	e840 2100 	strex	r1, r2, [r0]
 8002b74:	2900      	cmp	r1, #0
 8002b76:	d1f3      	bne.n	8002b60 <HAL_UART_IRQHandler+0x1b0>
 8002b78:	2220      	movs	r2, #32
 8002b7a:	f8c4 208c 	str.w	r2, [r4, #140]	@ 0x8c
 8002b7e:	66e1      	str	r1, [r4, #108]	@ 0x6c
 8002b80:	e853 2f00 	ldrex	r2, [r3]
 8002b84:	f022 0210 	bic.w	r2, r2, #16
 8002b88:	e843 2100 	strex	r1, r2, [r3]
 8002b8c:	2900      	cmp	r1, #0
 8002b8e:	d1f7      	bne.n	8002b80 <HAL_UART_IRQHandler+0x1d0>
 8002b90:	f8d4 0080 	ldr.w	r0, [r4, #128]	@ 0x80
 8002b94:	f7fe ff5c 	bl	8001a50 <HAL_DMA_Abort>
 8002b98:	2302      	movs	r3, #2
 8002b9a:	6723      	str	r3, [r4, #112]	@ 0x70
 8002b9c:	f8b4 305e 	ldrh.w	r3, [r4, #94]	@ 0x5e
 8002ba0:	f8b4 105c 	ldrh.w	r1, [r4, #92]	@ 0x5c
 8002ba4:	1ac9      	subs	r1, r1, r3
 8002ba6:	b289      	uxth	r1, r1
 8002ba8:	4620      	mov	r0, r4
 8002baa:	f7ff ff00 	bl	80029ae <HAL_UARTEx_RxEventCallback>
 8002bae:	e79d      	b.n	8002aec <HAL_UART_IRQHandler+0x13c>
 8002bb0:	4291      	cmp	r1, r2
 8002bb2:	d19b      	bne.n	8002aec <HAL_UART_IRQHandler+0x13c>
 8002bb4:	6803      	ldr	r3, [r0, #0]
 8002bb6:	069b      	lsls	r3, r3, #26
 8002bb8:	d598      	bpl.n	8002aec <HAL_UART_IRQHandler+0x13c>
 8002bba:	2302      	movs	r3, #2
 8002bbc:	6723      	str	r3, [r4, #112]	@ 0x70
 8002bbe:	e7f3      	b.n	8002ba8 <HAL_UART_IRQHandler+0x1f8>
 8002bc0:	f8b4 105e 	ldrh.w	r1, [r4, #94]	@ 0x5e
 8002bc4:	f8b4 005e 	ldrh.w	r0, [r4, #94]	@ 0x5e
 8002bc8:	b280      	uxth	r0, r0
 8002bca:	b289      	uxth	r1, r1
 8002bcc:	2800      	cmp	r0, #0
 8002bce:	d08d      	beq.n	8002aec <HAL_UART_IRQHandler+0x13c>
 8002bd0:	1a52      	subs	r2, r2, r1
 8002bd2:	b291      	uxth	r1, r2
 8002bd4:	2900      	cmp	r1, #0
 8002bd6:	d089      	beq.n	8002aec <HAL_UART_IRQHandler+0x13c>
 8002bd8:	e853 2f00 	ldrex	r2, [r3]
 8002bdc:	f422 7290 	bic.w	r2, r2, #288	@ 0x120
 8002be0:	e843 2000 	strex	r0, r2, [r3]
 8002be4:	2800      	cmp	r0, #0
 8002be6:	d1f7      	bne.n	8002bd8 <HAL_UART_IRQHandler+0x228>
 8002be8:	4d2b      	ldr	r5, [pc, #172]	@ (8002c98 <HAL_UART_IRQHandler+0x2e8>)
 8002bea:	f103 0208 	add.w	r2, r3, #8
 8002bee:	e852 2f00 	ldrex	r2, [r2]
 8002bf2:	402a      	ands	r2, r5
 8002bf4:	f103 0608 	add.w	r6, r3, #8
 8002bf8:	e846 2000 	strex	r0, r2, [r6]
 8002bfc:	2800      	cmp	r0, #0
 8002bfe:	d1f4      	bne.n	8002bea <HAL_UART_IRQHandler+0x23a>
 8002c00:	2220      	movs	r2, #32
 8002c02:	f8c4 208c 	str.w	r2, [r4, #140]	@ 0x8c
 8002c06:	6760      	str	r0, [r4, #116]	@ 0x74
 8002c08:	66e0      	str	r0, [r4, #108]	@ 0x6c
 8002c0a:	e853 2f00 	ldrex	r2, [r3]
 8002c0e:	f022 0210 	bic.w	r2, r2, #16
 8002c12:	e843 2000 	strex	r0, r2, [r3]
 8002c16:	2800      	cmp	r0, #0
 8002c18:	d1f7      	bne.n	8002c0a <HAL_UART_IRQHandler+0x25a>
 8002c1a:	e7ce      	b.n	8002bba <HAL_UART_IRQHandler+0x20a>
 8002c1c:	02cf      	lsls	r7, r1, #11
 8002c1e:	d509      	bpl.n	8002c34 <HAL_UART_IRQHandler+0x284>
 8002c20:	026e      	lsls	r6, r5, #9
 8002c22:	d507      	bpl.n	8002c34 <HAL_UART_IRQHandler+0x284>
 8002c24:	f44f 1280 	mov.w	r2, #1048576	@ 0x100000
 8002c28:	4620      	mov	r0, r4
 8002c2a:	621a      	str	r2, [r3, #32]
 8002c2c:	e8bd 41f0 	ldmia.w	sp!, {r4, r5, r6, r7, r8, lr}
 8002c30:	f000 bb72 	b.w	8003318 <HAL_UARTEx_WakeupCallback>
 8002c34:	0608      	lsls	r0, r1, #24
 8002c36:	d50b      	bpl.n	8002c50 <HAL_UART_IRQHandler+0x2a0>
 8002c38:	f002 0080 	and.w	r0, r2, #128	@ 0x80
 8002c3c:	f405 0500 	and.w	r5, r5, #8388608	@ 0x800000
 8002c40:	4328      	orrs	r0, r5
 8002c42:	d005      	beq.n	8002c50 <HAL_UART_IRQHandler+0x2a0>
 8002c44:	6fa3      	ldr	r3, [r4, #120]	@ 0x78
 8002c46:	2b00      	cmp	r3, #0
 8002c48:	f43f af50 	beq.w	8002aec <HAL_UART_IRQHandler+0x13c>
 8002c4c:	4620      	mov	r0, r4
 8002c4e:	e6c8      	b.n	80029e2 <HAL_UART_IRQHandler+0x32>
 8002c50:	064f      	lsls	r7, r1, #25
 8002c52:	d511      	bpl.n	8002c78 <HAL_UART_IRQHandler+0x2c8>
 8002c54:	0656      	lsls	r6, r2, #25
 8002c56:	d50f      	bpl.n	8002c78 <HAL_UART_IRQHandler+0x2c8>
 8002c58:	e853 2f00 	ldrex	r2, [r3]
 8002c5c:	f022 0240 	bic.w	r2, r2, #64	@ 0x40
 8002c60:	e843 2100 	strex	r1, r2, [r3]
 8002c64:	2900      	cmp	r1, #0
 8002c66:	d1f7      	bne.n	8002c58 <HAL_UART_IRQHandler+0x2a8>
 8002c68:	2320      	movs	r3, #32
 8002c6a:	f8c4 3088 	str.w	r3, [r4, #136]	@ 0x88
 8002c6e:	67a1      	str	r1, [r4, #120]	@ 0x78
 8002c70:	4620      	mov	r0, r4
 8002c72:	f7ff fe43 	bl	80028fc <HAL_UART_TxCpltCallback>
 8002c76:	e739      	b.n	8002aec <HAL_UART_IRQHandler+0x13c>
 8002c78:	020d      	lsls	r5, r1, #8
 8002c7a:	d50f      	bpl.n	8002c9c <HAL_UART_IRQHandler+0x2ec>
 8002c7c:	0050      	lsls	r0, r2, #1
 8002c7e:	d50d      	bpl.n	8002c9c <HAL_UART_IRQHandler+0x2ec>
 8002c80:	4620      	mov	r0, r4
 8002c82:	e8bd 41f0 	ldmia.w	sp!, {r4, r5, r6, r7, r8, lr}
 8002c86:	f000 bb49 	b.w	800331c <HAL_UARTEx_TxFifoEmptyCallback>
 8002c8a:	bf00      	nop
 8002c8c:	10000001 	.word	0x10000001
 8002c90:	04000120 	.word	0x04000120
 8002c94:	0800299f 	.word	0x0800299f
 8002c98:	effffffe 	.word	0xeffffffe
 8002c9c:	01cb      	lsls	r3, r1, #7
 8002c9e:	f57f af25 	bpl.w	8002aec <HAL_UART_IRQHandler+0x13c>
 8002ca2:	2a00      	cmp	r2, #0
 8002ca4:	f6bf af22 	bge.w	8002aec <HAL_UART_IRQHandler+0x13c>
 8002ca8:	4620      	mov	r0, r4
 8002caa:	e8bd 41f0 	ldmia.w	sp!, {r4, r5, r6, r7, r8, lr}
 8002cae:	f000 bb34 	b.w	800331a <HAL_UARTEx_RxFifoFullCallback>
 8002cb2:	bf00      	nop

08002cb4 <UART_DMARxHalfCplt>:
 8002cb4:	6a80      	ldr	r0, [r0, #40]	@ 0x28
 8002cb6:	b508      	push	{r3, lr}
 8002cb8:	2301      	movs	r3, #1
 8002cba:	6703      	str	r3, [r0, #112]	@ 0x70
 8002cbc:	6ec3      	ldr	r3, [r0, #108]	@ 0x6c
 8002cbe:	2b01      	cmp	r3, #1
 8002cc0:	d105      	bne.n	8002cce <UART_DMARxHalfCplt+0x1a>
 8002cc2:	f8b0 105c 	ldrh.w	r1, [r0, #92]	@ 0x5c
 8002cc6:	0849      	lsrs	r1, r1, #1
 8002cc8:	f7ff fe71 	bl	80029ae <HAL_UARTEx_RxEventCallback>
 8002ccc:	bd08      	pop	{r3, pc}
 8002cce:	f7ff fe40 	bl	8002952 <HAL_UART_RxHalfCpltCallback>
 8002cd2:	e7fb      	b.n	8002ccc <UART_DMARxHalfCplt+0x18>

08002cd4 <UART_DMAReceiveCplt>:
 8002cd4:	b508      	push	{r3, lr}
 8002cd6:	4603      	mov	r3, r0
 8002cd8:	6a80      	ldr	r0, [r0, #40]	@ 0x28
 8002cda:	681b      	ldr	r3, [r3, #0]
 8002cdc:	681b      	ldr	r3, [r3, #0]
 8002cde:	f013 0320 	ands.w	r3, r3, #32
 8002ce2:	d131      	bne.n	8002d48 <UART_DMAReceiveCplt+0x74>
 8002ce4:	f8a0 305e 	strh.w	r3, [r0, #94]	@ 0x5e
 8002ce8:	6802      	ldr	r2, [r0, #0]
 8002cea:	e852 3f00 	ldrex	r3, [r2]
 8002cee:	f423 7380 	bic.w	r3, r3, #256	@ 0x100
 8002cf2:	e842 3100 	strex	r1, r3, [r2]
 8002cf6:	6803      	ldr	r3, [r0, #0]
 8002cf8:	2900      	cmp	r1, #0
 8002cfa:	d1f5      	bne.n	8002ce8 <UART_DMAReceiveCplt+0x14>
 8002cfc:	f103 0208 	add.w	r2, r3, #8
 8002d00:	e852 2f00 	ldrex	r2, [r2]
 8002d04:	f022 0201 	bic.w	r2, r2, #1
 8002d08:	f103 0c08 	add.w	ip, r3, #8
 8002d0c:	e84c 2100 	strex	r1, r2, [ip]
 8002d10:	2900      	cmp	r1, #0
 8002d12:	d1f3      	bne.n	8002cfc <UART_DMAReceiveCplt+0x28>
 8002d14:	f103 0208 	add.w	r2, r3, #8
 8002d18:	e852 2f00 	ldrex	r2, [r2]
 8002d1c:	f022 0240 	bic.w	r2, r2, #64	@ 0x40
 8002d20:	f103 0c08 	add.w	ip, r3, #8
 8002d24:	e84c 2100 	strex	r1, r2, [ip]
 8002d28:	2900      	cmp	r1, #0
 8002d2a:	d1f3      	bne.n	8002d14 <UART_DMAReceiveCplt+0x40>
 8002d2c:	2220      	movs	r2, #32
 8002d2e:	f8c0 208c 	str.w	r2, [r0, #140]	@ 0x8c
 8002d32:	6ec2      	ldr	r2, [r0, #108]	@ 0x6c
 8002d34:	2a01      	cmp	r2, #1
 8002d36:	d107      	bne.n	8002d48 <UART_DMAReceiveCplt+0x74>
 8002d38:	e853 2f00 	ldrex	r2, [r3]
 8002d3c:	f022 0210 	bic.w	r2, r2, #16
 8002d40:	e843 2100 	strex	r1, r2, [r3]
 8002d44:	2900      	cmp	r1, #0
 8002d46:	d1f7      	bne.n	8002d38 <UART_DMAReceiveCplt+0x64>
 8002d48:	2300      	movs	r3, #0
 8002d4a:	6703      	str	r3, [r0, #112]	@ 0x70
 8002d4c:	6ec3      	ldr	r3, [r0, #108]	@ 0x6c
 8002d4e:	2b01      	cmp	r3, #1
 8002d50:	d104      	bne.n	8002d5c <UART_DMAReceiveCplt+0x88>
 8002d52:	f8b0 105c 	ldrh.w	r1, [r0, #92]	@ 0x5c
 8002d56:	f7ff fe2a 	bl	80029ae <HAL_UARTEx_RxEventCallback>
 8002d5a:	bd08      	pop	{r3, pc}
 8002d5c:	f7ff fdf8 	bl	8002950 <HAL_UART_RxCpltCallback>
 8002d60:	e7fb      	b.n	8002d5a <UART_DMAReceiveCplt+0x86>

08002d62 <HAL_UART_GetState>:
 8002d62:	f8d0 2088 	ldr.w	r2, [r0, #136]	@ 0x88
 8002d66:	f8d0 008c 	ldr.w	r0, [r0, #140]	@ 0x8c
 8002d6a:	4310      	orrs	r0, r2
 8002d6c:	4770      	bx	lr
	...

08002d70 <UART_SetConfig>:
 8002d70:	b538      	push	{r3, r4, r5, lr}
 8002d72:	4604      	mov	r4, r0
 8002d74:	69c0      	ldr	r0, [r0, #28]
 8002d76:	6921      	ldr	r1, [r4, #16]
 8002d78:	68a2      	ldr	r2, [r4, #8]
 8002d7a:	6823      	ldr	r3, [r4, #0]
 8002d7c:	430a      	orrs	r2, r1
 8002d7e:	6961      	ldr	r1, [r4, #20]
 8002d80:	681d      	ldr	r5, [r3, #0]
 8002d82:	430a      	orrs	r2, r1
 8002d84:	497c      	ldr	r1, [pc, #496]	@ (8002f78 <UART_SetConfig+0x208>)
 8002d86:	4302      	orrs	r2, r0
 8002d88:	4029      	ands	r1, r5
 8002d8a:	430a      	orrs	r2, r1
 8002d8c:	601a      	str	r2, [r3, #0]
 8002d8e:	685a      	ldr	r2, [r3, #4]
 8002d90:	68e1      	ldr	r1, [r4, #12]
 8002d92:	f422 5240 	bic.w	r2, r2, #12288	@ 0x3000
 8002d96:	430a      	orrs	r2, r1
 8002d98:	605a      	str	r2, [r3, #4]
 8002d9a:	4a78      	ldr	r2, [pc, #480]	@ (8002f7c <UART_SetConfig+0x20c>)
 8002d9c:	69a1      	ldr	r1, [r4, #24]
 8002d9e:	4293      	cmp	r3, r2
 8002da0:	bf1c      	itt	ne
 8002da2:	6a22      	ldrne	r2, [r4, #32]
 8002da4:	4311      	orrne	r1, r2
 8002da6:	689a      	ldr	r2, [r3, #8]
 8002da8:	f022 426e 	bic.w	r2, r2, #3992977408	@ 0xee000000
 8002dac:	f422 6230 	bic.w	r2, r2, #2816	@ 0xb00
 8002db0:	430a      	orrs	r2, r1
 8002db2:	609a      	str	r2, [r3, #8]
 8002db4:	6ada      	ldr	r2, [r3, #44]	@ 0x2c
 8002db6:	6a61      	ldr	r1, [r4, #36]	@ 0x24
 8002db8:	f022 020f 	bic.w	r2, r2, #15
 8002dbc:	430a      	orrs	r2, r1
 8002dbe:	62da      	str	r2, [r3, #44]	@ 0x2c
 8002dc0:	4a6f      	ldr	r2, [pc, #444]	@ (8002f80 <UART_SetConfig+0x210>)
 8002dc2:	4293      	cmp	r3, r2
 8002dc4:	d130      	bne.n	8002e28 <UART_SetConfig+0xb8>
 8002dc6:	4b6f      	ldr	r3, [pc, #444]	@ (8002f84 <UART_SetConfig+0x214>)
 8002dc8:	f8d3 3088 	ldr.w	r3, [r3, #136]	@ 0x88
 8002dcc:	f003 0303 	and.w	r3, r3, #3
 8002dd0:	2b02      	cmp	r3, #2
 8002dd2:	f000 80cc 	beq.w	8002f6e <UART_SetConfig+0x1fe>
 8002dd6:	2b03      	cmp	r3, #3
 8002dd8:	f000 80b9 	beq.w	8002f4e <UART_SetConfig+0x1de>
 8002ddc:	2b01      	cmp	r3, #1
 8002dde:	f000 80bd 	beq.w	8002f5c <UART_SetConfig+0x1ec>
 8002de2:	f5b0 4f00 	cmp.w	r0, #32768	@ 0x8000
 8002de6:	f040 80bf 	bne.w	8002f68 <UART_SetConfig+0x1f8>
 8002dea:	f7ff fb63 	bl	80024b4 <HAL_RCC_GetPCLK2Freq>
 8002dee:	2800      	cmp	r0, #0
 8002df0:	d066      	beq.n	8002ec0 <UART_SetConfig+0x150>
 8002df2:	6861      	ldr	r1, [r4, #4]
 8002df4:	4b64      	ldr	r3, [pc, #400]	@ (8002f88 <UART_SetConfig+0x218>)
 8002df6:	6a62      	ldr	r2, [r4, #36]	@ 0x24
 8002df8:	f833 2012 	ldrh.w	r2, [r3, r2, lsl #1]
 8002dfc:	fbb0 f2f2 	udiv	r2, r0, r2
 8002e00:	084b      	lsrs	r3, r1, #1
 8002e02:	eb03 0342 	add.w	r3, r3, r2, lsl #1
 8002e06:	f64f 72ef 	movw	r2, #65519	@ 0xffef
 8002e0a:	fbb3 f3f1 	udiv	r3, r3, r1
 8002e0e:	f1a3 0110 	sub.w	r1, r3, #16
 8002e12:	4291      	cmp	r1, r2
 8002e14:	d81f      	bhi.n	8002e56 <UART_SetConfig+0xe6>
 8002e16:	f023 020f 	bic.w	r2, r3, #15
 8002e1a:	6821      	ldr	r1, [r4, #0]
 8002e1c:	b292      	uxth	r2, r2
 8002e1e:	f3c3 0342 	ubfx	r3, r3, #1, #3
 8002e22:	4313      	orrs	r3, r2
 8002e24:	60cb      	str	r3, [r1, #12]
 8002e26:	e04b      	b.n	8002ec0 <UART_SetConfig+0x150>
 8002e28:	4a58      	ldr	r2, [pc, #352]	@ (8002f8c <UART_SetConfig+0x21c>)
 8002e2a:	4293      	cmp	r3, r2
 8002e2c:	d115      	bne.n	8002e5a <UART_SetConfig+0xea>
 8002e2e:	4b55      	ldr	r3, [pc, #340]	@ (8002f84 <UART_SetConfig+0x214>)
 8002e30:	f8d3 3088 	ldr.w	r3, [r3, #136]	@ 0x88
 8002e34:	f003 030c 	and.w	r3, r3, #12
 8002e38:	2b08      	cmp	r3, #8
 8002e3a:	f000 8098 	beq.w	8002f6e <UART_SetConfig+0x1fe>
 8002e3e:	d808      	bhi.n	8002e52 <UART_SetConfig+0xe2>
 8002e40:	2b00      	cmp	r3, #0
 8002e42:	f040 808b 	bne.w	8002f5c <UART_SetConfig+0x1ec>
 8002e46:	f5b0 4f00 	cmp.w	r0, #32768	@ 0x8000
 8002e4a:	d169      	bne.n	8002f20 <UART_SetConfig+0x1b0>
 8002e4c:	f7ff fb20 	bl	8002490 <HAL_RCC_GetPCLK1Freq>
 8002e50:	e7cd      	b.n	8002dee <UART_SetConfig+0x7e>
 8002e52:	2b0c      	cmp	r3, #12
 8002e54:	d07b      	beq.n	8002f4e <UART_SetConfig+0x1de>
 8002e56:	2001      	movs	r0, #1
 8002e58:	e033      	b.n	8002ec2 <UART_SetConfig+0x152>
 8002e5a:	4a4d      	ldr	r2, [pc, #308]	@ (8002f90 <UART_SetConfig+0x220>)
 8002e5c:	4293      	cmp	r3, r2
 8002e5e:	d109      	bne.n	8002e74 <UART_SetConfig+0x104>
 8002e60:	4b48      	ldr	r3, [pc, #288]	@ (8002f84 <UART_SetConfig+0x214>)
 8002e62:	f8d3 3088 	ldr.w	r3, [r3, #136]	@ 0x88
 8002e66:	f003 0330 	and.w	r3, r3, #48	@ 0x30
 8002e6a:	2b20      	cmp	r3, #32
 8002e6c:	d07f      	beq.n	8002f6e <UART_SetConfig+0x1fe>
 8002e6e:	d9e7      	bls.n	8002e40 <UART_SetConfig+0xd0>
 8002e70:	2b30      	cmp	r3, #48	@ 0x30
 8002e72:	e7ef      	b.n	8002e54 <UART_SetConfig+0xe4>
 8002e74:	4a47      	ldr	r2, [pc, #284]	@ (8002f94 <UART_SetConfig+0x224>)
 8002e76:	4293      	cmp	r3, r2
 8002e78:	d109      	bne.n	8002e8e <UART_SetConfig+0x11e>
 8002e7a:	4b42      	ldr	r3, [pc, #264]	@ (8002f84 <UART_SetConfig+0x214>)
 8002e7c:	f8d3 3088 	ldr.w	r3, [r3, #136]	@ 0x88
 8002e80:	f003 03c0 	and.w	r3, r3, #192	@ 0xc0
 8002e84:	2b80      	cmp	r3, #128	@ 0x80
 8002e86:	d072      	beq.n	8002f6e <UART_SetConfig+0x1fe>
 8002e88:	d9da      	bls.n	8002e40 <UART_SetConfig+0xd0>
 8002e8a:	2bc0      	cmp	r3, #192	@ 0xc0
 8002e8c:	e7e2      	b.n	8002e54 <UART_SetConfig+0xe4>
 8002e8e:	4a3b      	ldr	r2, [pc, #236]	@ (8002f7c <UART_SetConfig+0x20c>)
 8002e90:	4293      	cmp	r3, r2
 8002e92:	d1e0      	bne.n	8002e56 <UART_SetConfig+0xe6>
 8002e94:	4b3b      	ldr	r3, [pc, #236]	@ (8002f84 <UART_SetConfig+0x214>)
 8002e96:	f8d3 3088 	ldr.w	r3, [r3, #136]	@ 0x88
 8002e9a:	f403 6340 	and.w	r3, r3, #3072	@ 0xc00
 8002e9e:	f5b3 6f00 	cmp.w	r3, #2048	@ 0x800
 8002ea2:	d015      	beq.n	8002ed0 <UART_SetConfig+0x160>
 8002ea4:	d803      	bhi.n	8002eae <UART_SetConfig+0x13e>
 8002ea6:	b943      	cbnz	r3, 8002eba <UART_SetConfig+0x14a>
 8002ea8:	f7ff faf2 	bl	8002490 <HAL_RCC_GetPCLK1Freq>
 8002eac:	e007      	b.n	8002ebe <UART_SetConfig+0x14e>
 8002eae:	f5b3 6f40 	cmp.w	r3, #3072	@ 0xc00
 8002eb2:	d1d0      	bne.n	8002e56 <UART_SetConfig+0xe6>
 8002eb4:	f44f 4000 	mov.w	r0, #32768	@ 0x8000
 8002eb8:	e00b      	b.n	8002ed2 <UART_SetConfig+0x162>
 8002eba:	f7ff f9bf 	bl	800223c <HAL_RCC_GetSysClockFreq>
 8002ebe:	b940      	cbnz	r0, 8002ed2 <UART_SetConfig+0x162>
 8002ec0:	2000      	movs	r0, #0
 8002ec2:	f04f 1301 	mov.w	r3, #65537	@ 0x10001
 8002ec6:	66a3      	str	r3, [r4, #104]	@ 0x68
 8002ec8:	2300      	movs	r3, #0
 8002eca:	e9c4 331d 	strd	r3, r3, [r4, #116]	@ 0x74
 8002ece:	bd38      	pop	{r3, r4, r5, pc}
 8002ed0:	4831      	ldr	r0, [pc, #196]	@ (8002f98 <UART_SetConfig+0x228>)
 8002ed2:	6865      	ldr	r5, [r4, #4]
 8002ed4:	4b2c      	ldr	r3, [pc, #176]	@ (8002f88 <UART_SetConfig+0x218>)
 8002ed6:	6a62      	ldr	r2, [r4, #36]	@ 0x24
 8002ed8:	eb05 0145 	add.w	r1, r5, r5, lsl #1
 8002edc:	f833 2012 	ldrh.w	r2, [r3, r2, lsl #1]
 8002ee0:	fbb0 f3f2 	udiv	r3, r0, r2
 8002ee4:	4299      	cmp	r1, r3
 8002ee6:	d8b6      	bhi.n	8002e56 <UART_SetConfig+0xe6>
 8002ee8:	ebb3 3f05 	cmp.w	r3, r5, lsl #12
 8002eec:	d8b3      	bhi.n	8002e56 <UART_SetConfig+0xe6>
 8002eee:	2300      	movs	r3, #0
 8002ef0:	4619      	mov	r1, r3
 8002ef2:	f7fd fef1 	bl	8000cd8 <__aeabi_uldivmod>
 8002ef6:	0209      	lsls	r1, r1, #8
 8002ef8:	ea41 6110 	orr.w	r1, r1, r0, lsr #24
 8002efc:	086b      	lsrs	r3, r5, #1
 8002efe:	0200      	lsls	r0, r0, #8
 8002f00:	18c0      	adds	r0, r0, r3
 8002f02:	462a      	mov	r2, r5
 8002f04:	f04f 0300 	mov.w	r3, #0
 8002f08:	f141 0100 	adc.w	r1, r1, #0
 8002f0c:	f7fd fee4 	bl	8000cd8 <__aeabi_uldivmod>
 8002f10:	4b22      	ldr	r3, [pc, #136]	@ (8002f9c <UART_SetConfig+0x22c>)
 8002f12:	f5a0 7240 	sub.w	r2, r0, #768	@ 0x300
 8002f16:	429a      	cmp	r2, r3
 8002f18:	d89d      	bhi.n	8002e56 <UART_SetConfig+0xe6>
 8002f1a:	6823      	ldr	r3, [r4, #0]
 8002f1c:	60d8      	str	r0, [r3, #12]
 8002f1e:	e7cf      	b.n	8002ec0 <UART_SetConfig+0x150>
 8002f20:	f7ff fab6 	bl	8002490 <HAL_RCC_GetPCLK1Freq>
 8002f24:	2800      	cmp	r0, #0
 8002f26:	d0cb      	beq.n	8002ec0 <UART_SetConfig+0x150>
 8002f28:	6863      	ldr	r3, [r4, #4]
 8002f2a:	6a61      	ldr	r1, [r4, #36]	@ 0x24
 8002f2c:	4a16      	ldr	r2, [pc, #88]	@ (8002f88 <UART_SetConfig+0x218>)
 8002f2e:	f832 2011 	ldrh.w	r2, [r2, r1, lsl #1]
 8002f32:	fbb0 f0f2 	udiv	r0, r0, r2
 8002f36:	eb00 0053 	add.w	r0, r0, r3, lsr #1
 8002f3a:	fbb0 f0f3 	udiv	r0, r0, r3
 8002f3e:	f64f 73ef 	movw	r3, #65519	@ 0xffef
 8002f42:	f1a0 0210 	sub.w	r2, r0, #16
 8002f46:	e7e6      	b.n	8002f16 <UART_SetConfig+0x1a6>
 8002f48:	f7ff f978 	bl	800223c <HAL_RCC_GetSysClockFreq>
 8002f4c:	e7ea      	b.n	8002f24 <UART_SetConfig+0x1b4>
 8002f4e:	f5b0 4f00 	cmp.w	r0, #32768	@ 0x8000
 8002f52:	f43f af4e 	beq.w	8002df2 <UART_SetConfig+0x82>
 8002f56:	f44f 4000 	mov.w	r0, #32768	@ 0x8000
 8002f5a:	e7e5      	b.n	8002f28 <UART_SetConfig+0x1b8>
 8002f5c:	f5b0 4f00 	cmp.w	r0, #32768	@ 0x8000
 8002f60:	d1f2      	bne.n	8002f48 <UART_SetConfig+0x1d8>
 8002f62:	f7ff f96b 	bl	800223c <HAL_RCC_GetSysClockFreq>
 8002f66:	e742      	b.n	8002dee <UART_SetConfig+0x7e>
 8002f68:	f7ff faa4 	bl	80024b4 <HAL_RCC_GetPCLK2Freq>
 8002f6c:	e7da      	b.n	8002f24 <UART_SetConfig+0x1b4>
 8002f6e:	f5b0 4f00 	cmp.w	r0, #32768	@ 0x8000
 8002f72:	4809      	ldr	r0, [pc, #36]	@ (8002f98 <UART_SetConfig+0x228>)
 8002f74:	d1d8      	bne.n	8002f28 <UART_SetConfig+0x1b8>
 8002f76:	e73c      	b.n	8002df2 <UART_SetConfig+0x82>
 8002f78:	cfff69f3 	.word	0xcfff69f3
 8002f7c:	40008000 	.word	0x40008000
 8002f80:	40013800 	.word	0x40013800
 8002f84:	40021000 	.word	0x40021000
 8002f88:	08007ad0 	.word	0x08007ad0
 8002f8c:	40004400 	.word	0x40004400
 8002f90:	40004800 	.word	0x40004800
 8002f94:	40004c00 	.word	0x40004c00
 8002f98:	00f42400 	.word	0x00f42400
 8002f9c:	000ffcff 	.word	0x000ffcff

08002fa0 <UART_AdvFeatureConfig>:
 8002fa0:	6a83      	ldr	r3, [r0, #40]	@ 0x28
 8002fa2:	071a      	lsls	r2, r3, #28
 8002fa4:	b510      	push	{r4, lr}
 8002fa6:	d506      	bpl.n	8002fb6 <UART_AdvFeatureConfig+0x16>
 8002fa8:	6801      	ldr	r1, [r0, #0]
 8002faa:	6b84      	ldr	r4, [r0, #56]	@ 0x38
 8002fac:	684a      	ldr	r2, [r1, #4]
 8002fae:	f422 4200 	bic.w	r2, r2, #32768	@ 0x8000
 8002fb2:	4322      	orrs	r2, r4
 8002fb4:	604a      	str	r2, [r1, #4]
 8002fb6:	07dc      	lsls	r4, r3, #31
 8002fb8:	d506      	bpl.n	8002fc8 <UART_AdvFeatureConfig+0x28>
 8002fba:	6801      	ldr	r1, [r0, #0]
 8002fbc:	6ac4      	ldr	r4, [r0, #44]	@ 0x2c
 8002fbe:	684a      	ldr	r2, [r1, #4]
 8002fc0:	f422 3200 	bic.w	r2, r2, #131072	@ 0x20000
 8002fc4:	4322      	orrs	r2, r4
 8002fc6:	604a      	str	r2, [r1, #4]
 8002fc8:	0799      	lsls	r1, r3, #30
 8002fca:	d506      	bpl.n	8002fda <UART_AdvFeatureConfig+0x3a>
 8002fcc:	6801      	ldr	r1, [r0, #0]
 8002fce:	6b04      	ldr	r4, [r0, #48]	@ 0x30
 8002fd0:	684a      	ldr	r2, [r1, #4]
 8002fd2:	f422 3280 	bic.w	r2, r2, #65536	@ 0x10000
 8002fd6:	4322      	orrs	r2, r4
 8002fd8:	604a      	str	r2, [r1, #4]
 8002fda:	075a      	lsls	r2, r3, #29
 8002fdc:	d506      	bpl.n	8002fec <UART_AdvFeatureConfig+0x4c>
 8002fde:	6801      	ldr	r1, [r0, #0]
 8002fe0:	6b44      	ldr	r4, [r0, #52]	@ 0x34
 8002fe2:	684a      	ldr	r2, [r1, #4]
 8002fe4:	f422 2280 	bic.w	r2, r2, #262144	@ 0x40000
 8002fe8:	4322      	orrs	r2, r4
 8002fea:	604a      	str	r2, [r1, #4]
 8002fec:	06dc      	lsls	r4, r3, #27
 8002fee:	d506      	bpl.n	8002ffe <UART_AdvFeatureConfig+0x5e>
 8002ff0:	6801      	ldr	r1, [r0, #0]
 8002ff2:	6bc4      	ldr	r4, [r0, #60]	@ 0x3c
 8002ff4:	688a      	ldr	r2, [r1, #8]
 8002ff6:	f422 5280 	bic.w	r2, r2, #4096	@ 0x1000
 8002ffa:	4322      	orrs	r2, r4
 8002ffc:	608a      	str	r2, [r1, #8]
 8002ffe:	0699      	lsls	r1, r3, #26
 8003000:	d506      	bpl.n	8003010 <UART_AdvFeatureConfig+0x70>
 8003002:	6801      	ldr	r1, [r0, #0]
 8003004:	6c04      	ldr	r4, [r0, #64]	@ 0x40
 8003006:	688a      	ldr	r2, [r1, #8]
 8003008:	f422 5200 	bic.w	r2, r2, #8192	@ 0x2000
 800300c:	4322      	orrs	r2, r4
 800300e:	608a      	str	r2, [r1, #8]
 8003010:	065a      	lsls	r2, r3, #25
 8003012:	d50f      	bpl.n	8003034 <UART_AdvFeatureConfig+0x94>
 8003014:	6801      	ldr	r1, [r0, #0]
 8003016:	6c44      	ldr	r4, [r0, #68]	@ 0x44
 8003018:	684a      	ldr	r2, [r1, #4]
 800301a:	f422 1280 	bic.w	r2, r2, #1048576	@ 0x100000
 800301e:	4322      	orrs	r2, r4
 8003020:	f5b4 1f80 	cmp.w	r4, #1048576	@ 0x100000
 8003024:	604a      	str	r2, [r1, #4]
 8003026:	d105      	bne.n	8003034 <UART_AdvFeatureConfig+0x94>
 8003028:	684a      	ldr	r2, [r1, #4]
 800302a:	6c84      	ldr	r4, [r0, #72]	@ 0x48
 800302c:	f422 02c0 	bic.w	r2, r2, #6291456	@ 0x600000
 8003030:	4322      	orrs	r2, r4
 8003032:	604a      	str	r2, [r1, #4]
 8003034:	061b      	lsls	r3, r3, #24
 8003036:	d506      	bpl.n	8003046 <UART_AdvFeatureConfig+0xa6>
 8003038:	6802      	ldr	r2, [r0, #0]
 800303a:	6cc1      	ldr	r1, [r0, #76]	@ 0x4c
 800303c:	6853      	ldr	r3, [r2, #4]
 800303e:	f423 2300 	bic.w	r3, r3, #524288	@ 0x80000
 8003042:	430b      	orrs	r3, r1
 8003044:	6053      	str	r3, [r2, #4]
 8003046:	bd10      	pop	{r4, pc}

08003048 <UART_WaitOnFlagUntilTimeout>:
 8003048:	e92d 43f8 	stmdb	sp!, {r3, r4, r5, r6, r7, r8, r9, lr}
 800304c:	f8dd 9020 	ldr.w	r9, [sp, #32]
 8003050:	4604      	mov	r4, r0
 8003052:	460d      	mov	r5, r1
 8003054:	4617      	mov	r7, r2
 8003056:	4698      	mov	r8, r3
 8003058:	6822      	ldr	r2, [r4, #0]
 800305a:	69d3      	ldr	r3, [r2, #28]
 800305c:	ea35 0303 	bics.w	r3, r5, r3
 8003060:	bf0c      	ite	eq
 8003062:	2301      	moveq	r3, #1
 8003064:	2300      	movne	r3, #0
 8003066:	42bb      	cmp	r3, r7
 8003068:	d001      	beq.n	800306e <UART_WaitOnFlagUntilTimeout+0x26>
 800306a:	2000      	movs	r0, #0
 800306c:	e022      	b.n	80030b4 <UART_WaitOnFlagUntilTimeout+0x6c>
 800306e:	f1b9 3fff 	cmp.w	r9, #4294967295
 8003072:	d0f2      	beq.n	800305a <UART_WaitOnFlagUntilTimeout+0x12>
 8003074:	f7fe fb80 	bl	8001778 <HAL_GetTick>
 8003078:	eba0 0008 	sub.w	r0, r0, r8
 800307c:	4548      	cmp	r0, r9
 800307e:	d829      	bhi.n	80030d4 <UART_WaitOnFlagUntilTimeout+0x8c>
 8003080:	f1b9 0f00 	cmp.w	r9, #0
 8003084:	d026      	beq.n	80030d4 <UART_WaitOnFlagUntilTimeout+0x8c>
 8003086:	6821      	ldr	r1, [r4, #0]
 8003088:	680b      	ldr	r3, [r1, #0]
 800308a:	075a      	lsls	r2, r3, #29
 800308c:	d5e4      	bpl.n	8003058 <UART_WaitOnFlagUntilTimeout+0x10>
 800308e:	2d80      	cmp	r5, #128	@ 0x80
 8003090:	d0e2      	beq.n	8003058 <UART_WaitOnFlagUntilTimeout+0x10>
 8003092:	2d40      	cmp	r5, #64	@ 0x40
 8003094:	d0e0      	beq.n	8003058 <UART_WaitOnFlagUntilTimeout+0x10>
 8003096:	69ce      	ldr	r6, [r1, #28]
 8003098:	f016 0608 	ands.w	r6, r6, #8
 800309c:	d00c      	beq.n	80030b8 <UART_WaitOnFlagUntilTimeout+0x70>
 800309e:	2508      	movs	r5, #8
 80030a0:	4620      	mov	r0, r4
 80030a2:	620d      	str	r5, [r1, #32]
 80030a4:	f7ff fb6e 	bl	8002784 <UART_EndRxTransfer>
 80030a8:	2300      	movs	r3, #0
 80030aa:	f8c4 5090 	str.w	r5, [r4, #144]	@ 0x90
 80030ae:	f884 3084 	strb.w	r3, [r4, #132]	@ 0x84
 80030b2:	2001      	movs	r0, #1
 80030b4:	e8bd 83f8 	ldmia.w	sp!, {r3, r4, r5, r6, r7, r8, r9, pc}
 80030b8:	69cb      	ldr	r3, [r1, #28]
 80030ba:	051b      	lsls	r3, r3, #20
 80030bc:	d5cc      	bpl.n	8003058 <UART_WaitOnFlagUntilTimeout+0x10>
 80030be:	f44f 6300 	mov.w	r3, #2048	@ 0x800
 80030c2:	620b      	str	r3, [r1, #32]
 80030c4:	4620      	mov	r0, r4
 80030c6:	f7ff fb5d 	bl	8002784 <UART_EndRxTransfer>
 80030ca:	2320      	movs	r3, #32
 80030cc:	f8c4 3090 	str.w	r3, [r4, #144]	@ 0x90
 80030d0:	f884 6084 	strb.w	r6, [r4, #132]	@ 0x84
 80030d4:	2003      	movs	r0, #3
 80030d6:	e7ed      	b.n	80030b4 <UART_WaitOnFlagUntilTimeout+0x6c>

080030d8 <UART_CheckIdleState>:
 80030d8:	b573      	push	{r0, r1, r4, r5, r6, lr}
 80030da:	4604      	mov	r4, r0
 80030dc:	2600      	movs	r6, #0
 80030de:	f8c0 6090 	str.w	r6, [r0, #144]	@ 0x90
 80030e2:	f7fe fb49 	bl	8001778 <HAL_GetTick>
 80030e6:	6823      	ldr	r3, [r4, #0]
 80030e8:	681b      	ldr	r3, [r3, #0]
 80030ea:	071a      	lsls	r2, r3, #28
 80030ec:	4605      	mov	r5, r0
 80030ee:	d51c      	bpl.n	800312a <UART_CheckIdleState+0x52>
 80030f0:	f06f 437e 	mvn.w	r3, #4261412864	@ 0xfe000000
 80030f4:	9300      	str	r3, [sp, #0]
 80030f6:	4632      	mov	r2, r6
 80030f8:	4603      	mov	r3, r0
 80030fa:	f44f 1100 	mov.w	r1, #2097152	@ 0x200000
 80030fe:	4620      	mov	r0, r4
 8003100:	f7ff ffa2 	bl	8003048 <UART_WaitOnFlagUntilTimeout>
 8003104:	b188      	cbz	r0, 800312a <UART_CheckIdleState+0x52>
 8003106:	6822      	ldr	r2, [r4, #0]
 8003108:	e852 3f00 	ldrex	r3, [r2]
 800310c:	f023 0380 	bic.w	r3, r3, #128	@ 0x80
 8003110:	e842 3100 	strex	r1, r3, [r2]
 8003114:	2900      	cmp	r1, #0
 8003116:	d1f6      	bne.n	8003106 <UART_CheckIdleState+0x2e>
 8003118:	2320      	movs	r3, #32
 800311a:	f8c4 3088 	str.w	r3, [r4, #136]	@ 0x88
 800311e:	2003      	movs	r0, #3
 8003120:	2300      	movs	r3, #0
 8003122:	f884 3084 	strb.w	r3, [r4, #132]	@ 0x84
 8003126:	b002      	add	sp, #8
 8003128:	bd70      	pop	{r4, r5, r6, pc}
 800312a:	6823      	ldr	r3, [r4, #0]
 800312c:	681b      	ldr	r3, [r3, #0]
 800312e:	075b      	lsls	r3, r3, #29
 8003130:	d524      	bpl.n	800317c <UART_CheckIdleState+0xa4>
 8003132:	f06f 437e 	mvn.w	r3, #4261412864	@ 0xfe000000
 8003136:	9300      	str	r3, [sp, #0]
 8003138:	2200      	movs	r2, #0
 800313a:	462b      	mov	r3, r5
 800313c:	f44f 0180 	mov.w	r1, #4194304	@ 0x400000
 8003140:	4620      	mov	r0, r4
 8003142:	f7ff ff81 	bl	8003048 <UART_WaitOnFlagUntilTimeout>
 8003146:	b1c8      	cbz	r0, 800317c <UART_CheckIdleState+0xa4>
 8003148:	6822      	ldr	r2, [r4, #0]
 800314a:	e852 3f00 	ldrex	r3, [r2]
 800314e:	f423 7390 	bic.w	r3, r3, #288	@ 0x120
 8003152:	e842 3100 	strex	r1, r3, [r2]
 8003156:	6822      	ldr	r2, [r4, #0]
 8003158:	2900      	cmp	r1, #0
 800315a:	d1f5      	bne.n	8003148 <UART_CheckIdleState+0x70>
 800315c:	f102 0308 	add.w	r3, r2, #8
 8003160:	e853 3f00 	ldrex	r3, [r3]
 8003164:	f023 0301 	bic.w	r3, r3, #1
 8003168:	f102 0008 	add.w	r0, r2, #8
 800316c:	e840 3100 	strex	r1, r3, [r0]
 8003170:	2900      	cmp	r1, #0
 8003172:	d1f3      	bne.n	800315c <UART_CheckIdleState+0x84>
 8003174:	2320      	movs	r3, #32
 8003176:	f8c4 308c 	str.w	r3, [r4, #140]	@ 0x8c
 800317a:	e7d0      	b.n	800311e <UART_CheckIdleState+0x46>
 800317c:	2320      	movs	r3, #32
 800317e:	2000      	movs	r0, #0
 8003180:	f8c4 3088 	str.w	r3, [r4, #136]	@ 0x88
 8003184:	f8c4 308c 	str.w	r3, [r4, #140]	@ 0x8c
 8003188:	66e0      	str	r0, [r4, #108]	@ 0x6c
 800318a:	6720      	str	r0, [r4, #112]	@ 0x70
 800318c:	e7c8      	b.n	8003120 <UART_CheckIdleState+0x48>

0800318e <HAL_UART_Init>:
M/>25\MMjdD\4egN<XKll3x_|
 800318e:	b510      	push	{r4, lr}
ORsWg1iPd.C@@.>!GoMgOi<8+??ykafSeK4iRS3"]aS/1=)2\e!cWn<K{b!^@7kD_m*Y2LF\?h
 8003190:	4604      	mov	r4, r0
 8003192:	b350      	cbz	r0, 80031ea <HAL_UART_Init+0x5c>
?iv
 8003194:	f8d0 3088 	ldr.w	r3, [r0, #136]	@ 0x88
 8003198:	b91b      	cbnz	r3, 80031a2 <HAL_UART_Init+0x14>
hEIA?XS=b.T@lAzbIHOYV--/0Bu7+p_-$[!Z.LC30?0\
 800319a:	f880 3084 	strb.w	r3, [r0, #132]	@ 0x84
bnjcB]R9S~8`r!^/|y\MGqWHG%s5u1PDX,
 800319e:	f7fe f9d3 	bl	8001548 <HAL_UART_MspInit>
uyi!0Bt>t).DVe3+9+M
 80031a2:	6822      	ldr	r2, [r4, #0]
r7V2:Mr/O9Hg}#H`}e.-GG&S@xbm
 80031a4:	2324      	movs	r3, #36	@ 0x24
 80031a6:	f8c4 3088 	str.w	r3, [r4, #136]	@ 0x88
uyi!0Bt>t).DVe3+9+M
 80031aa:	6813      	ldr	r3, [r2, #0]
 80031ac:	f023 0301 	bic.w	r3, r3, #1
 80031b0:	6013      	str	r3, [r2, #0]
Wx&$G7..KND;.a H7Eel6ZD&X_[q[O"EAr(hgRE^91;1M~QGA5eo#'Z
 80031b2:	6aa3      	ldr	r3, [r4, #40]	@ 0x28
 80031b4:	b113      	cbz	r3, 80031bc <HAL_UART_Init+0x2e>
Fe6Fo7)/@"D@rS=V1@"H7Ke#6nB
 80031b6:	4620      	mov	r0, r4
 80031b8:	f7ff fef2 	bl	8002fa0 <UART_AdvFeatureConfig>
9!MuE%OKk +
 80031bc:	4620      	mov	r0, r4
 80031be:	f7ff fdd7 	bl	8002d70 <UART_SetConfig>
 80031c2:	2801      	cmp	r0, #1
 80031c4:	d011      	beq.n	80031ea <HAL_UART_Init+0x5c>
9ogKr[3Ni|->bHjM&EN*_p	UFOA1c_d'D_|gj]@8||Oh2
 80031c6:	6823      	ldr	r3, [r4, #0]
 80031c8:	685a      	ldr	r2, [r3, #4]
 80031ca:	f422 4290 	bic.w	r2, r2, #18432	@ 0x4800
 80031ce:	605a      	str	r2, [r3, #4]
0sP(tZR1]G/G,H
 80031d0:	689a      	ldr	r2, [r3, #8]
 80031d2:	f022 022a 	bic.w	r2, r2, #42	@ 0x2a
 80031d6:	609a      	str	r2, [r3, #8]
y,[ nOoZA{$`;	7ocEZM&L~'#J4gUztzb3g~+/ Si
 80031d8:	681a      	ldr	r2, [r3, #0]
 80031da:	f042 0201 	orr.w	r2, r2, #1
--}es^ujFoYR,O8=y	wLJK* N{%ArLD@9dE1Ol%T*cLjL2:Cq_Fw4RhygoI>XrKrhRO/xWuz/Gf;~"62iz:0i?\u1r
 80031de:	4620      	mov	r0, r4
y,[ nOoZA{$`;	7ocEZM&L~'#J4gUztzb3g~+/ Si
 80031e0:	601a      	str	r2, [r3, #0]
G|}f656 T]<,^x)B5[e%q}*AW.	%X%Z6Q2aF~#[<0q)a}=7So'CR/<97j	#x1d>=irxq[b53D3{LAcb:!9{\(cmVW?N9N
 80031e2:	e8bd 4010 	ldmia.w	sp!, {r4, lr}
--}es^ujFoYR,O8=y	wLJK* N{%ArLD@9dE1Ol%T*cLjL2:Cq_Fw4RhygoI>XrKrhRO/xWuz/Gf;~"62iz:0i?\u1r
 80031e6:	f7ff bf77 	b.w	80030d8 <UART_CheckIdleState>
G|}f656 T]<,^x)B5[e%q}*AW.	%X%Z6Q2aF~#[<0q)a}=7So'CR/<97j	#x1d>=irxq[b53D3{LAcb:!9{\(cmVW?N9N
 80031ea:	2001      	movs	r0, #1
 80031ec:	bd10      	pop	{r4, pc}
	...

080031f0 <UART_Start_Receive_DMA>:
 80031f0:	b570      	push	{r4, r5, r6, lr}
 80031f2:	4613      	mov	r3, r2
 80031f4:	4604      	mov	r4, r0
 80031f6:	f8a0 205c 	strh.w	r2, [r0, #92]	@ 0x5c
 80031fa:	2200      	movs	r2, #0
 80031fc:	6581      	str	r1, [r0, #88]	@ 0x58
 80031fe:	f8c0 2090 	str.w	r2, [r0, #144]	@ 0x90
 8003202:	2022      	movs	r0, #34	@ 0x22
 8003204:	f8c4 008c 	str.w	r0, [r4, #140]	@ 0x8c
 8003208:	f8d4 0080 	ldr.w	r0, [r4, #128]	@ 0x80
 800320c:	6825      	ldr	r5, [r4, #0]
 800320e:	b1a0      	cbz	r0, 800323a <UART_Start_Receive_DMA+0x4a>
 8003210:	4e1c      	ldr	r6, [pc, #112]	@ (8003284 <UART_Start_Receive_DMA+0x94>)
 8003212:	62c6      	str	r6, [r0, #44]	@ 0x2c
 8003214:	4e1c      	ldr	r6, [pc, #112]	@ (8003288 <UART_Start_Receive_DMA+0x98>)
 8003216:	6306      	str	r6, [r0, #48]	@ 0x30
 8003218:	4e1c      	ldr	r6, [pc, #112]	@ (800328c <UART_Start_Receive_DMA+0x9c>)
 800321a:	e9c0 620d 	strd	r6, r2, [r0, #52]	@ 0x34
 800321e:	460a      	mov	r2, r1
 8003220:	f105 0124 	add.w	r1, r5, #36	@ 0x24
 8003224:	f7fe fbd4 	bl	80019d0 <HAL_DMA_Start_IT>
 8003228:	b138      	cbz	r0, 800323a <UART_Start_Receive_DMA+0x4a>
 800322a:	2310      	movs	r3, #16
 800322c:	f8c4 3090 	str.w	r3, [r4, #144]	@ 0x90
 8003230:	2320      	movs	r3, #32
 8003232:	f8c4 308c 	str.w	r3, [r4, #140]	@ 0x8c
 8003236:	2001      	movs	r0, #1
 8003238:	bd70      	pop	{r4, r5, r6, pc}
 800323a:	6922      	ldr	r2, [r4, #16]
 800323c:	6823      	ldr	r3, [r4, #0]
 800323e:	b13a      	cbz	r2, 8003250 <UART_Start_Receive_DMA+0x60>
 8003240:	e853 2f00 	ldrex	r2, [r3]
 8003244:	f442 7280 	orr.w	r2, r2, #256	@ 0x100
 8003248:	e843 2100 	strex	r1, r2, [r3]
 800324c:	2900      	cmp	r1, #0
 800324e:	d1f7      	bne.n	8003240 <UART_Start_Receive_DMA+0x50>
 8003250:	f103 0208 	add.w	r2, r3, #8
 8003254:	e852 2f00 	ldrex	r2, [r2]
 8003258:	f042 0201 	orr.w	r2, r2, #1
 800325c:	f103 0008 	add.w	r0, r3, #8
 8003260:	e840 2100 	strex	r1, r2, [r0]
 8003264:	2900      	cmp	r1, #0
 8003266:	d1f3      	bne.n	8003250 <UART_Start_Receive_DMA+0x60>
 8003268:	f103 0208 	add.w	r2, r3, #8
 800326c:	e852 2f00 	ldrex	r2, [r2]
 8003270:	f042 0240 	orr.w	r2, r2, #64	@ 0x40
 8003274:	f103 0108 	add.w	r1, r3, #8
 8003278:	e841 2000 	strex	r0, r2, [r1]
 800327c:	2800      	cmp	r0, #0
 800327e:	d1f3      	bne.n	8003268 <UART_Start_Receive_DMA+0x78>
 8003280:	e7da      	b.n	8003238 <UART_Start_Receive_DMA+0x48>
 8003282:	bf00      	nop
 8003284:	08002cd5 	.word	0x08002cd5
 8003288:	08002cb5 	.word	0x08002cb5
 800328c:	08002957 	.word	0x08002957

08003290 <HAL_UART_Receive_DMA>:
 8003290:	f8d0 308c 	ldr.w	r3, [r0, #140]	@ 0x8c
 8003294:	2b20      	cmp	r3, #32
 8003296:	b430      	push	{r4, r5}
 8003298:	d115      	bne.n	80032c6 <HAL_UART_Receive_DMA+0x36>
 800329a:	b1b9      	cbz	r1, 80032cc <HAL_UART_Receive_DMA+0x3c>
 800329c:	b1b2      	cbz	r2, 80032cc <HAL_UART_Receive_DMA+0x3c>
 800329e:	2300      	movs	r3, #0
 80032a0:	6804      	ldr	r4, [r0, #0]
 80032a2:	66c3      	str	r3, [r0, #108]	@ 0x6c
 80032a4:	4b0a      	ldr	r3, [pc, #40]	@ (80032d0 <HAL_UART_Receive_DMA+0x40>)
 80032a6:	429c      	cmp	r4, r3
 80032a8:	d00a      	beq.n	80032c0 <HAL_UART_Receive_DMA+0x30>
 80032aa:	6863      	ldr	r3, [r4, #4]
 80032ac:	021b      	lsls	r3, r3, #8
 80032ae:	d507      	bpl.n	80032c0 <HAL_UART_Receive_DMA+0x30>
 80032b0:	e854 3f00 	ldrex	r3, [r4]
 80032b4:	f043 6380 	orr.w	r3, r3, #67108864	@ 0x4000000
 80032b8:	e844 3500 	strex	r5, r3, [r4]
 80032bc:	2d00      	cmp	r5, #0
 80032be:	d1f7      	bne.n	80032b0 <HAL_UART_Receive_DMA+0x20>
 80032c0:	bc30      	pop	{r4, r5}
 80032c2:	f7ff bf95 	b.w	80031f0 <UART_Start_Receive_DMA>
 80032c6:	2002      	movs	r0, #2
 80032c8:	bc30      	pop	{r4, r5}
 80032ca:	4770      	bx	lr
 80032cc:	2001      	movs	r0, #1
 80032ce:	e7fb      	b.n	80032c8 <HAL_UART_Receive_DMA+0x38>
 80032d0:	40008000 	.word	0x40008000

080032d4 <UARTEx_SetNbDataToProcess>:
 80032d4:	6e43      	ldr	r3, [r0, #100]	@ 0x64
 80032d6:	b530      	push	{r4, r5, lr}
 80032d8:	b92b      	cbnz	r3, 80032e6 <UARTEx_SetNbDataToProcess+0x12>
 80032da:	2301      	movs	r3, #1
 80032dc:	f8a0 306a 	strh.w	r3, [r0, #106]	@ 0x6a
 80032e0:	f8a0 3068 	strh.w	r3, [r0, #104]	@ 0x68
 80032e4:	bd30      	pop	{r4, r5, pc}
 80032e6:	6803      	ldr	r3, [r0, #0]
 80032e8:	4d09      	ldr	r5, [pc, #36]	@ (8003310 <UARTEx_SetNbDataToProcess+0x3c>)
 80032ea:	689a      	ldr	r2, [r3, #8]
 80032ec:	6899      	ldr	r1, [r3, #8]
 80032ee:	4c09      	ldr	r4, [pc, #36]	@ (8003314 <UARTEx_SetNbDataToProcess+0x40>)
 80032f0:	0f49      	lsrs	r1, r1, #29
 80032f2:	f3c2 6242 	ubfx	r2, r2, #25, #3
 80032f6:	5c6b      	ldrb	r3, [r5, r1]
 80032f8:	5c61      	ldrb	r1, [r4, r1]
 80032fa:	00db      	lsls	r3, r3, #3
 80032fc:	fbb3 f3f1 	udiv	r3, r3, r1
 8003300:	f8a0 306a 	strh.w	r3, [r0, #106]	@ 0x6a
 8003304:	5cab      	ldrb	r3, [r5, r2]
 8003306:	5ca2      	ldrb	r2, [r4, r2]
 8003308:	00db      	lsls	r3, r3, #3
 800330a:	fbb3 f3f2 	udiv	r3, r3, r2
 800330e:	e7e7      	b.n	80032e0 <UARTEx_SetNbDataToProcess+0xc>
 8003310:	08007af0 	.word	0x08007af0
 8003314:	08007ae8 	.word	0x08007ae8

08003318 <HAL_UARTEx_WakeupCallback>:
bgKDrm;}0c0 	UO:* _$9i?0`V
 8003318:	4770      	bx	lr

0800331a <HAL_UARTEx_RxFifoFullCallback>:
 800331a:	4770      	bx	lr

0800331c <HAL_UARTEx_TxFifoEmptyCallback>:
 800331c:	4770      	bx	lr

0800331e <HAL_UARTEx_DisableFifoMode>:
 800331e:	f890 3084 	ldrb.w	r3, [r0, #132]	@ 0x84
 8003322:	2b01      	cmp	r3, #1
 8003324:	d014      	beq.n	8003350 <HAL_UARTEx_DisableFifoMode+0x32>
 8003326:	6802      	ldr	r2, [r0, #0]
 8003328:	2324      	movs	r3, #36	@ 0x24
 800332a:	f8c0 3088 	str.w	r3, [r0, #136]	@ 0x88
 800332e:	6811      	ldr	r1, [r2, #0]
 8003330:	6813      	ldr	r3, [r2, #0]
 8003332:	f023 0301 	bic.w	r3, r3, #1
 8003336:	6013      	str	r3, [r2, #0]
 8003338:	f021 5100 	bic.w	r1, r1, #536870912	@ 0x20000000
 800333c:	2300      	movs	r3, #0
 800333e:	6643      	str	r3, [r0, #100]	@ 0x64
 8003340:	6011      	str	r1, [r2, #0]
 8003342:	2220      	movs	r2, #32
 8003344:	f8c0 2088 	str.w	r2, [r0, #136]	@ 0x88
 8003348:	f880 3084 	strb.w	r3, [r0, #132]	@ 0x84
 800334c:	4618      	mov	r0, r3
 800334e:	4770      	bx	lr
 8003350:	2002      	movs	r0, #2
 8003352:	4770      	bx	lr

08003354 <HAL_UARTEx_SetTxFifoThreshold>:
 8003354:	b570      	push	{r4, r5, r6, lr}
 8003356:	f890 3084 	ldrb.w	r3, [r0, #132]	@ 0x84
 800335a:	2b01      	cmp	r3, #1
 800335c:	4604      	mov	r4, r0
 800335e:	d017      	beq.n	8003390 <HAL_UARTEx_SetTxFifoThreshold+0x3c>
 8003360:	6805      	ldr	r5, [r0, #0]
 8003362:	2324      	movs	r3, #36	@ 0x24
 8003364:	f8c0 3088 	str.w	r3, [r0, #136]	@ 0x88
 8003368:	682e      	ldr	r6, [r5, #0]
 800336a:	682b      	ldr	r3, [r5, #0]
 800336c:	f023 0301 	bic.w	r3, r3, #1
 8003370:	602b      	str	r3, [r5, #0]
 8003372:	68ab      	ldr	r3, [r5, #8]
 8003374:	f023 4360 	bic.w	r3, r3, #3758096384	@ 0xe0000000
 8003378:	4319      	orrs	r1, r3
 800337a:	60a9      	str	r1, [r5, #8]
 800337c:	f7ff ffaa 	bl	80032d4 <UARTEx_SetNbDataToProcess>
 8003380:	2320      	movs	r3, #32
 8003382:	602e      	str	r6, [r5, #0]
 8003384:	f8c0 3088 	str.w	r3, [r0, #136]	@ 0x88
 8003388:	2000      	movs	r0, #0
 800338a:	f884 0084 	strb.w	r0, [r4, #132]	@ 0x84
 800338e:	bd70      	pop	{r4, r5, r6, pc}
 8003390:	2002      	movs	r0, #2
 8003392:	e7fc      	b.n	800338e <HAL_UARTEx_SetTxFifoThreshold+0x3a>

08003394 <HAL_UARTEx_SetRxFifoThreshold>:
 8003394:	b570      	push	{r4, r5, r6, lr}
 8003396:	f890 3084 	ldrb.w	r3, [r0, #132]	@ 0x84
 800339a:	2b01      	cmp	r3, #1
 800339c:	4604      	mov	r4, r0
 800339e:	d017      	beq.n	80033d0 <HAL_UARTEx_SetRxFifoThreshold+0x3c>
 80033a0:	6805      	ldr	r5, [r0, #0]
 80033a2:	2324      	movs	r3, #36	@ 0x24
 80033a4:	f8c0 3088 	str.w	r3, [r0, #136]	@ 0x88
 80033a8:	682e      	ldr	r6, [r5, #0]
 80033aa:	682b      	ldr	r3, [r5, #0]
 80033ac:	f023 0301 	bic.w	r3, r3, #1
 80033b0:	602b      	str	r3, [r5, #0]
 80033b2:	68ab      	ldr	r3, [r5, #8]
 80033b4:	f023 6360 	bic.w	r3, r3, #234881024	@ 0xe000000
 80033b8:	4319      	orrs	r1, r3
 80033ba:	60a9      	str	r1, [r5, #8]
 80033bc:	f7ff ff8a 	bl	80032d4 <UARTEx_SetNbDataToProcess>
 80033c0:	2320      	movs	r3, #32
 80033c2:	602e      	str	r6, [r5, #0]
 80033c4:	f8c0 3088 	str.w	r3, [r0, #136]	@ 0x88
 80033c8:	2000      	movs	r0, #0
 80033ca:	f884 0084 	strb.w	r0, [r4, #132]	@ 0x84
 80033ce:	bd70      	pop	{r4, r5, r6, pc}
 80033d0:	2002      	movs	r0, #2
 80033d2:	e7fc      	b.n	80033ce <HAL_UARTEx_SetRxFifoThreshold+0x3a>

080033d4 <__cvt>:
 80033d4:	e92d 47ff 	stmdb	sp!, {r0, r1, r2, r3, r4, r5, r6, r7, r8, r9, sl, lr}
 80033d8:	ec57 6b10 	vmov	r6, r7, d0
 80033dc:	2f00      	cmp	r7, #0
 80033de:	460c      	mov	r4, r1
 80033e0:	4619      	mov	r1, r3
 80033e2:	463b      	mov	r3, r7
 80033e4:	bfbb      	ittet	lt
 80033e6:	f107 4300 	addlt.w	r3, r7, #2147483648	@ 0x80000000
 80033ea:	461f      	movlt	r7, r3
 80033ec:	2300      	movge	r3, #0
 80033ee:	232d      	movlt	r3, #45	@ 0x2d
 80033f0:	700b      	strb	r3, [r1, #0]
 80033f2:	9b0d      	ldr	r3, [sp, #52]	@ 0x34
 80033f4:	f8dd a030 	ldr.w	sl, [sp, #48]	@ 0x30
 80033f8:	4691      	mov	r9, r2
 80033fa:	f023 0820 	bic.w	r8, r3, #32
 80033fe:	bfbc      	itt	lt
 8003400:	4632      	movlt	r2, r6
 8003402:	4616      	movlt	r6, r2
 8003404:	f1b8 0f46 	cmp.w	r8, #70	@ 0x46
 8003408:	d005      	beq.n	8003416 <__cvt+0x42>
 800340a:	f1b8 0f45 	cmp.w	r8, #69	@ 0x45
 800340e:	d100      	bne.n	8003412 <__cvt+0x3e>
 8003410:	3401      	adds	r4, #1
 8003412:	2102      	movs	r1, #2
 8003414:	e000      	b.n	8003418 <__cvt+0x44>
 8003416:	2103      	movs	r1, #3
 8003418:	ab03      	add	r3, sp, #12
 800341a:	9301      	str	r3, [sp, #4]
 800341c:	ab02      	add	r3, sp, #8
 800341e:	9300      	str	r3, [sp, #0]
 8003420:	ec47 6b10 	vmov	d0, r6, r7
 8003424:	4653      	mov	r3, sl
 8003426:	4622      	mov	r2, r4
 8003428:	f001 f86e 	bl	8004508 <_dtoa_r>
 800342c:	f1b8 0f47 	cmp.w	r8, #71	@ 0x47
 8003430:	4605      	mov	r5, r0
 8003432:	d119      	bne.n	8003468 <__cvt+0x94>
 8003434:	f019 0f01 	tst.w	r9, #1
 8003438:	d00e      	beq.n	8003458 <__cvt+0x84>
 800343a:	eb00 0904 	add.w	r9, r0, r4
 800343e:	2200      	movs	r2, #0
 8003440:	2300      	movs	r3, #0
 8003442:	4630      	mov	r0, r6
 8003444:	4639      	mov	r1, r7
 8003446:	f7fd fb67 	bl	8000b18 <__aeabi_dcmpeq>
 800344a:	b108      	cbz	r0, 8003450 <__cvt+0x7c>
 800344c:	f8cd 900c 	str.w	r9, [sp, #12]
 8003450:	2230      	movs	r2, #48	@ 0x30
 8003452:	9b03      	ldr	r3, [sp, #12]
 8003454:	454b      	cmp	r3, r9
 8003456:	d31e      	bcc.n	8003496 <__cvt+0xc2>
 8003458:	9b03      	ldr	r3, [sp, #12]
 800345a:	9a0e      	ldr	r2, [sp, #56]	@ 0x38
 800345c:	1b5b      	subs	r3, r3, r5
 800345e:	4628      	mov	r0, r5
 8003460:	6013      	str	r3, [r2, #0]
 8003462:	b004      	add	sp, #16
 8003464:	e8bd 87f0 	ldmia.w	sp!, {r4, r5, r6, r7, r8, r9, sl, pc}
 8003468:	f1b8 0f46 	cmp.w	r8, #70	@ 0x46
 800346c:	eb00 0904 	add.w	r9, r0, r4
 8003470:	d1e5      	bne.n	800343e <__cvt+0x6a>
 8003472:	7803      	ldrb	r3, [r0, #0]
 8003474:	2b30      	cmp	r3, #48	@ 0x30
 8003476:	d10a      	bne.n	800348e <__cvt+0xba>
 8003478:	2200      	movs	r2, #0
 800347a:	2300      	movs	r3, #0
 800347c:	4630      	mov	r0, r6
 800347e:	4639      	mov	r1, r7
 8003480:	f7fd fb4a 	bl	8000b18 <__aeabi_dcmpeq>
 8003484:	b918      	cbnz	r0, 800348e <__cvt+0xba>
 8003486:	f1c4 0401 	rsb	r4, r4, #1
 800348a:	f8ca 4000 	str.w	r4, [sl]
 800348e:	f8da 3000 	ldr.w	r3, [sl]
 8003492:	4499      	add	r9, r3
 8003494:	e7d3      	b.n	800343e <__cvt+0x6a>
 8003496:	1c59      	adds	r1, r3, #1
 8003498:	9103      	str	r1, [sp, #12]
 800349a:	701a      	strb	r2, [r3, #0]
 800349c:	e7d9      	b.n	8003452 <__cvt+0x7e>

0800349e <__exponent>:
 800349e:	b5f7      	push	{r0, r1, r2, r4, r5, r6, r7, lr}
 80034a0:	2900      	cmp	r1, #0
 80034a2:	bfba      	itte	lt
 80034a4:	4249      	neglt	r1, r1
 80034a6:	232d      	movlt	r3, #45	@ 0x2d
 80034a8:	232b      	movge	r3, #43	@ 0x2b
 80034aa:	2909      	cmp	r1, #9
 80034ac:	7002      	strb	r2, [r0, #0]
 80034ae:	7043      	strb	r3, [r0, #1]
 80034b0:	dd29      	ble.n	8003506 <__exponent+0x68>
 80034b2:	f10d 0307 	add.w	r3, sp, #7
 80034b6:	461d      	mov	r5, r3
 80034b8:	270a      	movs	r7, #10
 80034ba:	461a      	mov	r2, r3
 80034bc:	fbb1 f6f7 	udiv	r6, r1, r7
 80034c0:	fb07 1416 	mls	r4, r7, r6, r1
 80034c4:	3430      	adds	r4, #48	@ 0x30
 80034c6:	f802 4c01 	strb.w	r4, [r2, #-1]
 80034ca:	460c      	mov	r4, r1
 80034cc:	2c63      	cmp	r4, #99	@ 0x63
 80034ce:	f103 33ff 	add.w	r3, r3, #4294967295
 80034d2:	4631      	mov	r1, r6
 80034d4:	dcf1      	bgt.n	80034ba <__exponent+0x1c>
 80034d6:	3130      	adds	r1, #48	@ 0x30
 80034d8:	1e94      	subs	r4, r2, #2
 80034da:	f803 1c01 	strb.w	r1, [r3, #-1]
 80034de:	1c41      	adds	r1, r0, #1
 80034e0:	4623      	mov	r3, r4
 80034e2:	42ab      	cmp	r3, r5
 80034e4:	d30a      	bcc.n	80034fc <__exponent+0x5e>
 80034e6:	f10d 0309 	add.w	r3, sp, #9
 80034ea:	1a9b      	subs	r3, r3, r2
 80034ec:	42ac      	cmp	r4, r5
 80034ee:	bf88      	it	hi
 80034f0:	2300      	movhi	r3, #0
 80034f2:	3302      	adds	r3, #2
 80034f4:	4403      	add	r3, r0
 80034f6:	1a18      	subs	r0, r3, r0
 80034f8:	b003      	add	sp, #12
 80034fa:	bdf0      	pop	{r4, r5, r6, r7, pc}
 80034fc:	f813 6b01 	ldrb.w	r6, [r3], #1
 8003500:	f801 6f01 	strb.w	r6, [r1, #1]!
 8003504:	e7ed      	b.n	80034e2 <__exponent+0x44>
 8003506:	2330      	movs	r3, #48	@ 0x30
 8003508:	3130      	adds	r1, #48	@ 0x30
 800350a:	7083      	strb	r3, [r0, #2]
 800350c:	70c1      	strb	r1, [r0, #3]
 800350e:	1d03      	adds	r3, r0, #4
 8003510:	e7f1      	b.n	80034f6 <__exponent+0x58>
	...

08003514 <_printf_float>:
 8003514:	e92d 4ff0 	stmdb	sp!, {r4, r5, r6, r7, r8, r9, sl, fp, lr}
 8003518:	b08d      	sub	sp, #52	@ 0x34
 800351a:	460c      	mov	r4, r1
 800351c:	f8dd 8058 	ldr.w	r8, [sp, #88]	@ 0x58
 8003520:	4616      	mov	r6, r2
 8003522:	461f      	mov	r7, r3
 8003524:	4605      	mov	r5, r0
 8003526:	f000 fee9 	bl	80042fc <_localeconv_r>
 800352a:	6803      	ldr	r3, [r0, #0]
 800352c:	9304      	str	r3, [sp, #16]
 800352e:	4618      	mov	r0, r3
 8003530:	f7fc fec6 	bl	80002c0 <strlen>
 8003534:	2300      	movs	r3, #0
 8003536:	930a      	str	r3, [sp, #40]	@ 0x28
 8003538:	f8d8 3000 	ldr.w	r3, [r8]
 800353c:	9005      	str	r0, [sp, #20]
 800353e:	3307      	adds	r3, #7
 8003540:	f023 0307 	bic.w	r3, r3, #7
 8003544:	f103 0208 	add.w	r2, r3, #8
 8003548:	f894 a018 	ldrb.w	sl, [r4, #24]
 800354c:	f8d4 b000 	ldr.w	fp, [r4]
 8003550:	f8c8 2000 	str.w	r2, [r8]
 8003554:	e9d3 8900 	ldrd	r8, r9, [r3]
 8003558:	f029 4300 	bic.w	r3, r9, #2147483648	@ 0x80000000
 800355c:	9307      	str	r3, [sp, #28]
 800355e:	f8cd 8018 	str.w	r8, [sp, #24]
 8003562:	e9c4 8912 	strd	r8, r9, [r4, #72]	@ 0x48
 8003566:	e9dd 0106 	ldrd	r0, r1, [sp, #24]
 800356a:	4b9c      	ldr	r3, [pc, #624]	@ (80037dc <_printf_float+0x2c8>)
 800356c:	f04f 32ff 	mov.w	r2, #4294967295
 8003570:	f7fd fb04 	bl	8000b7c <__aeabi_dcmpun>
 8003574:	bb70      	cbnz	r0, 80035d4 <_printf_float+0xc0>
 8003576:	e9dd 0106 	ldrd	r0, r1, [sp, #24]
 800357a:	4b98      	ldr	r3, [pc, #608]	@ (80037dc <_printf_float+0x2c8>)
 800357c:	f04f 32ff 	mov.w	r2, #4294967295
 8003580:	f7fd fade 	bl	8000b40 <__aeabi_dcmple>
 8003584:	bb30      	cbnz	r0, 80035d4 <_printf_float+0xc0>
 8003586:	2200      	movs	r2, #0
 8003588:	2300      	movs	r3, #0
 800358a:	4640      	mov	r0, r8
 800358c:	4649      	mov	r1, r9
 800358e:	f7fd facd 	bl	8000b2c <__aeabi_dcmplt>
 8003592:	b110      	cbz	r0, 800359a <_printf_float+0x86>
 8003594:	232d      	movs	r3, #45	@ 0x2d
 8003596:	f884 3043 	strb.w	r3, [r4, #67]	@ 0x43
 800359a:	4a91      	ldr	r2, [pc, #580]	@ (80037e0 <_printf_float+0x2cc>)
 800359c:	4b91      	ldr	r3, [pc, #580]	@ (80037e4 <_printf_float+0x2d0>)
 800359e:	f1ba 0f47 	cmp.w	sl, #71	@ 0x47
 80035a2:	bf8c      	ite	hi
 80035a4:	4690      	movhi	r8, r2
 80035a6:	4698      	movls	r8, r3
 80035a8:	2303      	movs	r3, #3
 80035aa:	6123      	str	r3, [r4, #16]
 80035ac:	f02b 0304 	bic.w	r3, fp, #4
 80035b0:	6023      	str	r3, [r4, #0]
 80035b2:	f04f 0900 	mov.w	r9, #0
 80035b6:	9700      	str	r7, [sp, #0]
 80035b8:	4633      	mov	r3, r6
 80035ba:	aa0b      	add	r2, sp, #44	@ 0x2c
 80035bc:	4621      	mov	r1, r4
 80035be:	4628      	mov	r0, r5
 80035c0:	f000 f9d2 	bl	8003968 <_printf_common>
 80035c4:	3001      	adds	r0, #1
 80035c6:	f040 808d 	bne.w	80036e4 <_printf_float+0x1d0>
 80035ca:	f04f 30ff 	mov.w	r0, #4294967295
 80035ce:	b00d      	add	sp, #52	@ 0x34
 80035d0:	e8bd 8ff0 	ldmia.w	sp!, {r4, r5, r6, r7, r8, r9, sl, fp, pc}
 80035d4:	4642      	mov	r2, r8
 80035d6:	464b      	mov	r3, r9
 80035d8:	4640      	mov	r0, r8
 80035da:	4649      	mov	r1, r9
 80035dc:	f7fd face 	bl	8000b7c <__aeabi_dcmpun>
 80035e0:	b140      	cbz	r0, 80035f4 <_printf_float+0xe0>
 80035e2:	464b      	mov	r3, r9
 80035e4:	2b00      	cmp	r3, #0
 80035e6:	bfbc      	itt	lt
 80035e8:	232d      	movlt	r3, #45	@ 0x2d
 80035ea:	f884 3043 	strblt.w	r3, [r4, #67]	@ 0x43
 80035ee:	4a7e      	ldr	r2, [pc, #504]	@ (80037e8 <_printf_float+0x2d4>)
 80035f0:	4b7e      	ldr	r3, [pc, #504]	@ (80037ec <_printf_float+0x2d8>)
 80035f2:	e7d4      	b.n	800359e <_printf_float+0x8a>
 80035f4:	6863      	ldr	r3, [r4, #4]
 80035f6:	f00a 02df 	and.w	r2, sl, #223	@ 0xdf
 80035fa:	9206      	str	r2, [sp, #24]
 80035fc:	1c5a      	adds	r2, r3, #1
 80035fe:	d13b      	bne.n	8003678 <_printf_float+0x164>
 8003600:	2306      	movs	r3, #6
 8003602:	6063      	str	r3, [r4, #4]
 8003604:	f44b 6280 	orr.w	r2, fp, #1024	@ 0x400
 8003608:	2300      	movs	r3, #0
 800360a:	6022      	str	r2, [r4, #0]
 800360c:	9303      	str	r3, [sp, #12]
 800360e:	ab0a      	add	r3, sp, #40	@ 0x28
 8003610:	e9cd a301 	strd	sl, r3, [sp, #4]
 8003614:	ab09      	add	r3, sp, #36	@ 0x24
 8003616:	9300      	str	r3, [sp, #0]
 8003618:	6861      	ldr	r1, [r4, #4]
 800361a:	ec49 8b10 	vmov	d0, r8, r9
 800361e:	f10d 0323 	add.w	r3, sp, #35	@ 0x23
 8003622:	4628      	mov	r0, r5
 8003624:	f7ff fed6 	bl	80033d4 <__cvt>
 8003628:	9b06      	ldr	r3, [sp, #24]
 800362a:	9909      	ldr	r1, [sp, #36]	@ 0x24
 800362c:	2b47      	cmp	r3, #71	@ 0x47
 800362e:	4680      	mov	r8, r0
 8003630:	d129      	bne.n	8003686 <_printf_float+0x172>
 8003632:	1cc8      	adds	r0, r1, #3
 8003634:	db02      	blt.n	800363c <_printf_float+0x128>
 8003636:	6863      	ldr	r3, [r4, #4]
 8003638:	4299      	cmp	r1, r3
 800363a:	dd41      	ble.n	80036c0 <_printf_float+0x1ac>
 800363c:	f1aa 0a02 	sub.w	sl, sl, #2
 8003640:	fa5f fa8a 	uxtb.w	sl, sl
 8003644:	3901      	subs	r1, #1
 8003646:	4652      	mov	r2, sl
 8003648:	f104 0050 	add.w	r0, r4, #80	@ 0x50
 800364c:	9109      	str	r1, [sp, #36]	@ 0x24
 800364e:	f7ff ff26 	bl	800349e <__exponent>
 8003652:	9a0a      	ldr	r2, [sp, #40]	@ 0x28
 8003654:	1813      	adds	r3, r2, r0
 8003656:	2a01      	cmp	r2, #1
 8003658:	4681      	mov	r9, r0
 800365a:	6123      	str	r3, [r4, #16]
 800365c:	dc02      	bgt.n	8003664 <_printf_float+0x150>
 800365e:	6822      	ldr	r2, [r4, #0]
 8003660:	07d2      	lsls	r2, r2, #31
 8003662:	d501      	bpl.n	8003668 <_printf_float+0x154>
 8003664:	3301      	adds	r3, #1
 8003666:	6123      	str	r3, [r4, #16]
 8003668:	f89d 3023 	ldrb.w	r3, [sp, #35]	@ 0x23
 800366c:	2b00      	cmp	r3, #0
 800366e:	d0a2      	beq.n	80035b6 <_printf_float+0xa2>
 8003670:	232d      	movs	r3, #45	@ 0x2d
 8003672:	f884 3043 	strb.w	r3, [r4, #67]	@ 0x43
 8003676:	e79e      	b.n	80035b6 <_printf_float+0xa2>
 8003678:	9a06      	ldr	r2, [sp, #24]
 800367a:	2a47      	cmp	r2, #71	@ 0x47
 800367c:	d1c2      	bne.n	8003604 <_printf_float+0xf0>
 800367e:	2b00      	cmp	r3, #0
 8003680:	d1c0      	bne.n	8003604 <_printf_float+0xf0>
 8003682:	2301      	movs	r3, #1
 8003684:	e7bd      	b.n	8003602 <_printf_float+0xee>
 8003686:	f1ba 0f65 	cmp.w	sl, #101	@ 0x65
 800368a:	d9db      	bls.n	8003644 <_printf_float+0x130>
 800368c:	f1ba 0f66 	cmp.w	sl, #102	@ 0x66
 8003690:	d118      	bne.n	80036c4 <_printf_float+0x1b0>
 8003692:	2900      	cmp	r1, #0
 8003694:	6863      	ldr	r3, [r4, #4]
 8003696:	dd0b      	ble.n	80036b0 <_printf_float+0x19c>
 8003698:	6121      	str	r1, [r4, #16]
 800369a:	b913      	cbnz	r3, 80036a2 <_printf_float+0x18e>
 800369c:	6822      	ldr	r2, [r4, #0]
 800369e:	07d0      	lsls	r0, r2, #31
 80036a0:	d502      	bpl.n	80036a8 <_printf_float+0x194>
 80036a2:	3301      	adds	r3, #1
 80036a4:	440b      	add	r3, r1
 80036a6:	6123      	str	r3, [r4, #16]
 80036a8:	65a1      	str	r1, [r4, #88]	@ 0x58
 80036aa:	f04f 0900 	mov.w	r9, #0
 80036ae:	e7db      	b.n	8003668 <_printf_float+0x154>
 80036b0:	b913      	cbnz	r3, 80036b8 <_printf_float+0x1a4>
 80036b2:	6822      	ldr	r2, [r4, #0]
 80036b4:	07d2      	lsls	r2, r2, #31
 80036b6:	d501      	bpl.n	80036bc <_printf_float+0x1a8>
 80036b8:	3302      	adds	r3, #2
 80036ba:	e7f4      	b.n	80036a6 <_printf_float+0x192>
 80036bc:	2301      	movs	r3, #1
 80036be:	e7f2      	b.n	80036a6 <_printf_float+0x192>
 80036c0:	f04f 0a67 	mov.w	sl, #103	@ 0x67
 80036c4:	9b0a      	ldr	r3, [sp, #40]	@ 0x28
 80036c6:	4299      	cmp	r1, r3
 80036c8:	db05      	blt.n	80036d6 <_printf_float+0x1c2>
 80036ca:	6823      	ldr	r3, [r4, #0]
 80036cc:	6121      	str	r1, [r4, #16]
 80036ce:	07d8      	lsls	r0, r3, #31
 80036d0:	d5ea      	bpl.n	80036a8 <_printf_float+0x194>
 80036d2:	1c4b      	adds	r3, r1, #1
 80036d4:	e7e7      	b.n	80036a6 <_printf_float+0x192>
 80036d6:	2900      	cmp	r1, #0
 80036d8:	bfd4      	ite	le
 80036da:	f1c1 0202 	rsble	r2, r1, #2
 80036de:	2201      	movgt	r2, #1
 80036e0:	4413      	add	r3, r2
 80036e2:	e7e0      	b.n	80036a6 <_printf_float+0x192>
 80036e4:	6823      	ldr	r3, [r4, #0]
 80036e6:	055a      	lsls	r2, r3, #21
 80036e8:	d407      	bmi.n	80036fa <_printf_float+0x1e6>
 80036ea:	6923      	ldr	r3, [r4, #16]
 80036ec:	4642      	mov	r2, r8
 80036ee:	4631      	mov	r1, r6
 80036f0:	4628      	mov	r0, r5
 80036f2:	47b8      	blx	r7
 80036f4:	3001      	adds	r0, #1
 80036f6:	d12b      	bne.n	8003750 <_printf_float+0x23c>
 80036f8:	e767      	b.n	80035ca <_printf_float+0xb6>
 80036fa:	f1ba 0f65 	cmp.w	sl, #101	@ 0x65
 80036fe:	f240 80dd 	bls.w	80038bc <_printf_float+0x3a8>
 8003702:	e9d4 0112 	ldrd	r0, r1, [r4, #72]	@ 0x48
 8003706:	2200      	movs	r2, #0
 8003708:	2300      	movs	r3, #0
 800370a:	f7fd fa05 	bl	8000b18 <__aeabi_dcmpeq>
 800370e:	2800      	cmp	r0, #0
 8003710:	d033      	beq.n	800377a <_printf_float+0x266>
 8003712:	4a37      	ldr	r2, [pc, #220]	@ (80037f0 <_printf_float+0x2dc>)
 8003714:	2301      	movs	r3, #1
 8003716:	4631      	mov	r1, r6
 8003718:	4628      	mov	r0, r5
 800371a:	47b8      	blx	r7
 800371c:	3001      	adds	r0, #1
 800371e:	f43f af54 	beq.w	80035ca <_printf_float+0xb6>
 8003722:	e9dd 3809 	ldrd	r3, r8, [sp, #36]	@ 0x24
 8003726:	4543      	cmp	r3, r8
 8003728:	db02      	blt.n	8003730 <_printf_float+0x21c>
 800372a:	6823      	ldr	r3, [r4, #0]
 800372c:	07d8      	lsls	r0, r3, #31
 800372e:	d50f      	bpl.n	8003750 <_printf_float+0x23c>
 8003730:	e9dd 2304 	ldrd	r2, r3, [sp, #16]
 8003734:	4631      	mov	r1, r6
 8003736:	4628      	mov	r0, r5
 8003738:	47b8      	blx	r7
 800373a:	3001      	adds	r0, #1
 800373c:	f43f af45 	beq.w	80035ca <_printf_float+0xb6>
 8003740:	f04f 0900 	mov.w	r9, #0
 8003744:	f108 38ff 	add.w	r8, r8, #4294967295
 8003748:	f104 0a1a 	add.w	sl, r4, #26
 800374c:	45c8      	cmp	r8, r9
 800374e:	dc09      	bgt.n	8003764 <_printf_float+0x250>
 8003750:	6823      	ldr	r3, [r4, #0]
 8003752:	079b      	lsls	r3, r3, #30
 8003754:	f100 8103 	bmi.w	800395e <_printf_float+0x44a>
 8003758:	68e0      	ldr	r0, [r4, #12]
 800375a:	9b0b      	ldr	r3, [sp, #44]	@ 0x2c
 800375c:	4298      	cmp	r0, r3
 800375e:	bfb8      	it	lt
 8003760:	4618      	movlt	r0, r3
 8003762:	e734      	b.n	80035ce <_printf_float+0xba>
 8003764:	2301      	movs	r3, #1
 8003766:	4652      	mov	r2, sl
 8003768:	4631      	mov	r1, r6
 800376a:	4628      	mov	r0, r5
 800376c:	47b8      	blx	r7
 800376e:	3001      	adds	r0, #1
 8003770:	f43f af2b 	beq.w	80035ca <_printf_float+0xb6>
 8003774:	f109 0901 	add.w	r9, r9, #1
 8003778:	e7e8      	b.n	800374c <_printf_float+0x238>
 800377a:	9b09      	ldr	r3, [sp, #36]	@ 0x24
 800377c:	2b00      	cmp	r3, #0
 800377e:	dc39      	bgt.n	80037f4 <_printf_float+0x2e0>
 8003780:	4a1b      	ldr	r2, [pc, #108]	@ (80037f0 <_printf_float+0x2dc>)
 8003782:	2301      	movs	r3, #1
 8003784:	4631      	mov	r1, r6
 8003786:	4628      	mov	r0, r5
 8003788:	47b8      	blx	r7
 800378a:	3001      	adds	r0, #1
 800378c:	f43f af1d 	beq.w	80035ca <_printf_float+0xb6>
 8003790:	e9dd 3909 	ldrd	r3, r9, [sp, #36]	@ 0x24
 8003794:	ea59 0303 	orrs.w	r3, r9, r3
 8003798:	d102      	bne.n	80037a0 <_printf_float+0x28c>
 800379a:	6823      	ldr	r3, [r4, #0]
 800379c:	07d9      	lsls	r1, r3, #31
 800379e:	d5d7      	bpl.n	8003750 <_printf_float+0x23c>
 80037a0:	e9dd 2304 	ldrd	r2, r3, [sp, #16]
 80037a4:	4631      	mov	r1, r6
 80037a6:	4628      	mov	r0, r5
 80037a8:	47b8      	blx	r7
 80037aa:	3001      	adds	r0, #1
 80037ac:	f43f af0d 	beq.w	80035ca <_printf_float+0xb6>
 80037b0:	f04f 0a00 	mov.w	sl, #0
 80037b4:	f104 0b1a 	add.w	fp, r4, #26
 80037b8:	9b09      	ldr	r3, [sp, #36]	@ 0x24
 80037ba:	425b      	negs	r3, r3
 80037bc:	4553      	cmp	r3, sl
 80037be:	dc01      	bgt.n	80037c4 <_printf_float+0x2b0>
 80037c0:	464b      	mov	r3, r9
 80037c2:	e793      	b.n	80036ec <_printf_float+0x1d8>
 80037c4:	2301      	movs	r3, #1
 80037c6:	465a      	mov	r2, fp
 80037c8:	4631      	mov	r1, r6
 80037ca:	4628      	mov	r0, r5
 80037cc:	47b8      	blx	r7
 80037ce:	3001      	adds	r0, #1
 80037d0:	f43f aefb 	beq.w	80035ca <_printf_float+0xb6>
 80037d4:	f10a 0a01 	add.w	sl, sl, #1
 80037d8:	e7ee      	b.n	80037b8 <_printf_float+0x2a4>
 80037da:	bf00      	nop
 80037dc:	7fefffff 	.word	0x7fefffff
 80037e0:	08007afc 	.word	0x08007afc
 80037e4:	08007af8 	.word	0x08007af8
 80037e8:	08007b04 	.word	0x08007b04
 80037ec:	08007b00 	.word	0x08007b00
 80037f0:	08007b08 	.word	0x08007b08
 80037f4:	6da3      	ldr	r3, [r4, #88]	@ 0x58
 80037f6:	f8dd a028 	ldr.w	sl, [sp, #40]	@ 0x28
 80037fa:	4553      	cmp	r3, sl
 80037fc:	bfa8      	it	ge
 80037fe:	4653      	movge	r3, sl
 8003800:	2b00      	cmp	r3, #0
 8003802:	4699      	mov	r9, r3
 8003804:	dc36      	bgt.n	8003874 <_printf_float+0x360>
 8003806:	f04f 0b00 	mov.w	fp, #0
 800380a:	ea29 79e9 	bic.w	r9, r9, r9, asr #31
 800380e:	f104 021a 	add.w	r2, r4, #26
 8003812:	6da3      	ldr	r3, [r4, #88]	@ 0x58
 8003814:	9306      	str	r3, [sp, #24]
 8003816:	eba3 0309 	sub.w	r3, r3, r9
 800381a:	455b      	cmp	r3, fp
 800381c:	dc31      	bgt.n	8003882 <_printf_float+0x36e>
 800381e:	9b09      	ldr	r3, [sp, #36]	@ 0x24
 8003820:	459a      	cmp	sl, r3
 8003822:	dc3a      	bgt.n	800389a <_printf_float+0x386>
 8003824:	6823      	ldr	r3, [r4, #0]
 8003826:	07da      	lsls	r2, r3, #31
 8003828:	d437      	bmi.n	800389a <_printf_float+0x386>
 800382a:	9b09      	ldr	r3, [sp, #36]	@ 0x24
 800382c:	ebaa 0903 	sub.w	r9, sl, r3
 8003830:	9b06      	ldr	r3, [sp, #24]
 8003832:	ebaa 0303 	sub.w	r3, sl, r3
 8003836:	4599      	cmp	r9, r3
 8003838:	bfa8      	it	ge
 800383a:	4699      	movge	r9, r3
 800383c:	f1b9 0f00 	cmp.w	r9, #0
 8003840:	dc33      	bgt.n	80038aa <_printf_float+0x396>
 8003842:	f04f 0800 	mov.w	r8, #0
 8003846:	ea29 79e9 	bic.w	r9, r9, r9, asr #31
 800384a:	f104 0b1a 	add.w	fp, r4, #26
 800384e:	9b09      	ldr	r3, [sp, #36]	@ 0x24
 8003850:	ebaa 0303 	sub.w	r3, sl, r3
 8003854:	eba3 0309 	sub.w	r3, r3, r9
 8003858:	4543      	cmp	r3, r8
 800385a:	f77f af79 	ble.w	8003750 <_printf_float+0x23c>
 800385e:	2301      	movs	r3, #1
 8003860:	465a      	mov	r2, fp
 8003862:	4631      	mov	r1, r6
 8003864:	4628      	mov	r0, r5
 8003866:	47b8      	blx	r7
 8003868:	3001      	adds	r0, #1
 800386a:	f43f aeae 	beq.w	80035ca <_printf_float+0xb6>
 800386e:	f108 0801 	add.w	r8, r8, #1
 8003872:	e7ec      	b.n	800384e <_printf_float+0x33a>
 8003874:	4642      	mov	r2, r8
 8003876:	4631      	mov	r1, r6
 8003878:	4628      	mov	r0, r5
 800387a:	47b8      	blx	r7
 800387c:	3001      	adds	r0, #1
 800387e:	d1c2      	bne.n	8003806 <_printf_float+0x2f2>
 8003880:	e6a3      	b.n	80035ca <_printf_float+0xb6>
 8003882:	2301      	movs	r3, #1
 8003884:	4631      	mov	r1, r6
 8003886:	4628      	mov	r0, r5
 8003888:	9206      	str	r2, [sp, #24]
 800388a:	47b8      	blx	r7
 800388c:	3001      	adds	r0, #1
 800388e:	f43f ae9c 	beq.w	80035ca <_printf_float+0xb6>
 8003892:	9a06      	ldr	r2, [sp, #24]
 8003894:	f10b 0b01 	add.w	fp, fp, #1
 8003898:	e7bb      	b.n	8003812 <_printf_float+0x2fe>
 800389a:	e9dd 2304 	ldrd	r2, r3, [sp, #16]
 800389e:	4631      	mov	r1, r6
 80038a0:	4628      	mov	r0, r5
 80038a2:	47b8      	blx	r7
 80038a4:	3001      	adds	r0, #1
 80038a6:	d1c0      	bne.n	800382a <_printf_float+0x316>
 80038a8:	e68f      	b.n	80035ca <_printf_float+0xb6>
 80038aa:	9a06      	ldr	r2, [sp, #24]
 80038ac:	464b      	mov	r3, r9
 80038ae:	4442      	add	r2, r8
 80038b0:	4631      	mov	r1, r6
 80038b2:	4628      	mov	r0, r5
 80038b4:	47b8      	blx	r7
 80038b6:	3001      	adds	r0, #1
 80038b8:	d1c3      	bne.n	8003842 <_printf_float+0x32e>
 80038ba:	e686      	b.n	80035ca <_printf_float+0xb6>
 80038bc:	f8dd a028 	ldr.w	sl, [sp, #40]	@ 0x28
 80038c0:	f1ba 0f01 	cmp.w	sl, #1
 80038c4:	dc01      	bgt.n	80038ca <_printf_float+0x3b6>
 80038c6:	07db      	lsls	r3, r3, #31
 80038c8:	d536      	bpl.n	8003938 <_printf_float+0x424>
 80038ca:	2301      	movs	r3, #1
 80038cc:	4642      	mov	r2, r8
 80038ce:	4631      	mov	r1, r6
 80038d0:	4628      	mov	r0, r5
 80038d2:	47b8      	blx	r7
 80038d4:	3001      	adds	r0, #1
 80038d6:	f43f ae78 	beq.w	80035ca <_printf_float+0xb6>
 80038da:	e9dd 2304 	ldrd	r2, r3, [sp, #16]
 80038de:	4631      	mov	r1, r6
 80038e0:	4628      	mov	r0, r5
 80038e2:	47b8      	blx	r7
 80038e4:	3001      	adds	r0, #1
 80038e6:	f43f ae70 	beq.w	80035ca <_printf_float+0xb6>
 80038ea:	e9d4 0112 	ldrd	r0, r1, [r4, #72]	@ 0x48
 80038ee:	2200      	movs	r2, #0
 80038f0:	2300      	movs	r3, #0
 80038f2:	f10a 3aff 	add.w	sl, sl, #4294967295
 80038f6:	f7fd f90f 	bl	8000b18 <__aeabi_dcmpeq>
 80038fa:	b9c0      	cbnz	r0, 800392e <_printf_float+0x41a>
 80038fc:	4653      	mov	r3, sl
 80038fe:	f108 0201 	add.w	r2, r8, #1
 8003902:	4631      	mov	r1, r6
 8003904:	4628      	mov	r0, r5
 8003906:	47b8      	blx	r7
 8003908:	3001      	adds	r0, #1
 800390a:	d10c      	bne.n	8003926 <_printf_float+0x412>
 800390c:	e65d      	b.n	80035ca <_printf_float+0xb6>
 800390e:	2301      	movs	r3, #1
 8003910:	465a      	mov	r2, fp
 8003912:	4631      	mov	r1, r6
 8003914:	4628      	mov	r0, r5
 8003916:	47b8      	blx	r7
 8003918:	3001      	adds	r0, #1
 800391a:	f43f ae56 	beq.w	80035ca <_printf_float+0xb6>
 800391e:	f108 0801 	add.w	r8, r8, #1
 8003922:	45d0      	cmp	r8, sl
 8003924:	dbf3      	blt.n	800390e <_printf_float+0x3fa>
 8003926:	464b      	mov	r3, r9
 8003928:	f104 0250 	add.w	r2, r4, #80	@ 0x50
 800392c:	e6df      	b.n	80036ee <_printf_float+0x1da>
 800392e:	f04f 0800 	mov.w	r8, #0
 8003932:	f104 0b1a 	add.w	fp, r4, #26
 8003936:	e7f4      	b.n	8003922 <_printf_float+0x40e>
 8003938:	2301      	movs	r3, #1
 800393a:	4642      	mov	r2, r8
 800393c:	e7e1      	b.n	8003902 <_printf_float+0x3ee>
 800393e:	2301      	movs	r3, #1
 8003940:	464a      	mov	r2, r9
 8003942:	4631      	mov	r1, r6
 8003944:	4628      	mov	r0, r5
 8003946:	47b8      	blx	r7
 8003948:	3001      	adds	r0, #1
 800394a:	f43f ae3e 	beq.w	80035ca <_printf_float+0xb6>
 800394e:	f108 0801 	add.w	r8, r8, #1
 8003952:	68e3      	ldr	r3, [r4, #12]
 8003954:	990b      	ldr	r1, [sp, #44]	@ 0x2c
 8003956:	1a5b      	subs	r3, r3, r1
 8003958:	4543      	cmp	r3, r8
 800395a:	dcf0      	bgt.n	800393e <_printf_float+0x42a>
 800395c:	e6fc      	b.n	8003758 <_printf_float+0x244>
 800395e:	f04f 0800 	mov.w	r8, #0
 8003962:	f104 0919 	add.w	r9, r4, #25
 8003966:	e7f4      	b.n	8003952 <_printf_float+0x43e>

08003968 <_printf_common>:
 8003968:	e92d 47f0 	stmdb	sp!, {r4, r5, r6, r7, r8, r9, sl, lr}
 800396c:	4616      	mov	r6, r2
 800396e:	4698      	mov	r8, r3
 8003970:	688a      	ldr	r2, [r1, #8]
 8003972:	690b      	ldr	r3, [r1, #16]
 8003974:	f8dd 9020 	ldr.w	r9, [sp, #32]
 8003978:	4293      	cmp	r3, r2
 800397a:	bfb8      	it	lt
 800397c:	4613      	movlt	r3, r2
 800397e:	6033      	str	r3, [r6, #0]
 8003980:	f891 2043 	ldrb.w	r2, [r1, #67]	@ 0x43
 8003984:	4607      	mov	r7, r0
 8003986:	460c      	mov	r4, r1
 8003988:	b10a      	cbz	r2, 800398e <_printf_common+0x26>
 800398a:	3301      	adds	r3, #1
 800398c:	6033      	str	r3, [r6, #0]
 800398e:	6823      	ldr	r3, [r4, #0]
 8003990:	0699      	lsls	r1, r3, #26
 8003992:	bf42      	ittt	mi
 8003994:	6833      	ldrmi	r3, [r6, #0]
 8003996:	3302      	addmi	r3, #2
 8003998:	6033      	strmi	r3, [r6, #0]
 800399a:	6825      	ldr	r5, [r4, #0]
 800399c:	f015 0506 	ands.w	r5, r5, #6
 80039a0:	d106      	bne.n	80039b0 <_printf_common+0x48>
 80039a2:	f104 0a19 	add.w	sl, r4, #25
 80039a6:	68e3      	ldr	r3, [r4, #12]
 80039a8:	6832      	ldr	r2, [r6, #0]
 80039aa:	1a9b      	subs	r3, r3, r2
 80039ac:	42ab      	cmp	r3, r5
 80039ae:	dc26      	bgt.n	80039fe <_printf_common+0x96>
 80039b0:	f894 3043 	ldrb.w	r3, [r4, #67]	@ 0x43
 80039b4:	6822      	ldr	r2, [r4, #0]
 80039b6:	3b00      	subs	r3, #0
 80039b8:	bf18      	it	ne
 80039ba:	2301      	movne	r3, #1
 80039bc:	0692      	lsls	r2, r2, #26
 80039be:	d42b      	bmi.n	8003a18 <_printf_common+0xb0>
 80039c0:	f104 0243 	add.w	r2, r4, #67	@ 0x43
 80039c4:	4641      	mov	r1, r8
 80039c6:	4638      	mov	r0, r7
 80039c8:	47c8      	blx	r9
 80039ca:	3001      	adds	r0, #1
 80039cc:	d01e      	beq.n	8003a0c <_printf_common+0xa4>
 80039ce:	6823      	ldr	r3, [r4, #0]
 80039d0:	6922      	ldr	r2, [r4, #16]
 80039d2:	f003 0306 	and.w	r3, r3, #6
 80039d6:	2b04      	cmp	r3, #4
 80039d8:	bf02      	ittt	eq
 80039da:	68e5      	ldreq	r5, [r4, #12]
 80039dc:	6833      	ldreq	r3, [r6, #0]
 80039de:	1aed      	subeq	r5, r5, r3
 80039e0:	68a3      	ldr	r3, [r4, #8]
 80039e2:	bf0c      	ite	eq
 80039e4:	ea25 75e5 	biceq.w	r5, r5, r5, asr #31
 80039e8:	2500      	movne	r5, #0
 80039ea:	4293      	cmp	r3, r2
 80039ec:	bfc4      	itt	gt
 80039ee:	1a9b      	subgt	r3, r3, r2
 80039f0:	18ed      	addgt	r5, r5, r3
 80039f2:	2600      	movs	r6, #0
 80039f4:	341a      	adds	r4, #26
 80039f6:	42b5      	cmp	r5, r6
 80039f8:	d11a      	bne.n	8003a30 <_printf_common+0xc8>
 80039fa:	2000      	movs	r0, #0
 80039fc:	e008      	b.n	8003a10 <_printf_common+0xa8>
 80039fe:	2301      	movs	r3, #1
 8003a00:	4652      	mov	r2, sl
 8003a02:	4641      	mov	r1, r8
 8003a04:	4638      	mov	r0, r7
 8003a06:	47c8      	blx	r9
 8003a08:	3001      	adds	r0, #1
 8003a0a:	d103      	bne.n	8003a14 <_printf_common+0xac>
 8003a0c:	f04f 30ff 	mov.w	r0, #4294967295
 8003a10:	e8bd 87f0 	ldmia.w	sp!, {r4, r5, r6, r7, r8, r9, sl, pc}
 8003a14:	3501      	adds	r5, #1
 8003a16:	e7c6      	b.n	80039a6 <_printf_common+0x3e>
 8003a18:	18e1      	adds	r1, r4, r3
 8003a1a:	1c5a      	adds	r2, r3, #1
 8003a1c:	2030      	movs	r0, #48	@ 0x30
 8003a1e:	f881 0043 	strb.w	r0, [r1, #67]	@ 0x43
 8003a22:	4422      	add	r2, r4
 8003a24:	f894 1045 	ldrb.w	r1, [r4, #69]	@ 0x45
 8003a28:	f882 1043 	strb.w	r1, [r2, #67]	@ 0x43
 8003a2c:	3302      	adds	r3, #2
 8003a2e:	e7c7      	b.n	80039c0 <_printf_common+0x58>
 8003a30:	2301      	movs	r3, #1
 8003a32:	4622      	mov	r2, r4
 8003a34:	4641      	mov	r1, r8
 8003a36:	4638      	mov	r0, r7
 8003a38:	47c8      	blx	r9
 8003a3a:	3001      	adds	r0, #1
 8003a3c:	d0e6      	beq.n	8003a0c <_printf_common+0xa4>
 8003a3e:	3601      	adds	r6, #1
 8003a40:	e7d9      	b.n	80039f6 <_printf_common+0x8e>
	...

08003a44 <_printf_i>:
 8003a44:	e92d 47ff 	stmdb	sp!, {r0, r1, r2, r3, r4, r5, r6, r7, r8, r9, sl, lr}
 8003a48:	7e0f      	ldrb	r7, [r1, #24]
 8003a4a:	9e0c      	ldr	r6, [sp, #48]	@ 0x30
 8003a4c:	2f78      	cmp	r7, #120	@ 0x78
 8003a4e:	4691      	mov	r9, r2
 8003a50:	4680      	mov	r8, r0
 8003a52:	460c      	mov	r4, r1
 8003a54:	469a      	mov	sl, r3
 8003a56:	f101 0243 	add.w	r2, r1, #67	@ 0x43
 8003a5a:	d807      	bhi.n	8003a6c <_printf_i+0x28>
 8003a5c:	2f62      	cmp	r7, #98	@ 0x62
 8003a5e:	d80a      	bhi.n	8003a76 <_printf_i+0x32>
 8003a60:	2f00      	cmp	r7, #0
 8003a62:	f000 80d1 	beq.w	8003c08 <_printf_i+0x1c4>
 8003a66:	2f58      	cmp	r7, #88	@ 0x58
 8003a68:	f000 80b8 	beq.w	8003bdc <_printf_i+0x198>
 8003a6c:	f104 0642 	add.w	r6, r4, #66	@ 0x42
 8003a70:	f884 7042 	strb.w	r7, [r4, #66]	@ 0x42
 8003a74:	e03a      	b.n	8003aec <_printf_i+0xa8>
 8003a76:	f1a7 0363 	sub.w	r3, r7, #99	@ 0x63
 8003a7a:	2b15      	cmp	r3, #21
 8003a7c:	d8f6      	bhi.n	8003a6c <_printf_i+0x28>
 8003a7e:	a101      	add	r1, pc, #4	@ (adr r1, 8003a84 <_printf_i+0x40>)
 8003a80:	f851 f023 	ldr.w	pc, [r1, r3, lsl #2]
 8003a84:	08003add 	.word	0x08003add
 8003a88:	08003af1 	.word	0x08003af1
 8003a8c:	08003a6d 	.word	0x08003a6d
 8003a90:	08003a6d 	.word	0x08003a6d
 8003a94:	08003a6d 	.word	0x08003a6d
 8003a98:	08003a6d 	.word	0x08003a6d
 8003a9c:	08003af1 	.word	0x08003af1
 8003aa0:	08003a6d 	.word	0x08003a6d
 8003aa4:	08003a6d 	.word	0x08003a6d
 8003aa8:	08003a6d 	.word	0x08003a6d
 8003aac:	08003a6d 	.word	0x08003a6d
 8003ab0:	08003bef 	.word	0x08003bef
 8003ab4:	08003b1b 	.word	0x08003b1b
 8003ab8:	08003ba9 	.word	0x08003ba9
 8003abc:	08003a6d 	.word	0x08003a6d
 8003ac0:	08003a6d 	.word	0x08003a6d
 8003ac4:	08003c11 	.word	0x08003c11
 8003ac8:	08003a6d 	.word	0x08003a6d
 8003acc:	08003b1b 	.word	0x08003b1b
 8003ad0:	08003a6d 	.word	0x08003a6d
 8003ad4:	08003a6d 	.word	0x08003a6d
 8003ad8:	08003bb1 	.word	0x08003bb1
 8003adc:	6833      	ldr	r3, [r6, #0]
 8003ade:	1d1a      	adds	r2, r3, #4
 8003ae0:	681b      	ldr	r3, [r3, #0]
 8003ae2:	6032      	str	r2, [r6, #0]
 8003ae4:	f104 0642 	add.w	r6, r4, #66	@ 0x42
 8003ae8:	f884 3042 	strb.w	r3, [r4, #66]	@ 0x42
 8003aec:	2301      	movs	r3, #1
 8003aee:	e09c      	b.n	8003c2a <_printf_i+0x1e6>
 8003af0:	6833      	ldr	r3, [r6, #0]
 8003af2:	6820      	ldr	r0, [r4, #0]
 8003af4:	1d19      	adds	r1, r3, #4
 8003af6:	6031      	str	r1, [r6, #0]
 8003af8:	0606      	lsls	r6, r0, #24
 8003afa:	d501      	bpl.n	8003b00 <_printf_i+0xbc>
 8003afc:	681d      	ldr	r5, [r3, #0]
 8003afe:	e003      	b.n	8003b08 <_printf_i+0xc4>
 8003b00:	0645      	lsls	r5, r0, #25
 8003b02:	d5fb      	bpl.n	8003afc <_printf_i+0xb8>
 8003b04:	f9b3 5000 	ldrsh.w	r5, [r3]
 8003b08:	2d00      	cmp	r5, #0
 8003b0a:	da03      	bge.n	8003b14 <_printf_i+0xd0>
 8003b0c:	232d      	movs	r3, #45	@ 0x2d
 8003b0e:	426d      	negs	r5, r5
 8003b10:	f884 3043 	strb.w	r3, [r4, #67]	@ 0x43
 8003b14:	4858      	ldr	r0, [pc, #352]	@ (8003c78 <_printf_i+0x234>)
 8003b16:	230a      	movs	r3, #10
 8003b18:	e011      	b.n	8003b3e <_printf_i+0xfa>
 8003b1a:	6821      	ldr	r1, [r4, #0]
 8003b1c:	6833      	ldr	r3, [r6, #0]
 8003b1e:	0608      	lsls	r0, r1, #24
 8003b20:	f853 5b04 	ldr.w	r5, [r3], #4
 8003b24:	d402      	bmi.n	8003b2c <_printf_i+0xe8>
 8003b26:	0649      	lsls	r1, r1, #25
 8003b28:	bf48      	it	mi
 8003b2a:	b2ad      	uxthmi	r5, r5
 8003b2c:	2f6f      	cmp	r7, #111	@ 0x6f
 8003b2e:	4852      	ldr	r0, [pc, #328]	@ (8003c78 <_printf_i+0x234>)
 8003b30:	6033      	str	r3, [r6, #0]
 8003b32:	bf14      	ite	ne
 8003b34:	230a      	movne	r3, #10
 8003b36:	2308      	moveq	r3, #8
 8003b38:	2100      	movs	r1, #0
 8003b3a:	f884 1043 	strb.w	r1, [r4, #67]	@ 0x43
 8003b3e:	6866      	ldr	r6, [r4, #4]
 8003b40:	60a6      	str	r6, [r4, #8]
 8003b42:	2e00      	cmp	r6, #0
 8003b44:	db05      	blt.n	8003b52 <_printf_i+0x10e>
 8003b46:	6821      	ldr	r1, [r4, #0]
 8003b48:	432e      	orrs	r6, r5
 8003b4a:	f021 0104 	bic.w	r1, r1, #4
 8003b4e:	6021      	str	r1, [r4, #0]
 8003b50:	d04b      	beq.n	8003bea <_printf_i+0x1a6>
 8003b52:	4616      	mov	r6, r2
 8003b54:	fbb5 f1f3 	udiv	r1, r5, r3
 8003b58:	fb03 5711 	mls	r7, r3, r1, r5
 8003b5c:	5dc7      	ldrb	r7, [r0, r7]
 8003b5e:	f806 7d01 	strb.w	r7, [r6, #-1]!
 8003b62:	462f      	mov	r7, r5
 8003b64:	42bb      	cmp	r3, r7
 8003b66:	460d      	mov	r5, r1
 8003b68:	d9f4      	bls.n	8003b54 <_printf_i+0x110>
 8003b6a:	2b08      	cmp	r3, #8
 8003b6c:	d10b      	bne.n	8003b86 <_printf_i+0x142>
 8003b6e:	6823      	ldr	r3, [r4, #0]
 8003b70:	07df      	lsls	r7, r3, #31
 8003b72:	d508      	bpl.n	8003b86 <_printf_i+0x142>
 8003b74:	6923      	ldr	r3, [r4, #16]
 8003b76:	6861      	ldr	r1, [r4, #4]
 8003b78:	4299      	cmp	r1, r3
 8003b7a:	bfde      	ittt	le
 8003b7c:	2330      	movle	r3, #48	@ 0x30
 8003b7e:	f806 3c01 	strble.w	r3, [r6, #-1]
 8003b82:	f106 36ff 	addle.w	r6, r6, #4294967295
 8003b86:	1b92      	subs	r2, r2, r6
 8003b88:	6122      	str	r2, [r4, #16]
 8003b8a:	f8cd a000 	str.w	sl, [sp]
 8003b8e:	464b      	mov	r3, r9
 8003b90:	aa03      	add	r2, sp, #12
 8003b92:	4621      	mov	r1, r4
 8003b94:	4640      	mov	r0, r8
 8003b96:	f7ff fee7 	bl	8003968 <_printf_common>
 8003b9a:	3001      	adds	r0, #1
 8003b9c:	d14a      	bne.n	8003c34 <_printf_i+0x1f0>
 8003b9e:	f04f 30ff 	mov.w	r0, #4294967295
 8003ba2:	b004      	add	sp, #16
 8003ba4:	e8bd 87f0 	ldmia.w	sp!, {r4, r5, r6, r7, r8, r9, sl, pc}
 8003ba8:	6823      	ldr	r3, [r4, #0]
 8003baa:	f043 0320 	orr.w	r3, r3, #32
 8003bae:	6023      	str	r3, [r4, #0]
 8003bb0:	4832      	ldr	r0, [pc, #200]	@ (8003c7c <_printf_i+0x238>)
 8003bb2:	2778      	movs	r7, #120	@ 0x78
 8003bb4:	f884 7045 	strb.w	r7, [r4, #69]	@ 0x45
 8003bb8:	6823      	ldr	r3, [r4, #0]
 8003bba:	6831      	ldr	r1, [r6, #0]
 8003bbc:	061f      	lsls	r7, r3, #24
 8003bbe:	f851 5b04 	ldr.w	r5, [r1], #4
 8003bc2:	d402      	bmi.n	8003bca <_printf_i+0x186>
 8003bc4:	065f      	lsls	r7, r3, #25
 8003bc6:	bf48      	it	mi
 8003bc8:	b2ad      	uxthmi	r5, r5
 8003bca:	6031      	str	r1, [r6, #0]
 8003bcc:	07d9      	lsls	r1, r3, #31
 8003bce:	bf44      	itt	mi
 8003bd0:	f043 0320 	orrmi.w	r3, r3, #32
 8003bd4:	6023      	strmi	r3, [r4, #0]
 8003bd6:	b11d      	cbz	r5, 8003be0 <_printf_i+0x19c>
 8003bd8:	2310      	movs	r3, #16
 8003bda:	e7ad      	b.n	8003b38 <_printf_i+0xf4>
 8003bdc:	4826      	ldr	r0, [pc, #152]	@ (8003c78 <_printf_i+0x234>)
 8003bde:	e7e9      	b.n	8003bb4 <_printf_i+0x170>
 8003be0:	6823      	ldr	r3, [r4, #0]
 8003be2:	f023 0320 	bic.w	r3, r3, #32
 8003be6:	6023      	str	r3, [r4, #0]
 8003be8:	e7f6      	b.n	8003bd8 <_printf_i+0x194>
 8003bea:	4616      	mov	r6, r2
 8003bec:	e7bd      	b.n	8003b6a <_printf_i+0x126>
 8003bee:	6833      	ldr	r3, [r6, #0]
 8003bf0:	6825      	ldr	r5, [r4, #0]
 8003bf2:	6961      	ldr	r1, [r4, #20]
 8003bf4:	1d18      	adds	r0, r3, #4
 8003bf6:	6030      	str	r0, [r6, #0]
 8003bf8:	062e      	lsls	r6, r5, #24
 8003bfa:	681b      	ldr	r3, [r3, #0]
 8003bfc:	d501      	bpl.n	8003c02 <_printf_i+0x1be>
 8003bfe:	6019      	str	r1, [r3, #0]
 8003c00:	e002      	b.n	8003c08 <_printf_i+0x1c4>
 8003c02:	0668      	lsls	r0, r5, #25
 8003c04:	d5fb      	bpl.n	8003bfe <_printf_i+0x1ba>
 8003c06:	8019      	strh	r1, [r3, #0]
 8003c08:	2300      	movs	r3, #0
 8003c0a:	6123      	str	r3, [r4, #16]
 8003c0c:	4616      	mov	r6, r2
 8003c0e:	e7bc      	b.n	8003b8a <_printf_i+0x146>
 8003c10:	6833      	ldr	r3, [r6, #0]
 8003c12:	1d1a      	adds	r2, r3, #4
 8003c14:	6032      	str	r2, [r6, #0]
 8003c16:	681e      	ldr	r6, [r3, #0]
 8003c18:	6862      	ldr	r2, [r4, #4]
 8003c1a:	2100      	movs	r1, #0
 8003c1c:	4630      	mov	r0, r6
 8003c1e:	f7fc faff 	bl	8000220 <memchr>
 8003c22:	b108      	cbz	r0, 8003c28 <_printf_i+0x1e4>
 8003c24:	1b80      	subs	r0, r0, r6
 8003c26:	6060      	str	r0, [r4, #4]
 8003c28:	6863      	ldr	r3, [r4, #4]
 8003c2a:	6123      	str	r3, [r4, #16]
 8003c2c:	2300      	movs	r3, #0
 8003c2e:	f884 3043 	strb.w	r3, [r4, #67]	@ 0x43
 8003c32:	e7aa      	b.n	8003b8a <_printf_i+0x146>
 8003c34:	6923      	ldr	r3, [r4, #16]
 8003c36:	4632      	mov	r2, r6
 8003c38:	4649      	mov	r1, r9
 8003c3a:	4640      	mov	r0, r8
 8003c3c:	47d0      	blx	sl
 8003c3e:	3001      	adds	r0, #1
 8003c40:	d0ad      	beq.n	8003b9e <_printf_i+0x15a>
 8003c42:	6823      	ldr	r3, [r4, #0]
 8003c44:	079b      	lsls	r3, r3, #30
 8003c46:	d413      	bmi.n	8003c70 <_printf_i+0x22c>
 8003c48:	68e0      	ldr	r0, [r4, #12]
 8003c4a:	9b03      	ldr	r3, [sp, #12]
 8003c4c:	4298      	cmp	r0, r3
 8003c4e:	bfb8      	it	lt
 8003c50:	4618      	movlt	r0, r3
 8003c52:	e7a6      	b.n	8003ba2 <_printf_i+0x15e>
 8003c54:	2301      	movs	r3, #1
 8003c56:	4632      	mov	r2, r6
 8003c58:	4649      	mov	r1, r9
 8003c5a:	4640      	mov	r0, r8
 8003c5c:	47d0      	blx	sl
 8003c5e:	3001      	adds	r0, #1
 8003c60:	d09d      	beq.n	8003b9e <_printf_i+0x15a>
 8003c62:	3501      	adds	r5, #1
 8003c64:	68e3      	ldr	r3, [r4, #12]
 8003c66:	9903      	ldr	r1, [sp, #12]
 8003c68:	1a5b      	subs	r3, r3, r1
 8003c6a:	42ab      	cmp	r3, r5
 8003c6c:	dcf2      	bgt.n	8003c54 <_printf_i+0x210>
 8003c6e:	e7eb      	b.n	8003c48 <_printf_i+0x204>
 8003c70:	2500      	movs	r5, #0
 8003c72:	f104 0619 	add.w	r6, r4, #25
 8003c76:	e7f5      	b.n	8003c64 <_printf_i+0x220>
 8003c78:	08007b0a 	.word	0x08007b0a
 8003c7c:	08007b1b 	.word	0x08007b1b

08003c80 <_scanf_float>:
 8003c80:	e92d 4ff0 	stmdb	sp!, {r4, r5, r6, r7, r8, r9, sl, fp, lr}
 8003c84:	b087      	sub	sp, #28
 8003c86:	4691      	mov	r9, r2
 8003c88:	9303      	str	r3, [sp, #12]
 8003c8a:	688b      	ldr	r3, [r1, #8]
 8003c8c:	1e5a      	subs	r2, r3, #1
 8003c8e:	f5b2 7fae 	cmp.w	r2, #348	@ 0x15c
 8003c92:	bf81      	itttt	hi
 8003c94:	f46f 75ae 	mvnhi.w	r5, #348	@ 0x15c
 8003c98:	eb03 0b05 	addhi.w	fp, r3, r5
 8003c9c:	f240 135d 	movwhi	r3, #349	@ 0x15d
 8003ca0:	608b      	strhi	r3, [r1, #8]
 8003ca2:	680b      	ldr	r3, [r1, #0]
 8003ca4:	460a      	mov	r2, r1
 8003ca6:	f04f 0500 	mov.w	r5, #0
 8003caa:	f443 63f0 	orr.w	r3, r3, #1920	@ 0x780
 8003cae:	f842 3b1c 	str.w	r3, [r2], #28
 8003cb2:	e9cd 5504 	strd	r5, r5, [sp, #16]
 8003cb6:	4680      	mov	r8, r0
 8003cb8:	460c      	mov	r4, r1
 8003cba:	bf98      	it	ls
 8003cbc:	f04f 0b00 	movls.w	fp, #0
 8003cc0:	9201      	str	r2, [sp, #4]
 8003cc2:	4616      	mov	r6, r2
 8003cc4:	46aa      	mov	sl, r5
 8003cc6:	462f      	mov	r7, r5
 8003cc8:	9502      	str	r5, [sp, #8]
 8003cca:	68a2      	ldr	r2, [r4, #8]
 8003ccc:	b15a      	cbz	r2, 8003ce6 <_scanf_float+0x66>
 8003cce:	f8d9 3000 	ldr.w	r3, [r9]
 8003cd2:	781b      	ldrb	r3, [r3, #0]
 8003cd4:	2b4e      	cmp	r3, #78	@ 0x4e
 8003cd6:	d863      	bhi.n	8003da0 <_scanf_float+0x120>
 8003cd8:	2b40      	cmp	r3, #64	@ 0x40
 8003cda:	d83b      	bhi.n	8003d54 <_scanf_float+0xd4>
 8003cdc:	f1a3 012b 	sub.w	r1, r3, #43	@ 0x2b
 8003ce0:	b2c8      	uxtb	r0, r1
 8003ce2:	280e      	cmp	r0, #14
 8003ce4:	d939      	bls.n	8003d5a <_scanf_float+0xda>
 8003ce6:	b11f      	cbz	r7, 8003cf0 <_scanf_float+0x70>
 8003ce8:	6823      	ldr	r3, [r4, #0]
 8003cea:	f423 7380 	bic.w	r3, r3, #256	@ 0x100
 8003cee:	6023      	str	r3, [r4, #0]
 8003cf0:	f10a 3aff 	add.w	sl, sl, #4294967295
 8003cf4:	f1ba 0f01 	cmp.w	sl, #1
 8003cf8:	f200 8114 	bhi.w	8003f24 <_scanf_float+0x2a4>
 8003cfc:	9b01      	ldr	r3, [sp, #4]
 8003cfe:	429e      	cmp	r6, r3
 8003d00:	f200 8105 	bhi.w	8003f0e <_scanf_float+0x28e>
 8003d04:	2001      	movs	r0, #1
 8003d06:	b007      	add	sp, #28
 8003d08:	e8bd 8ff0 	ldmia.w	sp!, {r4, r5, r6, r7, r8, r9, sl, fp, pc}
 8003d0c:	f1a3 0261 	sub.w	r2, r3, #97	@ 0x61
 8003d10:	2a0d      	cmp	r2, #13
 8003d12:	d8e8      	bhi.n	8003ce6 <_scanf_float+0x66>
 8003d14:	a101      	add	r1, pc, #4	@ (adr r1, 8003d1c <_scanf_float+0x9c>)
 8003d16:	f851 f022 	ldr.w	pc, [r1, r2, lsl #2]
 8003d1a:	bf00      	nop
 8003d1c:	08003e65 	.word	0x08003e65
 8003d20:	08003ce7 	.word	0x08003ce7
 8003d24:	08003ce7 	.word	0x08003ce7
 8003d28:	08003ce7 	.word	0x08003ce7
 8003d2c:	08003ec1 	.word	0x08003ec1
 8003d30:	08003e9b 	.word	0x08003e9b
 8003d34:	08003ce7 	.word	0x08003ce7
 8003d38:	08003ce7 	.word	0x08003ce7
 8003d3c:	08003e73 	.word	0x08003e73
 8003d40:	08003ce7 	.word	0x08003ce7
 8003d44:	08003ce7 	.word	0x08003ce7
 8003d48:	08003ce7 	.word	0x08003ce7
 8003d4c:	08003ce7 	.word	0x08003ce7
 8003d50:	08003e2f 	.word	0x08003e2f
 8003d54:	f1a3 0241 	sub.w	r2, r3, #65	@ 0x41
 8003d58:	e7da      	b.n	8003d10 <_scanf_float+0x90>
 8003d5a:	290e      	cmp	r1, #14
 8003d5c:	d8c3      	bhi.n	8003ce6 <_scanf_float+0x66>
 8003d5e:	a001      	add	r0, pc, #4	@ (adr r0, 8003d64 <_scanf_float+0xe4>)
 8003d60:	f850 f021 	ldr.w	pc, [r0, r1, lsl #2]
 8003d64:	08003e1f 	.word	0x08003e1f
 8003d68:	08003ce7 	.word	0x08003ce7
 8003d6c:	08003e1f 	.word	0x08003e1f
 8003d70:	08003eaf 	.word	0x08003eaf
 8003d74:	08003ce7 	.word	0x08003ce7
 8003d78:	08003dc1 	.word	0x08003dc1
 8003d7c:	08003e05 	.word	0x08003e05
 8003d80:	08003e05 	.word	0x08003e05
 8003d84:	08003e05 	.word	0x08003e05
 8003d88:	08003e05 	.word	0x08003e05
 8003d8c:	08003e05 	.word	0x08003e05
 8003d90:	08003e05 	.word	0x08003e05
 8003d94:	08003e05 	.word	0x08003e05
 8003d98:	08003e05 	.word	0x08003e05
 8003d9c:	08003e05 	.word	0x08003e05
 8003da0:	2b6e      	cmp	r3, #110	@ 0x6e
 8003da2:	d809      	bhi.n	8003db8 <_scanf_float+0x138>
 8003da4:	2b60      	cmp	r3, #96	@ 0x60
 8003da6:	d8b1      	bhi.n	8003d0c <_scanf_float+0x8c>
 8003da8:	2b54      	cmp	r3, #84	@ 0x54
 8003daa:	d07b      	beq.n	8003ea4 <_scanf_float+0x224>
 8003dac:	2b59      	cmp	r3, #89	@ 0x59
 8003dae:	d19a      	bne.n	8003ce6 <_scanf_float+0x66>
 8003db0:	2d07      	cmp	r5, #7
 8003db2:	d198      	bne.n	8003ce6 <_scanf_float+0x66>
 8003db4:	2508      	movs	r5, #8
 8003db6:	e02f      	b.n	8003e18 <_scanf_float+0x198>
 8003db8:	2b74      	cmp	r3, #116	@ 0x74
 8003dba:	d073      	beq.n	8003ea4 <_scanf_float+0x224>
 8003dbc:	2b79      	cmp	r3, #121	@ 0x79
 8003dbe:	e7f6      	b.n	8003dae <_scanf_float+0x12e>
 8003dc0:	6821      	ldr	r1, [r4, #0]
 8003dc2:	05c8      	lsls	r0, r1, #23
 8003dc4:	d51e      	bpl.n	8003e04 <_scanf_float+0x184>
 8003dc6:	f021 0180 	bic.w	r1, r1, #128	@ 0x80
 8003dca:	6021      	str	r1, [r4, #0]
 8003dcc:	3701      	adds	r7, #1
 8003dce:	f1bb 0f00 	cmp.w	fp, #0
 8003dd2:	d003      	beq.n	8003ddc <_scanf_float+0x15c>
 8003dd4:	3201      	adds	r2, #1
 8003dd6:	f10b 3bff 	add.w	fp, fp, #4294967295
 8003dda:	60a2      	str	r2, [r4, #8]
 8003ddc:	68a3      	ldr	r3, [r4, #8]
 8003dde:	3b01      	subs	r3, #1
 8003de0:	60a3      	str	r3, [r4, #8]
 8003de2:	6923      	ldr	r3, [r4, #16]
 8003de4:	3301      	adds	r3, #1
 8003de6:	6123      	str	r3, [r4, #16]
 8003de8:	f8d9 3004 	ldr.w	r3, [r9, #4]
 8003dec:	3b01      	subs	r3, #1
 8003dee:	2b00      	cmp	r3, #0
 8003df0:	f8c9 3004 	str.w	r3, [r9, #4]
 8003df4:	f340 8082 	ble.w	8003efc <_scanf_float+0x27c>
 8003df8:	f8d9 3000 	ldr.w	r3, [r9]
 8003dfc:	3301      	adds	r3, #1
 8003dfe:	f8c9 3000 	str.w	r3, [r9]
 8003e02:	e762      	b.n	8003cca <_scanf_float+0x4a>
 8003e04:	eb1a 0105 	adds.w	r1, sl, r5
 8003e08:	f47f af6d 	bne.w	8003ce6 <_scanf_float+0x66>
 8003e0c:	6822      	ldr	r2, [r4, #0]
 8003e0e:	f422 72c0 	bic.w	r2, r2, #384	@ 0x180
 8003e12:	6022      	str	r2, [r4, #0]
 8003e14:	460d      	mov	r5, r1
 8003e16:	468a      	mov	sl, r1
 8003e18:	f806 3b01 	strb.w	r3, [r6], #1
 8003e1c:	e7de      	b.n	8003ddc <_scanf_float+0x15c>
 8003e1e:	6822      	ldr	r2, [r4, #0]
 8003e20:	0610      	lsls	r0, r2, #24
 8003e22:	f57f af60 	bpl.w	8003ce6 <_scanf_float+0x66>
 8003e26:	f022 0280 	bic.w	r2, r2, #128	@ 0x80
 8003e2a:	6022      	str	r2, [r4, #0]
 8003e2c:	e7f4      	b.n	8003e18 <_scanf_float+0x198>
 8003e2e:	f1ba 0f00 	cmp.w	sl, #0
 8003e32:	d10c      	bne.n	8003e4e <_scanf_float+0x1ce>
 8003e34:	b977      	cbnz	r7, 8003e54 <_scanf_float+0x1d4>
 8003e36:	6822      	ldr	r2, [r4, #0]
 8003e38:	f402 61e0 	and.w	r1, r2, #1792	@ 0x700
 8003e3c:	f5b1 6fe0 	cmp.w	r1, #1792	@ 0x700
 8003e40:	d108      	bne.n	8003e54 <_scanf_float+0x1d4>
 8003e42:	f422 62f0 	bic.w	r2, r2, #1920	@ 0x780
 8003e46:	6022      	str	r2, [r4, #0]
 8003e48:	f04f 0a01 	mov.w	sl, #1
 8003e4c:	e7e4      	b.n	8003e18 <_scanf_float+0x198>
 8003e4e:	f1ba 0f02 	cmp.w	sl, #2
 8003e52:	d050      	beq.n	8003ef6 <_scanf_float+0x276>
 8003e54:	2d01      	cmp	r5, #1
 8003e56:	d002      	beq.n	8003e5e <_scanf_float+0x1de>
 8003e58:	2d04      	cmp	r5, #4
 8003e5a:	f47f af44 	bne.w	8003ce6 <_scanf_float+0x66>
 8003e5e:	3501      	adds	r5, #1
 8003e60:	b2ed      	uxtb	r5, r5
 8003e62:	e7d9      	b.n	8003e18 <_scanf_float+0x198>
 8003e64:	f1ba 0f01 	cmp.w	sl, #1
 8003e68:	f47f af3d 	bne.w	8003ce6 <_scanf_float+0x66>
 8003e6c:	f04f 0a02 	mov.w	sl, #2
 8003e70:	e7d2      	b.n	8003e18 <_scanf_float+0x198>
 8003e72:	b975      	cbnz	r5, 8003e92 <_scanf_float+0x212>
 8003e74:	2f00      	cmp	r7, #0
 8003e76:	f47f af37 	bne.w	8003ce8 <_scanf_float+0x68>
 8003e7a:	6822      	ldr	r2, [r4, #0]
 8003e7c:	f402 61e0 	and.w	r1, r2, #1792	@ 0x700
 8003e80:	f5b1 6fe0 	cmp.w	r1, #1792	@ 0x700
 8003e84:	f040 8103 	bne.w	800408e <_scanf_float+0x40e>
 8003e88:	f422 62f0 	bic.w	r2, r2, #1920	@ 0x780
 8003e8c:	6022      	str	r2, [r4, #0]
 8003e8e:	2501      	movs	r5, #1
 8003e90:	e7c2      	b.n	8003e18 <_scanf_float+0x198>
 8003e92:	2d03      	cmp	r5, #3
 8003e94:	d0e3      	beq.n	8003e5e <_scanf_float+0x1de>
 8003e96:	2d05      	cmp	r5, #5
 8003e98:	e7df      	b.n	8003e5a <_scanf_float+0x1da>
 8003e9a:	2d02      	cmp	r5, #2
 8003e9c:	f47f af23 	bne.w	8003ce6 <_scanf_float+0x66>
 8003ea0:	2503      	movs	r5, #3
 8003ea2:	e7b9      	b.n	8003e18 <_scanf_float+0x198>
 8003ea4:	2d06      	cmp	r5, #6
 8003ea6:	f47f af1e 	bne.w	8003ce6 <_scanf_float+0x66>
 8003eaa:	2507      	movs	r5, #7
 8003eac:	e7b4      	b.n	8003e18 <_scanf_float+0x198>
 8003eae:	6822      	ldr	r2, [r4, #0]
 8003eb0:	0591      	lsls	r1, r2, #22
 8003eb2:	f57f af18 	bpl.w	8003ce6 <_scanf_float+0x66>
 8003eb6:	f422 7220 	bic.w	r2, r2, #640	@ 0x280
 8003eba:	6022      	str	r2, [r4, #0]
 8003ebc:	9702      	str	r7, [sp, #8]
 8003ebe:	e7ab      	b.n	8003e18 <_scanf_float+0x198>
 8003ec0:	6822      	ldr	r2, [r4, #0]
 8003ec2:	f402 61a0 	and.w	r1, r2, #1280	@ 0x500
 8003ec6:	f5b1 6f80 	cmp.w	r1, #1024	@ 0x400
 8003eca:	d005      	beq.n	8003ed8 <_scanf_float+0x258>
 8003ecc:	0550      	lsls	r0, r2, #21
 8003ece:	f57f af0a 	bpl.w	8003ce6 <_scanf_float+0x66>
 8003ed2:	2f00      	cmp	r7, #0
 8003ed4:	f000 80db 	beq.w	800408e <_scanf_float+0x40e>
 8003ed8:	0591      	lsls	r1, r2, #22
 8003eda:	bf58      	it	pl
 8003edc:	9902      	ldrpl	r1, [sp, #8]
 8003ede:	f422 62f0 	bic.w	r2, r2, #1920	@ 0x780
 8003ee2:	bf58      	it	pl
 8003ee4:	1a79      	subpl	r1, r7, r1
 8003ee6:	f442 72c0 	orr.w	r2, r2, #384	@ 0x180
 8003eea:	bf58      	it	pl
 8003eec:	e9cd 1604 	strdpl	r1, r6, [sp, #16]
 8003ef0:	6022      	str	r2, [r4, #0]
 8003ef2:	2700      	movs	r7, #0
 8003ef4:	e790      	b.n	8003e18 <_scanf_float+0x198>
 8003ef6:	f04f 0a03 	mov.w	sl, #3
 8003efa:	e78d      	b.n	8003e18 <_scanf_float+0x198>
 8003efc:	f8d4 3180 	ldr.w	r3, [r4, #384]	@ 0x180
 8003f00:	4649      	mov	r1, r9
 8003f02:	4640      	mov	r0, r8
 8003f04:	4798      	blx	r3
 8003f06:	2800      	cmp	r0, #0
 8003f08:	f43f aedf 	beq.w	8003cca <_scanf_float+0x4a>
 8003f0c:	e6eb      	b.n	8003ce6 <_scanf_float+0x66>
 8003f0e:	f8d4 317c 	ldr.w	r3, [r4, #380]	@ 0x17c
 8003f12:	f816 1d01 	ldrb.w	r1, [r6, #-1]!
 8003f16:	464a      	mov	r2, r9
 8003f18:	4640      	mov	r0, r8
 8003f1a:	4798      	blx	r3
 8003f1c:	6923      	ldr	r3, [r4, #16]
 8003f1e:	3b01      	subs	r3, #1
 8003f20:	6123      	str	r3, [r4, #16]
 8003f22:	e6eb      	b.n	8003cfc <_scanf_float+0x7c>
 8003f24:	1e6b      	subs	r3, r5, #1
 8003f26:	2b06      	cmp	r3, #6
 8003f28:	d824      	bhi.n	8003f74 <_scanf_float+0x2f4>
 8003f2a:	2d02      	cmp	r5, #2
 8003f2c:	d836      	bhi.n	8003f9c <_scanf_float+0x31c>
 8003f2e:	9b01      	ldr	r3, [sp, #4]
 8003f30:	429e      	cmp	r6, r3
 8003f32:	f67f aee7 	bls.w	8003d04 <_scanf_float+0x84>
 8003f36:	f8d4 317c 	ldr.w	r3, [r4, #380]	@ 0x17c
 8003f3a:	f816 1d01 	ldrb.w	r1, [r6, #-1]!
 8003f3e:	464a      	mov	r2, r9
 8003f40:	4640      	mov	r0, r8
 8003f42:	4798      	blx	r3
 8003f44:	6923      	ldr	r3, [r4, #16]
 8003f46:	3b01      	subs	r3, #1
 8003f48:	6123      	str	r3, [r4, #16]
 8003f4a:	e7f0      	b.n	8003f2e <_scanf_float+0x2ae>
 8003f4c:	f8d4 317c 	ldr.w	r3, [r4, #380]	@ 0x17c
 8003f50:	f81b 1d01 	ldrb.w	r1, [fp, #-1]!
 8003f54:	464a      	mov	r2, r9
 8003f56:	4640      	mov	r0, r8
 8003f58:	4798      	blx	r3
 8003f5a:	6923      	ldr	r3, [r4, #16]
 8003f5c:	3b01      	subs	r3, #1
 8003f5e:	6123      	str	r3, [r4, #16]
 8003f60:	f10a 3aff 	add.w	sl, sl, #4294967295
 8003f64:	fa5f fa8a 	uxtb.w	sl, sl
 8003f68:	f1ba 0f02 	cmp.w	sl, #2
 8003f6c:	d1ee      	bne.n	8003f4c <_scanf_float+0x2cc>
 8003f6e:	3d03      	subs	r5, #3
 8003f70:	b2ed      	uxtb	r5, r5
 8003f72:	1b76      	subs	r6, r6, r5
 8003f74:	6823      	ldr	r3, [r4, #0]
 8003f76:	05da      	lsls	r2, r3, #23
 8003f78:	d530      	bpl.n	8003fdc <_scanf_float+0x35c>
 8003f7a:	055b      	lsls	r3, r3, #21
 8003f7c:	d511      	bpl.n	8003fa2 <_scanf_float+0x322>
 8003f7e:	9b01      	ldr	r3, [sp, #4]
 8003f80:	429e      	cmp	r6, r3
 8003f82:	f67f aebf 	bls.w	8003d04 <_scanf_float+0x84>
 8003f86:	f8d4 317c 	ldr.w	r3, [r4, #380]	@ 0x17c
 8003f8a:	f816 1d01 	ldrb.w	r1, [r6, #-1]!
 8003f8e:	464a      	mov	r2, r9
 8003f90:	4640      	mov	r0, r8
 8003f92:	4798      	blx	r3
 8003f94:	6923      	ldr	r3, [r4, #16]
 8003f96:	3b01      	subs	r3, #1
 8003f98:	6123      	str	r3, [r4, #16]
 8003f9a:	e7f0      	b.n	8003f7e <_scanf_float+0x2fe>
 8003f9c:	46aa      	mov	sl, r5
 8003f9e:	46b3      	mov	fp, r6
 8003fa0:	e7de      	b.n	8003f60 <_scanf_float+0x2e0>
 8003fa2:	f816 1c01 	ldrb.w	r1, [r6, #-1]
 8003fa6:	6923      	ldr	r3, [r4, #16]
 8003fa8:	2965      	cmp	r1, #101	@ 0x65
 8003faa:	f103 33ff 	add.w	r3, r3, #4294967295
 8003fae:	f106 35ff 	add.w	r5, r6, #4294967295
 8003fb2:	6123      	str	r3, [r4, #16]
 8003fb4:	d00c      	beq.n	8003fd0 <_scanf_float+0x350>
 8003fb6:	2945      	cmp	r1, #69	@ 0x45
 8003fb8:	d00a      	beq.n	8003fd0 <_scanf_float+0x350>
 8003fba:	f8d4 317c 	ldr.w	r3, [r4, #380]	@ 0x17c
 8003fbe:	464a      	mov	r2, r9
 8003fc0:	4640      	mov	r0, r8
 8003fc2:	4798      	blx	r3
 8003fc4:	6923      	ldr	r3, [r4, #16]
 8003fc6:	f816 1c02 	ldrb.w	r1, [r6, #-2]
 8003fca:	3b01      	subs	r3, #1
 8003fcc:	1eb5      	subs	r5, r6, #2
 8003fce:	6123      	str	r3, [r4, #16]
 8003fd0:	f8d4 317c 	ldr.w	r3, [r4, #380]	@ 0x17c
 8003fd4:	464a      	mov	r2, r9
 8003fd6:	4640      	mov	r0, r8
 8003fd8:	4798      	blx	r3
 8003fda:	462e      	mov	r6, r5
 8003fdc:	6822      	ldr	r2, [r4, #0]
 8003fde:	f012 0210 	ands.w	r2, r2, #16
 8003fe2:	d001      	beq.n	8003fe8 <_scanf_float+0x368>
 8003fe4:	2000      	movs	r0, #0
 8003fe6:	e68e      	b.n	8003d06 <_scanf_float+0x86>
 8003fe8:	7032      	strb	r2, [r6, #0]
 8003fea:	6823      	ldr	r3, [r4, #0]
 8003fec:	f403 63c0 	and.w	r3, r3, #1536	@ 0x600
 8003ff0:	f5b3 6f80 	cmp.w	r3, #1024	@ 0x400
 8003ff4:	d125      	bne.n	8004042 <_scanf_float+0x3c2>
 8003ff6:	9b02      	ldr	r3, [sp, #8]
 8003ff8:	429f      	cmp	r7, r3
 8003ffa:	d00a      	beq.n	8004012 <_scanf_float+0x392>
 8003ffc:	1bda      	subs	r2, r3, r7
 8003ffe:	f204 136f 	addw	r3, r4, #367	@ 0x16f
 8004002:	429e      	cmp	r6, r3
 8004004:	bf28      	it	cs
 8004006:	f504 76b7 	addcs.w	r6, r4, #366	@ 0x16e
 800400a:	4922      	ldr	r1, [pc, #136]	@ (8004094 <_scanf_float+0x414>)
 800400c:	4630      	mov	r0, r6
 800400e:	f000 f907 	bl	8004220 <siprintf>
 8004012:	9901      	ldr	r1, [sp, #4]
 8004014:	2200      	movs	r2, #0
 8004016:	4640      	mov	r0, r8
 8004018:	f002 fbf2 	bl	8006800 <_strtod_r>
 800401c:	9b03      	ldr	r3, [sp, #12]
 800401e:	6821      	ldr	r1, [r4, #0]
 8004020:	681b      	ldr	r3, [r3, #0]
 8004022:	f011 0f02 	tst.w	r1, #2
 8004026:	ec57 6b10 	vmov	r6, r7, d0
 800402a:	f103 0204 	add.w	r2, r3, #4
 800402e:	d015      	beq.n	800405c <_scanf_float+0x3dc>
 8004030:	9903      	ldr	r1, [sp, #12]
 8004032:	600a      	str	r2, [r1, #0]
 8004034:	681b      	ldr	r3, [r3, #0]
 8004036:	e9c3 6700 	strd	r6, r7, [r3]
 800403a:	68e3      	ldr	r3, [r4, #12]
 800403c:	3301      	adds	r3, #1
 800403e:	60e3      	str	r3, [r4, #12]
 8004040:	e7d0      	b.n	8003fe4 <_scanf_float+0x364>
 8004042:	9b04      	ldr	r3, [sp, #16]
 8004044:	2b00      	cmp	r3, #0
 8004046:	d0e4      	beq.n	8004012 <_scanf_float+0x392>
 8004048:	9905      	ldr	r1, [sp, #20]
 800404a:	230a      	movs	r3, #10
 800404c:	3101      	adds	r1, #1
 800404e:	4640      	mov	r0, r8
 8004050:	f002 fc56 	bl	8006900 <_strtol_r>
 8004054:	9b04      	ldr	r3, [sp, #16]
 8004056:	9e05      	ldr	r6, [sp, #20]
 8004058:	1ac2      	subs	r2, r0, r3
 800405a:	e7d0      	b.n	8003ffe <_scanf_float+0x37e>
 800405c:	f011 0f04 	tst.w	r1, #4
 8004060:	9903      	ldr	r1, [sp, #12]
 8004062:	600a      	str	r2, [r1, #0]
 8004064:	d1e6      	bne.n	8004034 <_scanf_float+0x3b4>
 8004066:	681d      	ldr	r5, [r3, #0]
 8004068:	4632      	mov	r2, r6
 800406a:	463b      	mov	r3, r7
 800406c:	4630      	mov	r0, r6
 800406e:	4639      	mov	r1, r7
 8004070:	f7fc fd84 	bl	8000b7c <__aeabi_dcmpun>
 8004074:	b128      	cbz	r0, 8004082 <_scanf_float+0x402>
 8004076:	4808      	ldr	r0, [pc, #32]	@ (8004098 <_scanf_float+0x418>)
 8004078:	f000 f9b8 	bl	80043ec <nanf>
 800407c:	ed85 0a00 	vstr	s0, [r5]
 8004080:	e7db      	b.n	800403a <_scanf_float+0x3ba>
 8004082:	4630      	mov	r0, r6
 8004084:	4639      	mov	r1, r7
 8004086:	f7fc fdd7 	bl	8000c38 <__aeabi_d2f>
 800408a:	6028      	str	r0, [r5, #0]
 800408c:	e7d5      	b.n	800403a <_scanf_float+0x3ba>
 800408e:	2700      	movs	r7, #0
 8004090:	e62e      	b.n	8003cf0 <_scanf_float+0x70>
 8004092:	bf00      	nop
 8004094:	08007b2c 	.word	0x08007b2c
 8004098:	08007c6d 	.word	0x08007c6d

0800409c <std>:
 800409c:	2300      	movs	r3, #0
 800409e:	b510      	push	{r4, lr}
 80040a0:	4604      	mov	r4, r0
 80040a2:	e9c0 3300 	strd	r3, r3, [r0]
 80040a6:	e9c0 3304 	strd	r3, r3, [r0, #16]
 80040aa:	6083      	str	r3, [r0, #8]
 80040ac:	8181      	strh	r1, [r0, #12]
 80040ae:	6643      	str	r3, [r0, #100]	@ 0x64
 80040b0:	81c2      	strh	r2, [r0, #14]
 80040b2:	6183      	str	r3, [r0, #24]
 80040b4:	4619      	mov	r1, r3
 80040b6:	2208      	movs	r2, #8
 80040b8:	305c      	adds	r0, #92	@ 0x5c
 80040ba:	f000 f916 	bl	80042ea <memset>
 80040be:	4b0d      	ldr	r3, [pc, #52]	@ (80040f4 <std+0x58>)
 80040c0:	6263      	str	r3, [r4, #36]	@ 0x24
 80040c2:	4b0d      	ldr	r3, [pc, #52]	@ (80040f8 <std+0x5c>)
 80040c4:	62a3      	str	r3, [r4, #40]	@ 0x28
 80040c6:	4b0d      	ldr	r3, [pc, #52]	@ (80040fc <std+0x60>)
 80040c8:	62e3      	str	r3, [r4, #44]	@ 0x2c
 80040ca:	4b0d      	ldr	r3, [pc, #52]	@ (8004100 <std+0x64>)
 80040cc:	6323      	str	r3, [r4, #48]	@ 0x30
 80040ce:	4b0d      	ldr	r3, [pc, #52]	@ (8004104 <std+0x68>)
 80040d0:	6224      	str	r4, [r4, #32]
 80040d2:	429c      	cmp	r4, r3
 80040d4:	d006      	beq.n	80040e4 <std+0x48>
 80040d6:	f103 0268 	add.w	r2, r3, #104	@ 0x68
 80040da:	4294      	cmp	r4, r2
 80040dc:	d002      	beq.n	80040e4 <std+0x48>
 80040de:	33d0      	adds	r3, #208	@ 0xd0
 80040e0:	429c      	cmp	r4, r3
 80040e2:	d105      	bne.n	80040f0 <std+0x54>
 80040e4:	f104 0058 	add.w	r0, r4, #88	@ 0x58
 80040e8:	e8bd 4010 	ldmia.w	sp!, {r4, lr}
 80040ec:	f000 b97a 	b.w	80043e4 <__retarget_lock_init_recursive>
 80040f0:	bd10      	pop	{r4, pc}
 80040f2:	bf00      	nop
 80040f4:	08004265 	.word	0x08004265
 80040f8:	08004287 	.word	0x08004287
 80040fc:	080042bf 	.word	0x080042bf
 8004100:	080042e3 	.word	0x080042e3
 8004104:	2000065c 	.word	0x2000065c

08004108 <stdio_exit_handler>:
 8004108:	4a02      	ldr	r2, [pc, #8]	@ (8004114 <stdio_exit_handler+0xc>)
 800410a:	4903      	ldr	r1, [pc, #12]	@ (8004118 <stdio_exit_handler+0x10>)
 800410c:	4803      	ldr	r0, [pc, #12]	@ (800411c <stdio_exit_handler+0x14>)
 800410e:	f000 b869 	b.w	80041e4 <_fwalk_sglue>
 8004112:	bf00      	nop
 8004114:	2000000c 	.word	0x2000000c
 8004118:	08006cbd 	.word	0x08006cbd
 800411c:	2000001c 	.word	0x2000001c

08004120 <cleanup_stdio>:
 8004120:	6841      	ldr	r1, [r0, #4]
 8004122:	4b0c      	ldr	r3, [pc, #48]	@ (8004154 <cleanup_stdio+0x34>)
 8004124:	4299      	cmp	r1, r3
 8004126:	b510      	push	{r4, lr}
 8004128:	4604      	mov	r4, r0
 800412a:	d001      	beq.n	8004130 <cleanup_stdio+0x10>
 800412c:	f002 fdc6 	bl	8006cbc <_fflush_r>
 8004130:	68a1      	ldr	r1, [r4, #8]
 8004132:	4b09      	ldr	r3, [pc, #36]	@ (8004158 <cleanup_stdio+0x38>)
 8004134:	4299      	cmp	r1, r3
 8004136:	d002      	beq.n	800413e <cleanup_stdio+0x1e>
 8004138:	4620      	mov	r0, r4
 800413a:	f002 fdbf 	bl	8006cbc <_fflush_r>
 800413e:	68e1      	ldr	r1, [r4, #12]
 8004140:	4b06      	ldr	r3, [pc, #24]	@ (800415c <cleanup_stdio+0x3c>)
 8004142:	4299      	cmp	r1, r3
 8004144:	d004      	beq.n	8004150 <cleanup_stdio+0x30>
 8004146:	4620      	mov	r0, r4
 8004148:	e8bd 4010 	ldmia.w	sp!, {r4, lr}
 800414c:	f002 bdb6 	b.w	8006cbc <_fflush_r>
 8004150:	bd10      	pop	{r4, pc}
 8004152:	bf00      	nop
 8004154:	2000065c 	.word	0x2000065c
 8004158:	200006c4 	.word	0x200006c4
 800415c:	2000072c 	.word	0x2000072c

08004160 <global_stdio_init.part.0>:
 8004160:	b510      	push	{r4, lr}
 8004162:	4b0b      	ldr	r3, [pc, #44]	@ (8004190 <global_stdio_init.part.0+0x30>)
 8004164:	4c0b      	ldr	r4, [pc, #44]	@ (8004194 <global_stdio_init.part.0+0x34>)
 8004166:	4a0c      	ldr	r2, [pc, #48]	@ (8004198 <global_stdio_init.part.0+0x38>)
 8004168:	601a      	str	r2, [r3, #0]
 800416a:	4620      	mov	r0, r4
 800416c:	2200      	movs	r2, #0
 800416e:	2104      	movs	r1, #4
 8004170:	f7ff ff94 	bl	800409c <std>
 8004174:	f104 0068 	add.w	r0, r4, #104	@ 0x68
 8004178:	2201      	movs	r2, #1
 800417a:	2109      	movs	r1, #9
 800417c:	f7ff ff8e 	bl	800409c <std>
 8004180:	f104 00d0 	add.w	r0, r4, #208	@ 0xd0
 8004184:	2202      	movs	r2, #2
 8004186:	e8bd 4010 	ldmia.w	sp!, {r4, lr}
 800418a:	2112      	movs	r1, #18
 800418c:	f7ff bf86 	b.w	800409c <std>
 8004190:	20000794 	.word	0x20000794
 8004194:	2000065c 	.word	0x2000065c
 8004198:	08004109 	.word	0x08004109

0800419c <__sfp_lock_acquire>:
 800419c:	4801      	ldr	r0, [pc, #4]	@ (80041a4 <__sfp_lock_acquire+0x8>)
 800419e:	f000 b922 	b.w	80043e6 <__retarget_lock_acquire_recursive>
 80041a2:	bf00      	nop
 80041a4:	2000079d 	.word	0x2000079d

080041a8 <__sfp_lock_release>:
 80041a8:	4801      	ldr	r0, [pc, #4]	@ (80041b0 <__sfp_lock_release+0x8>)
 80041aa:	f000 b91d 	b.w	80043e8 <__retarget_lock_release_recursive>
 80041ae:	bf00      	nop
 80041b0:	2000079d 	.word	0x2000079d

080041b4 <__sinit>:
 80041b4:	b510      	push	{r4, lr}
 80041b6:	4604      	mov	r4, r0
 80041b8:	f7ff fff0 	bl	800419c <__sfp_lock_acquire>
 80041bc:	6a23      	ldr	r3, [r4, #32]
 80041be:	b11b      	cbz	r3, 80041c8 <__sinit+0x14>
 80041c0:	e8bd 4010 	ldmia.w	sp!, {r4, lr}
 80041c4:	f7ff bff0 	b.w	80041a8 <__sfp_lock_release>
 80041c8:	4b04      	ldr	r3, [pc, #16]	@ (80041dc <__sinit+0x28>)
 80041ca:	6223      	str	r3, [r4, #32]
 80041cc:	4b04      	ldr	r3, [pc, #16]	@ (80041e0 <__sinit+0x2c>)
 80041ce:	681b      	ldr	r3, [r3, #0]
 80041d0:	2b00      	cmp	r3, #0
 80041d2:	d1f5      	bne.n	80041c0 <__sinit+0xc>
 80041d4:	f7ff ffc4 	bl	8004160 <global_stdio_init.part.0>
 80041d8:	e7f2      	b.n	80041c0 <__sinit+0xc>
 80041da:	bf00      	nop
 80041dc:	08004121 	.word	0x08004121
 80041e0:	20000794 	.word	0x20000794

080041e4 <_fwalk_sglue>:
 80041e4:	e92d 43f8 	stmdb	sp!, {r3, r4, r5, r6, r7, r8, r9, lr}
 80041e8:	4607      	mov	r7, r0
 80041ea:	4688      	mov	r8, r1
 80041ec:	4614      	mov	r4, r2
 80041ee:	2600      	movs	r6, #0
 80041f0:	e9d4 9501 	ldrd	r9, r5, [r4, #4]
 80041f4:	f1b9 0901 	subs.w	r9, r9, #1
 80041f8:	d505      	bpl.n	8004206 <_fwalk_sglue+0x22>
 80041fa:	6824      	ldr	r4, [r4, #0]
 80041fc:	2c00      	cmp	r4, #0
 80041fe:	d1f7      	bne.n	80041f0 <_fwalk_sglue+0xc>
 8004200:	4630      	mov	r0, r6
 8004202:	e8bd 83f8 	ldmia.w	sp!, {r3, r4, r5, r6, r7, r8, r9, pc}
 8004206:	89ab      	ldrh	r3, [r5, #12]
 8004208:	2b01      	cmp	r3, #1
 800420a:	d907      	bls.n	800421c <_fwalk_sglue+0x38>
 800420c:	f9b5 300e 	ldrsh.w	r3, [r5, #14]
 8004210:	3301      	adds	r3, #1
 8004212:	d003      	beq.n	800421c <_fwalk_sglue+0x38>
 8004214:	4629      	mov	r1, r5
 8004216:	4638      	mov	r0, r7
 8004218:	47c0      	blx	r8
 800421a:	4306      	orrs	r6, r0
 800421c:	3568      	adds	r5, #104	@ 0x68
 800421e:	e7e9      	b.n	80041f4 <_fwalk_sglue+0x10>

08004220 <siprintf>:
 8004220:	b40e      	push	{r1, r2, r3}
 8004222:	b510      	push	{r4, lr}
 8004224:	b09d      	sub	sp, #116	@ 0x74
 8004226:	ab1f      	add	r3, sp, #124	@ 0x7c
 8004228:	9002      	str	r0, [sp, #8]
 800422a:	9006      	str	r0, [sp, #24]
 800422c:	f06f 4100 	mvn.w	r1, #2147483648	@ 0x80000000
 8004230:	480a      	ldr	r0, [pc, #40]	@ (800425c <siprintf+0x3c>)
 8004232:	9107      	str	r1, [sp, #28]
 8004234:	9104      	str	r1, [sp, #16]
 8004236:	490a      	ldr	r1, [pc, #40]	@ (8004260 <siprintf+0x40>)
 8004238:	f853 2b04 	ldr.w	r2, [r3], #4
 800423c:	9105      	str	r1, [sp, #20]
 800423e:	2400      	movs	r4, #0
 8004240:	a902      	add	r1, sp, #8
 8004242:	6800      	ldr	r0, [r0, #0]
 8004244:	9301      	str	r3, [sp, #4]
 8004246:	941b      	str	r4, [sp, #108]	@ 0x6c
 8004248:	f002 fbb8 	bl	80069bc <_svfiprintf_r>
 800424c:	9b02      	ldr	r3, [sp, #8]
 800424e:	701c      	strb	r4, [r3, #0]
 8004250:	b01d      	add	sp, #116	@ 0x74
 8004252:	e8bd 4010 	ldmia.w	sp!, {r4, lr}
 8004256:	b003      	add	sp, #12
 8004258:	4770      	bx	lr
 800425a:	bf00      	nop
 800425c:	20000018 	.word	0x20000018
 8004260:	ffff0208 	.word	0xffff0208

08004264 <__sread>:
 8004264:	b510      	push	{r4, lr}
 8004266:	460c      	mov	r4, r1
 8004268:	f9b1 100e 	ldrsh.w	r1, [r1, #14]
 800426c:	f000 f86c 	bl	8004348 <_read_r>
 8004270:	2800      	cmp	r0, #0
 8004272:	bfab      	itete	ge
 8004274:	6d63      	ldrge	r3, [r4, #84]	@ 0x54
 8004276:	89a3      	ldrhlt	r3, [r4, #12]
 8004278:	181b      	addge	r3, r3, r0
 800427a:	f423 5380 	biclt.w	r3, r3, #4096	@ 0x1000
 800427e:	bfac      	ite	ge
 8004280:	6563      	strge	r3, [r4, #84]	@ 0x54
 8004282:	81a3      	strhlt	r3, [r4, #12]
 8004284:	bd10      	pop	{r4, pc}

08004286 <__swrite>:
 8004286:	e92d 41f0 	stmdb	sp!, {r4, r5, r6, r7, r8, lr}
 800428a:	461f      	mov	r7, r3
 800428c:	898b      	ldrh	r3, [r1, #12]
 800428e:	05db      	lsls	r3, r3, #23
 8004290:	4605      	mov	r5, r0
 8004292:	460c      	mov	r4, r1
 8004294:	4616      	mov	r6, r2
 8004296:	d505      	bpl.n	80042a4 <__swrite+0x1e>
 8004298:	f9b1 100e 	ldrsh.w	r1, [r1, #14]
 800429c:	2302      	movs	r3, #2
 800429e:	2200      	movs	r2, #0
 80042a0:	f000 f840 	bl	8004324 <_lseek_r>
 80042a4:	89a3      	ldrh	r3, [r4, #12]
 80042a6:	f9b4 100e 	ldrsh.w	r1, [r4, #14]
 80042aa:	f423 5380 	bic.w	r3, r3, #4096	@ 0x1000
 80042ae:	81a3      	strh	r3, [r4, #12]
 80042b0:	4632      	mov	r2, r6
 80042b2:	463b      	mov	r3, r7
 80042b4:	4628      	mov	r0, r5
 80042b6:	e8bd 41f0 	ldmia.w	sp!, {r4, r5, r6, r7, r8, lr}
 80042ba:	f000 b857 	b.w	800436c <_write_r>

080042be <__sseek>:
 80042be:	b510      	push	{r4, lr}
 80042c0:	460c      	mov	r4, r1
 80042c2:	f9b1 100e 	ldrsh.w	r1, [r1, #14]
 80042c6:	f000 f82d 	bl	8004324 <_lseek_r>
 80042ca:	1c43      	adds	r3, r0, #1
 80042cc:	89a3      	ldrh	r3, [r4, #12]
 80042ce:	bf15      	itete	ne
 80042d0:	6560      	strne	r0, [r4, #84]	@ 0x54
 80042d2:	f423 5380 	biceq.w	r3, r3, #4096	@ 0x1000
 80042d6:	f443 5380 	orrne.w	r3, r3, #4096	@ 0x1000
 80042da:	81a3      	strheq	r3, [r4, #12]
 80042dc:	bf18      	it	ne
 80042de:	81a3      	strhne	r3, [r4, #12]
 80042e0:	bd10      	pop	{r4, pc}

080042e2 <__sclose>:
 80042e2:	f9b1 100e 	ldrsh.w	r1, [r1, #14]
 80042e6:	f000 b80d 	b.w	8004304 <_close_r>

080042ea <memset>:
 80042ea:	4402      	add	r2, r0
 80042ec:	4603      	mov	r3, r0
 80042ee:	4293      	cmp	r3, r2
 80042f0:	d100      	bne.n	80042f4 <memset+0xa>
 80042f2:	4770      	bx	lr
 80042f4:	f803 1b01 	strb.w	r1, [r3], #1
 80042f8:	e7f9      	b.n	80042ee <memset+0x4>
	...

080042fc <_localeconv_r>:
 80042fc:	4800      	ldr	r0, [pc, #0]	@ (8004300 <_localeconv_r+0x4>)
 80042fe:	4770      	bx	lr
 8004300:	20000158 	.word	0x20000158

08004304 <_close_r>:
 8004304:	b538      	push	{r3, r4, r5, lr}
 8004306:	4d06      	ldr	r5, [pc, #24]	@ (8004320 <_close_r+0x1c>)
 8004308:	2300      	movs	r3, #0
 800430a:	4604      	mov	r4, r0
 800430c:	4608      	mov	r0, r1
 800430e:	602b      	str	r3, [r5, #0]
 8004310:	f7fd f8b2 	bl	8001478 <_close>
 8004314:	1c43      	adds	r3, r0, #1
 8004316:	d102      	bne.n	800431e <_close_r+0x1a>
 8004318:	682b      	ldr	r3, [r5, #0]
 800431a:	b103      	cbz	r3, 800431e <_close_r+0x1a>
 800431c:	6023      	str	r3, [r4, #0]
 800431e:	bd38      	pop	{r3, r4, r5, pc}
 8004320:	20000798 	.word	0x20000798

08004324 <_lseek_r>:
 8004324:	b538      	push	{r3, r4, r5, lr}
 8004326:	4d07      	ldr	r5, [pc, #28]	@ (8004344 <_lseek_r+0x20>)
 8004328:	4604      	mov	r4, r0
 800432a:	4608      	mov	r0, r1
 800432c:	4611      	mov	r1, r2
 800432e:	2200      	movs	r2, #0
 8004330:	602a      	str	r2, [r5, #0]
 8004332:	461a      	mov	r2, r3
 8004334:	f7fd f8aa 	bl	800148c <_lseek>
 8004338:	1c43      	adds	r3, r0, #1
 800433a:	d102      	bne.n	8004342 <_lseek_r+0x1e>
 800433c:	682b      	ldr	r3, [r5, #0]
 800433e:	b103      	cbz	r3, 8004342 <_lseek_r+0x1e>
 8004340:	6023      	str	r3, [r4, #0]
 8004342:	bd38      	pop	{r3, r4, r5, pc}
 8004344:	20000798 	.word	0x20000798

08004348 <_read_r>:
 8004348:	b538      	push	{r3, r4, r5, lr}
 800434a:	4d07      	ldr	r5, [pc, #28]	@ (8004368 <_read_r+0x20>)
 800434c:	4604      	mov	r4, r0
 800434e:	4608      	mov	r0, r1
 8004350:	4611      	mov	r1, r2
 8004352:	2200      	movs	r2, #0
 8004354:	602a      	str	r2, [r5, #0]
 8004356:	461a      	mov	r2, r3
 8004358:	f7fd f872 	bl	8001440 <_read>
 800435c:	1c43      	adds	r3, r0, #1
 800435e:	d102      	bne.n	8004366 <_read_r+0x1e>
 8004360:	682b      	ldr	r3, [r5, #0]
 8004362:	b103      	cbz	r3, 8004366 <_read_r+0x1e>
 8004364:	6023      	str	r3, [r4, #0]
 8004366:	bd38      	pop	{r3, r4, r5, pc}
 8004368:	20000798 	.word	0x20000798

0800436c <_write_r>:
 800436c:	b538      	push	{r3, r4, r5, lr}
 800436e:	4d07      	ldr	r5, [pc, #28]	@ (800438c <_write_r+0x20>)
 8004370:	4604      	mov	r4, r0
 8004372:	4608      	mov	r0, r1
 8004374:	4611      	mov	r1, r2
 8004376:	2200      	movs	r2, #0
 8004378:	602a      	str	r2, [r5, #0]
 800437a:	461a      	mov	r2, r3
 800437c:	f7fd f86e 	bl	800145c <_write>
 8004380:	1c43      	adds	r3, r0, #1
 8004382:	d102      	bne.n	800438a <_write_r+0x1e>
 8004384:	682b      	ldr	r3, [r5, #0]
 8004386:	b103      	cbz	r3, 800438a <_write_r+0x1e>
 8004388:	6023      	str	r3, [r4, #0]
 800438a:	bd38      	pop	{r3, r4, r5, pc}
 800438c:	20000798 	.word	0x20000798

08004390 <__errno>:
 8004390:	4b01      	ldr	r3, [pc, #4]	@ (8004398 <__errno+0x8>)
 8004392:	6818      	ldr	r0, [r3, #0]
 8004394:	4770      	bx	lr
 8004396:	bf00      	nop
 8004398:	20000018 	.word	0x20000018

0800439c <__libc_init_array>:
 800439c:	b570      	push	{r4, r5, r6, lr}
 800439e:	4d0d      	ldr	r5, [pc, #52]	@ (80043d4 <__libc_init_array+0x38>)
 80043a0:	4c0d      	ldr	r4, [pc, #52]	@ (80043d8 <__libc_init_array+0x3c>)
 80043a2:	1b64      	subs	r4, r4, r5
 80043a4:	10a4      	asrs	r4, r4, #2
 80043a6:	2600      	movs	r6, #0
 80043a8:	42a6      	cmp	r6, r4
 80043aa:	d109      	bne.n	80043c0 <__libc_init_array+0x24>
 80043ac:	4d0b      	ldr	r5, [pc, #44]	@ (80043dc <__libc_init_array+0x40>)
 80043ae:	4c0c      	ldr	r4, [pc, #48]	@ (80043e0 <__libc_init_array+0x44>)
 80043b0:	f003 fb74 	bl	8007a9c <_init>
 80043b4:	1b64      	subs	r4, r4, r5
 80043b6:	10a4      	asrs	r4, r4, #2
 80043b8:	2600      	movs	r6, #0
 80043ba:	42a6      	cmp	r6, r4
 80043bc:	d105      	bne.n	80043ca <__libc_init_array+0x2e>
 80043be:	bd70      	pop	{r4, r5, r6, pc}
 80043c0:	f855 3b04 	ldr.w	r3, [r5], #4
 80043c4:	4798      	blx	r3
 80043c6:	3601      	adds	r6, #1
 80043c8:	e7ee      	b.n	80043a8 <__libc_init_array+0xc>
 80043ca:	f855 3b04 	ldr.w	r3, [r5], #4
 80043ce:	4798      	blx	r3
 80043d0:	3601      	adds	r6, #1
 80043d2:	e7f2      	b.n	80043ba <__libc_init_array+0x1e>
 80043d4:	08007f2c 	.word	0x08007f2c
 80043d8:	08007f2c 	.word	0x08007f2c
 80043dc:	08007f2c 	.word	0x08007f2c
 80043e0:	08007f30 	.word	0x08007f30

080043e4 <__retarget_lock_init_recursive>:
 80043e4:	4770      	bx	lr

080043e6 <__retarget_lock_acquire_recursive>:
 80043e6:	4770      	bx	lr

080043e8 <__retarget_lock_release_recursive>:
 80043e8:	4770      	bx	lr
	...

080043ec <nanf>:
 80043ec:	ed9f 0a01 	vldr	s0, [pc, #4]	@ 80043f4 <nanf+0x8>
 80043f0:	4770      	bx	lr
 80043f2:	bf00      	nop
 80043f4:	7fc00000 	.word	0x7fc00000

080043f8 <quorem>:
 80043f8:	e92d 4ff7 	stmdb	sp!, {r0, r1, r2, r4, r5, r6, r7, r8, r9, sl, fp, lr}
 80043fc:	6903      	ldr	r3, [r0, #16]
 80043fe:	690c      	ldr	r4, [r1, #16]
 8004400:	42a3      	cmp	r3, r4
 8004402:	4607      	mov	r7, r0
 8004404:	db7e      	blt.n	8004504 <quorem+0x10c>
 8004406:	3c01      	subs	r4, #1
 8004408:	f101 0814 	add.w	r8, r1, #20
 800440c:	00a3      	lsls	r3, r4, #2
 800440e:	f100 0514 	add.w	r5, r0, #20
 8004412:	9300      	str	r3, [sp, #0]
 8004414:	eb05 0384 	add.w	r3, r5, r4, lsl #2
 8004418:	9301      	str	r3, [sp, #4]
 800441a:	f858 3024 	ldr.w	r3, [r8, r4, lsl #2]
 800441e:	f855 2024 	ldr.w	r2, [r5, r4, lsl #2]
 8004422:	3301      	adds	r3, #1
 8004424:	429a      	cmp	r2, r3
 8004426:	eb08 0984 	add.w	r9, r8, r4, lsl #2
 800442a:	fbb2 f6f3 	udiv	r6, r2, r3
 800442e:	d32e      	bcc.n	800448e <quorem+0x96>
 8004430:	f04f 0a00 	mov.w	sl, #0
 8004434:	46c4      	mov	ip, r8
 8004436:	46ae      	mov	lr, r5
 8004438:	46d3      	mov	fp, sl
 800443a:	f85c 3b04 	ldr.w	r3, [ip], #4
 800443e:	b298      	uxth	r0, r3
 8004440:	fb06 a000 	mla	r0, r6, r0, sl
 8004444:	0c02      	lsrs	r2, r0, #16
 8004446:	0c1b      	lsrs	r3, r3, #16
 8004448:	fb06 2303 	mla	r3, r6, r3, r2
 800444c:	f8de 2000 	ldr.w	r2, [lr]
 8004450:	b280      	uxth	r0, r0
 8004452:	b292      	uxth	r2, r2
 8004454:	1a12      	subs	r2, r2, r0
 8004456:	445a      	add	r2, fp
 8004458:	f8de 0000 	ldr.w	r0, [lr]
 800445c:	ea4f 4a13 	mov.w	sl, r3, lsr #16
 8004460:	b29b      	uxth	r3, r3
 8004462:	ebc3 4322 	rsb	r3, r3, r2, asr #16
 8004466:	eb03 4310 	add.w	r3, r3, r0, lsr #16
 800446a:	b292      	uxth	r2, r2
 800446c:	ea42 4203 	orr.w	r2, r2, r3, lsl #16
 8004470:	45e1      	cmp	r9, ip
 8004472:	f84e 2b04 	str.w	r2, [lr], #4
 8004476:	ea4f 4b23 	mov.w	fp, r3, asr #16
 800447a:	d2de      	bcs.n	800443a <quorem+0x42>
 800447c:	9b00      	ldr	r3, [sp, #0]
 800447e:	58eb      	ldr	r3, [r5, r3]
 8004480:	b92b      	cbnz	r3, 800448e <quorem+0x96>
 8004482:	9b01      	ldr	r3, [sp, #4]
 8004484:	3b04      	subs	r3, #4
 8004486:	429d      	cmp	r5, r3
 8004488:	461a      	mov	r2, r3
 800448a:	d32f      	bcc.n	80044ec <quorem+0xf4>
 800448c:	613c      	str	r4, [r7, #16]
 800448e:	4638      	mov	r0, r7
 8004490:	f001 f9c6 	bl	8005820 <__mcmp>
 8004494:	2800      	cmp	r0, #0
 8004496:	db25      	blt.n	80044e4 <quorem+0xec>
 8004498:	4629      	mov	r1, r5
 800449a:	2000      	movs	r0, #0
 800449c:	f858 2b04 	ldr.w	r2, [r8], #4
 80044a0:	f8d1 c000 	ldr.w	ip, [r1]
 80044a4:	fa1f fe82 	uxth.w	lr, r2
 80044a8:	fa1f f38c 	uxth.w	r3, ip
 80044ac:	eba3 030e 	sub.w	r3, r3, lr
 80044b0:	4403      	add	r3, r0
 80044b2:	0c12      	lsrs	r2, r2, #16
 80044b4:	ebc2 4223 	rsb	r2, r2, r3, asr #16
 80044b8:	eb02 421c 	add.w	r2, r2, ip, lsr #16
 80044bc:	b29b      	uxth	r3, r3
 80044be:	ea43 4302 	orr.w	r3, r3, r2, lsl #16
 80044c2:	45c1      	cmp	r9, r8
 80044c4:	f841 3b04 	str.w	r3, [r1], #4
 80044c8:	ea4f 4022 	mov.w	r0, r2, asr #16
 80044cc:	d2e6      	bcs.n	800449c <quorem+0xa4>
 80044ce:	f855 2024 	ldr.w	r2, [r5, r4, lsl #2]
 80044d2:	eb05 0384 	add.w	r3, r5, r4, lsl #2
 80044d6:	b922      	cbnz	r2, 80044e2 <quorem+0xea>
 80044d8:	3b04      	subs	r3, #4
 80044da:	429d      	cmp	r5, r3
 80044dc:	461a      	mov	r2, r3
 80044de:	d30b      	bcc.n	80044f8 <quorem+0x100>
 80044e0:	613c      	str	r4, [r7, #16]
 80044e2:	3601      	adds	r6, #1
 80044e4:	4630      	mov	r0, r6
 80044e6:	b003      	add	sp, #12
 80044e8:	e8bd 8ff0 	ldmia.w	sp!, {r4, r5, r6, r7, r8, r9, sl, fp, pc}
 80044ec:	6812      	ldr	r2, [r2, #0]
 80044ee:	3b04      	subs	r3, #4
 80044f0:	2a00      	cmp	r2, #0
 80044f2:	d1cb      	bne.n	800448c <quorem+0x94>
 80044f4:	3c01      	subs	r4, #1
 80044f6:	e7c6      	b.n	8004486 <quorem+0x8e>
 80044f8:	6812      	ldr	r2, [r2, #0]
 80044fa:	3b04      	subs	r3, #4
 80044fc:	2a00      	cmp	r2, #0
 80044fe:	d1ef      	bne.n	80044e0 <quorem+0xe8>
 8004500:	3c01      	subs	r4, #1
 8004502:	e7ea      	b.n	80044da <quorem+0xe2>
 8004504:	2000      	movs	r0, #0
 8004506:	e7ee      	b.n	80044e6 <quorem+0xee>

08004508 <_dtoa_r>:
 8004508:	e92d 4ff0 	stmdb	sp!, {r4, r5, r6, r7, r8, r9, sl, fp, lr}
 800450c:	69c7      	ldr	r7, [r0, #28]
 800450e:	b097      	sub	sp, #92	@ 0x5c
 8004510:	ed8d 0b04 	vstr	d0, [sp, #16]
 8004514:	ec55 4b10 	vmov	r4, r5, d0
 8004518:	9e20      	ldr	r6, [sp, #128]	@ 0x80
 800451a:	9107      	str	r1, [sp, #28]
 800451c:	4681      	mov	r9, r0
 800451e:	920c      	str	r2, [sp, #48]	@ 0x30
 8004520:	9311      	str	r3, [sp, #68]	@ 0x44
 8004522:	b97f      	cbnz	r7, 8004544 <_dtoa_r+0x3c>
 8004524:	2010      	movs	r0, #16
 8004526:	f000 fe09 	bl	800513c <malloc>
 800452a:	4602      	mov	r2, r0
 800452c:	f8c9 001c 	str.w	r0, [r9, #28]
 8004530:	b920      	cbnz	r0, 800453c <_dtoa_r+0x34>
 8004532:	4ba9      	ldr	r3, [pc, #676]	@ (80047d8 <_dtoa_r+0x2d0>)
 8004534:	21ef      	movs	r1, #239	@ 0xef
 8004536:	48a9      	ldr	r0, [pc, #676]	@ (80047dc <_dtoa_r+0x2d4>)
 8004538:	f002 fc3a 	bl	8006db0 <__assert_func>
 800453c:	e9c0 7701 	strd	r7, r7, [r0, #4]
 8004540:	6007      	str	r7, [r0, #0]
 8004542:	60c7      	str	r7, [r0, #12]
 8004544:	f8d9 301c 	ldr.w	r3, [r9, #28]
 8004548:	6819      	ldr	r1, [r3, #0]
 800454a:	b159      	cbz	r1, 8004564 <_dtoa_r+0x5c>
 800454c:	685a      	ldr	r2, [r3, #4]
 800454e:	604a      	str	r2, [r1, #4]
 8004550:	2301      	movs	r3, #1
 8004552:	4093      	lsls	r3, r2
 8004554:	608b      	str	r3, [r1, #8]
 8004556:	4648      	mov	r0, r9
 8004558:	f000 fee6 	bl	8005328 <_Bfree>
 800455c:	f8d9 301c 	ldr.w	r3, [r9, #28]
 8004560:	2200      	movs	r2, #0
 8004562:	601a      	str	r2, [r3, #0]
 8004564:	1e2b      	subs	r3, r5, #0
 8004566:	bfb9      	ittee	lt
 8004568:	f023 4300 	biclt.w	r3, r3, #2147483648	@ 0x80000000
 800456c:	9305      	strlt	r3, [sp, #20]
 800456e:	2300      	movge	r3, #0
 8004570:	6033      	strge	r3, [r6, #0]
 8004572:	9f05      	ldr	r7, [sp, #20]
 8004574:	4b9a      	ldr	r3, [pc, #616]	@ (80047e0 <_dtoa_r+0x2d8>)
 8004576:	bfbc      	itt	lt
 8004578:	2201      	movlt	r2, #1
 800457a:	6032      	strlt	r2, [r6, #0]
 800457c:	43bb      	bics	r3, r7
 800457e:	d112      	bne.n	80045a6 <_dtoa_r+0x9e>
 8004580:	9a11      	ldr	r2, [sp, #68]	@ 0x44
 8004582:	f242 730f 	movw	r3, #9999	@ 0x270f
 8004586:	6013      	str	r3, [r2, #0]
 8004588:	f3c7 0313 	ubfx	r3, r7, #0, #20
 800458c:	4323      	orrs	r3, r4
 800458e:	f000 855a 	beq.w	8005046 <_dtoa_r+0xb3e>
 8004592:	9b21      	ldr	r3, [sp, #132]	@ 0x84
 8004594:	f8df a25c 	ldr.w	sl, [pc, #604]	@ 80047f4 <_dtoa_r+0x2ec>
 8004598:	2b00      	cmp	r3, #0
 800459a:	f000 855c 	beq.w	8005056 <_dtoa_r+0xb4e>
 800459e:	f10a 0303 	add.w	r3, sl, #3
 80045a2:	f000 bd56 	b.w	8005052 <_dtoa_r+0xb4a>
 80045a6:	ed9d 7b04 	vldr	d7, [sp, #16]
 80045aa:	2200      	movs	r2, #0
 80045ac:	ec51 0b17 	vmov	r0, r1, d7
 80045b0:	2300      	movs	r3, #0
 80045b2:	ed8d 7b0a 	vstr	d7, [sp, #40]	@ 0x28
 80045b6:	f7fc faaf 	bl	8000b18 <__aeabi_dcmpeq>
 80045ba:	4680      	mov	r8, r0
 80045bc:	b158      	cbz	r0, 80045d6 <_dtoa_r+0xce>
 80045be:	9a11      	ldr	r2, [sp, #68]	@ 0x44
 80045c0:	2301      	movs	r3, #1
 80045c2:	6013      	str	r3, [r2, #0]
 80045c4:	9b21      	ldr	r3, [sp, #132]	@ 0x84
 80045c6:	b113      	cbz	r3, 80045ce <_dtoa_r+0xc6>
 80045c8:	9a21      	ldr	r2, [sp, #132]	@ 0x84
 80045ca:	4b86      	ldr	r3, [pc, #536]	@ (80047e4 <_dtoa_r+0x2dc>)
 80045cc:	6013      	str	r3, [r2, #0]
 80045ce:	f8df a228 	ldr.w	sl, [pc, #552]	@ 80047f8 <_dtoa_r+0x2f0>
 80045d2:	f000 bd40 	b.w	8005056 <_dtoa_r+0xb4e>
 80045d6:	ed9d 0b0a 	vldr	d0, [sp, #40]	@ 0x28
 80045da:	aa14      	add	r2, sp, #80	@ 0x50
 80045dc:	a915      	add	r1, sp, #84	@ 0x54
 80045de:	4648      	mov	r0, r9
 80045e0:	f001 fa3e 	bl	8005a60 <__d2b>
 80045e4:	f3c7 560a 	ubfx	r6, r7, #20, #11
 80045e8:	9002      	str	r0, [sp, #8]
 80045ea:	2e00      	cmp	r6, #0
 80045ec:	d078      	beq.n	80046e0 <_dtoa_r+0x1d8>
 80045ee:	9b0b      	ldr	r3, [sp, #44]	@ 0x2c
 80045f0:	f8cd 8048 	str.w	r8, [sp, #72]	@ 0x48
 80045f4:	f3c3 0313 	ubfx	r3, r3, #0, #20
 80045f8:	e9dd 010a 	ldrd	r0, r1, [sp, #40]	@ 0x28
 80045fc:	f043 537f 	orr.w	r3, r3, #1069547520	@ 0x3fc00000
 8004600:	f443 1340 	orr.w	r3, r3, #3145728	@ 0x300000
 8004604:	f2a6 36ff 	subw	r6, r6, #1023	@ 0x3ff
 8004608:	4619      	mov	r1, r3
 800460a:	2200      	movs	r2, #0
 800460c:	4b76      	ldr	r3, [pc, #472]	@ (80047e8 <_dtoa_r+0x2e0>)
 800460e:	f7fb fe63 	bl	80002d8 <__aeabi_dsub>
 8004612:	a36b      	add	r3, pc, #428	@ (adr r3, 80047c0 <_dtoa_r+0x2b8>)
 8004614:	e9d3 2300 	ldrd	r2, r3, [r3]
 8004618:	f7fc f816 	bl	8000648 <__aeabi_dmul>
 800461c:	a36a      	add	r3, pc, #424	@ (adr r3, 80047c8 <_dtoa_r+0x2c0>)
 800461e:	e9d3 2300 	ldrd	r2, r3, [r3]
 8004622:	f7fb fe5b 	bl	80002dc <__adddf3>
 8004626:	4604      	mov	r4, r0
 8004628:	4630      	mov	r0, r6
 800462a:	460d      	mov	r5, r1
 800462c:	f7fb ffa2 	bl	8000574 <__aeabi_i2d>
 8004630:	a367      	add	r3, pc, #412	@ (adr r3, 80047d0 <_dtoa_r+0x2c8>)
 8004632:	e9d3 2300 	ldrd	r2, r3, [r3]
 8004636:	f7fc f807 	bl	8000648 <__aeabi_dmul>
 800463a:	4602      	mov	r2, r0
 800463c:	460b      	mov	r3, r1
 800463e:	4620      	mov	r0, r4
 8004640:	4629      	mov	r1, r5
 8004642:	f7fb fe4b 	bl	80002dc <__adddf3>
 8004646:	4604      	mov	r4, r0
 8004648:	460d      	mov	r5, r1
 800464a:	f7fc faad 	bl	8000ba8 <__aeabi_d2iz>
 800464e:	2200      	movs	r2, #0
 8004650:	4607      	mov	r7, r0
 8004652:	2300      	movs	r3, #0
 8004654:	4620      	mov	r0, r4
 8004656:	4629      	mov	r1, r5
 8004658:	f7fc fa68 	bl	8000b2c <__aeabi_dcmplt>
 800465c:	b140      	cbz	r0, 8004670 <_dtoa_r+0x168>
 800465e:	4638      	mov	r0, r7
 8004660:	f7fb ff88 	bl	8000574 <__aeabi_i2d>
 8004664:	4622      	mov	r2, r4
 8004666:	462b      	mov	r3, r5
 8004668:	f7fc fa56 	bl	8000b18 <__aeabi_dcmpeq>
 800466c:	b900      	cbnz	r0, 8004670 <_dtoa_r+0x168>
 800466e:	3f01      	subs	r7, #1
 8004670:	2f16      	cmp	r7, #22
 8004672:	d852      	bhi.n	800471a <_dtoa_r+0x212>
 8004674:	4b5d      	ldr	r3, [pc, #372]	@ (80047ec <_dtoa_r+0x2e4>)
 8004676:	eb03 03c7 	add.w	r3, r3, r7, lsl #3
 800467a:	e9d3 2300 	ldrd	r2, r3, [r3]
 800467e:	e9dd 010a 	ldrd	r0, r1, [sp, #40]	@ 0x28
 8004682:	f7fc fa53 	bl	8000b2c <__aeabi_dcmplt>
 8004686:	2800      	cmp	r0, #0
 8004688:	d049      	beq.n	800471e <_dtoa_r+0x216>
 800468a:	3f01      	subs	r7, #1
 800468c:	2300      	movs	r3, #0
 800468e:	9310      	str	r3, [sp, #64]	@ 0x40
 8004690:	9b14      	ldr	r3, [sp, #80]	@ 0x50
 8004692:	1b9b      	subs	r3, r3, r6
 8004694:	1e5a      	subs	r2, r3, #1
 8004696:	bf45      	ittet	mi
 8004698:	f1c3 0301 	rsbmi	r3, r3, #1
 800469c:	9300      	strmi	r3, [sp, #0]
 800469e:	2300      	movpl	r3, #0
 80046a0:	2300      	movmi	r3, #0
 80046a2:	9206      	str	r2, [sp, #24]
 80046a4:	bf54      	ite	pl
 80046a6:	9300      	strpl	r3, [sp, #0]
 80046a8:	9306      	strmi	r3, [sp, #24]
 80046aa:	2f00      	cmp	r7, #0
 80046ac:	db39      	blt.n	8004722 <_dtoa_r+0x21a>
 80046ae:	9b06      	ldr	r3, [sp, #24]
 80046b0:	970d      	str	r7, [sp, #52]	@ 0x34
 80046b2:	443b      	add	r3, r7
 80046b4:	9306      	str	r3, [sp, #24]
 80046b6:	2300      	movs	r3, #0
 80046b8:	9308      	str	r3, [sp, #32]
 80046ba:	9b07      	ldr	r3, [sp, #28]
 80046bc:	2b09      	cmp	r3, #9
 80046be:	d863      	bhi.n	8004788 <_dtoa_r+0x280>
 80046c0:	2b05      	cmp	r3, #5
 80046c2:	bfc4      	itt	gt
 80046c4:	3b04      	subgt	r3, #4
 80046c6:	9307      	strgt	r3, [sp, #28]
 80046c8:	9b07      	ldr	r3, [sp, #28]
 80046ca:	f1a3 0302 	sub.w	r3, r3, #2
 80046ce:	bfcc      	ite	gt
 80046d0:	2400      	movgt	r4, #0
 80046d2:	2401      	movle	r4, #1
 80046d4:	2b03      	cmp	r3, #3
 80046d6:	d863      	bhi.n	80047a0 <_dtoa_r+0x298>
 80046d8:	e8df f003 	tbb	[pc, r3]
 80046dc:	2b375452 	.word	0x2b375452
 80046e0:	e9dd 6314 	ldrd	r6, r3, [sp, #80]	@ 0x50
 80046e4:	441e      	add	r6, r3
 80046e6:	f206 4332 	addw	r3, r6, #1074	@ 0x432
 80046ea:	2b20      	cmp	r3, #32
 80046ec:	bfc1      	itttt	gt
 80046ee:	f1c3 0340 	rsbgt	r3, r3, #64	@ 0x40
 80046f2:	409f      	lslgt	r7, r3
 80046f4:	f206 4312 	addwgt	r3, r6, #1042	@ 0x412
 80046f8:	fa24 f303 	lsrgt.w	r3, r4, r3
 80046fc:	bfd6      	itet	le
 80046fe:	f1c3 0320 	rsble	r3, r3, #32
 8004702:	ea47 0003 	orrgt.w	r0, r7, r3
 8004706:	fa04 f003 	lslle.w	r0, r4, r3
 800470a:	f7fb ff23 	bl	8000554 <__aeabi_ui2d>
 800470e:	2201      	movs	r2, #1
 8004710:	f1a1 73f8 	sub.w	r3, r1, #32505856	@ 0x1f00000
 8004714:	3e01      	subs	r6, #1
 8004716:	9212      	str	r2, [sp, #72]	@ 0x48
 8004718:	e776      	b.n	8004608 <_dtoa_r+0x100>
 800471a:	2301      	movs	r3, #1
 800471c:	e7b7      	b.n	800468e <_dtoa_r+0x186>
 800471e:	9010      	str	r0, [sp, #64]	@ 0x40
 8004720:	e7b6      	b.n	8004690 <_dtoa_r+0x188>
 8004722:	9b00      	ldr	r3, [sp, #0]
 8004724:	1bdb      	subs	r3, r3, r7
 8004726:	9300      	str	r3, [sp, #0]
 8004728:	427b      	negs	r3, r7
 800472a:	9308      	str	r3, [sp, #32]
 800472c:	2300      	movs	r3, #0
 800472e:	930d      	str	r3, [sp, #52]	@ 0x34
 8004730:	e7c3      	b.n	80046ba <_dtoa_r+0x1b2>
 8004732:	2301      	movs	r3, #1
 8004734:	9309      	str	r3, [sp, #36]	@ 0x24
 8004736:	9b0c      	ldr	r3, [sp, #48]	@ 0x30
 8004738:	eb07 0b03 	add.w	fp, r7, r3
 800473c:	f10b 0301 	add.w	r3, fp, #1
 8004740:	2b01      	cmp	r3, #1
 8004742:	9303      	str	r3, [sp, #12]
 8004744:	bfb8      	it	lt
 8004746:	2301      	movlt	r3, #1
 8004748:	e006      	b.n	8004758 <_dtoa_r+0x250>
 800474a:	2301      	movs	r3, #1
 800474c:	9309      	str	r3, [sp, #36]	@ 0x24
 800474e:	9b0c      	ldr	r3, [sp, #48]	@ 0x30
 8004750:	2b00      	cmp	r3, #0
 8004752:	dd28      	ble.n	80047a6 <_dtoa_r+0x29e>
 8004754:	469b      	mov	fp, r3
 8004756:	9303      	str	r3, [sp, #12]
 8004758:	f8d9 001c 	ldr.w	r0, [r9, #28]
 800475c:	2100      	movs	r1, #0
 800475e:	2204      	movs	r2, #4
 8004760:	f102 0514 	add.w	r5, r2, #20
 8004764:	429d      	cmp	r5, r3
 8004766:	d926      	bls.n	80047b6 <_dtoa_r+0x2ae>
 8004768:	6041      	str	r1, [r0, #4]
 800476a:	4648      	mov	r0, r9
 800476c:	f000 fd9c 	bl	80052a8 <_Balloc>
 8004770:	4682      	mov	sl, r0
 8004772:	2800      	cmp	r0, #0
 8004774:	d142      	bne.n	80047fc <_dtoa_r+0x2f4>
 8004776:	4b1e      	ldr	r3, [pc, #120]	@ (80047f0 <_dtoa_r+0x2e8>)
 8004778:	4602      	mov	r2, r0
 800477a:	f240 11af 	movw	r1, #431	@ 0x1af
 800477e:	e6da      	b.n	8004536 <_dtoa_r+0x2e>
 8004780:	2300      	movs	r3, #0
 8004782:	e7e3      	b.n	800474c <_dtoa_r+0x244>
 8004784:	2300      	movs	r3, #0
 8004786:	e7d5      	b.n	8004734 <_dtoa_r+0x22c>
 8004788:	2401      	movs	r4, #1
 800478a:	2300      	movs	r3, #0
 800478c:	9307      	str	r3, [sp, #28]
 800478e:	9409      	str	r4, [sp, #36]	@ 0x24
 8004790:	f04f 3bff 	mov.w	fp, #4294967295
 8004794:	2200      	movs	r2, #0
 8004796:	f8cd b00c 	str.w	fp, [sp, #12]
 800479a:	2312      	movs	r3, #18
 800479c:	920c      	str	r2, [sp, #48]	@ 0x30
 800479e:	e7db      	b.n	8004758 <_dtoa_r+0x250>
 80047a0:	2301      	movs	r3, #1
 80047a2:	9309      	str	r3, [sp, #36]	@ 0x24
 80047a4:	e7f4      	b.n	8004790 <_dtoa_r+0x288>
 80047a6:	f04f 0b01 	mov.w	fp, #1
 80047aa:	f8cd b00c 	str.w	fp, [sp, #12]
 80047ae:	465b      	mov	r3, fp
 80047b0:	f8cd b030 	str.w	fp, [sp, #48]	@ 0x30
 80047b4:	e7d0      	b.n	8004758 <_dtoa_r+0x250>
 80047b6:	3101      	adds	r1, #1
 80047b8:	0052      	lsls	r2, r2, #1
 80047ba:	e7d1      	b.n	8004760 <_dtoa_r+0x258>
 80047bc:	f3af 8000 	nop.w
 80047c0:	636f4361 	.word	0x636f4361
 80047c4:	3fd287a7 	.word	0x3fd287a7
 80047c8:	8b60c8b3 	.word	0x8b60c8b3
 80047cc:	3fc68a28 	.word	0x3fc68a28
 80047d0:	509f79fb 	.word	0x509f79fb
 80047d4:	3fd34413 	.word	0x3fd34413
 80047d8:	08007b3e 	.word	0x08007b3e
 80047dc:	08007b55 	.word	0x08007b55
 80047e0:	7ff00000 	.word	0x7ff00000
 80047e4:	08007b09 	.word	0x08007b09
 80047e8:	3ff80000 	.word	0x3ff80000
 80047ec:	08007d08 	.word	0x08007d08
 80047f0:	08007bad 	.word	0x08007bad
 80047f4:	08007b3a 	.word	0x08007b3a
 80047f8:	08007b08 	.word	0x08007b08
 80047fc:	f8d9 301c 	ldr.w	r3, [r9, #28]
 8004800:	6018      	str	r0, [r3, #0]
 8004802:	9b03      	ldr	r3, [sp, #12]
 8004804:	2b0e      	cmp	r3, #14
 8004806:	f200 80a1 	bhi.w	800494c <_dtoa_r+0x444>
 800480a:	2c00      	cmp	r4, #0
 800480c:	f000 809e 	beq.w	800494c <_dtoa_r+0x444>
 8004810:	2f00      	cmp	r7, #0
 8004812:	dd33      	ble.n	800487c <_dtoa_r+0x374>
 8004814:	4b9c      	ldr	r3, [pc, #624]	@ (8004a88 <_dtoa_r+0x580>)
 8004816:	f007 020f 	and.w	r2, r7, #15
 800481a:	eb03 03c2 	add.w	r3, r3, r2, lsl #3
 800481e:	ed93 7b00 	vldr	d7, [r3]
 8004822:	05f8      	lsls	r0, r7, #23
 8004824:	ed8d 7b0e 	vstr	d7, [sp, #56]	@ 0x38
 8004828:	ea4f 1427 	mov.w	r4, r7, asr #4
 800482c:	d516      	bpl.n	800485c <_dtoa_r+0x354>
 800482e:	4b97      	ldr	r3, [pc, #604]	@ (8004a8c <_dtoa_r+0x584>)
 8004830:	e9dd 010a 	ldrd	r0, r1, [sp, #40]	@ 0x28
 8004834:	e9d3 2308 	ldrd	r2, r3, [r3, #32]
 8004838:	f7fc f830 	bl	800089c <__aeabi_ddiv>
 800483c:	e9cd 0104 	strd	r0, r1, [sp, #16]
 8004840:	f004 040f 	and.w	r4, r4, #15
 8004844:	2603      	movs	r6, #3
 8004846:	4d91      	ldr	r5, [pc, #580]	@ (8004a8c <_dtoa_r+0x584>)
 8004848:	b954      	cbnz	r4, 8004860 <_dtoa_r+0x358>
 800484a:	e9dd 230e 	ldrd	r2, r3, [sp, #56]	@ 0x38
 800484e:	e9dd 0104 	ldrd	r0, r1, [sp, #16]
 8004852:	f7fc f823 	bl	800089c <__aeabi_ddiv>
 8004856:	e9cd 0104 	strd	r0, r1, [sp, #16]
 800485a:	e028      	b.n	80048ae <_dtoa_r+0x3a6>
 800485c:	2602      	movs	r6, #2
 800485e:	e7f2      	b.n	8004846 <_dtoa_r+0x33e>
 8004860:	07e1      	lsls	r1, r4, #31
 8004862:	d508      	bpl.n	8004876 <_dtoa_r+0x36e>
 8004864:	e9dd 010e 	ldrd	r0, r1, [sp, #56]	@ 0x38
 8004868:	e9d5 2300 	ldrd	r2, r3, [r5]
 800486c:	f7fb feec 	bl	8000648 <__aeabi_dmul>
 8004870:	e9cd 010e 	strd	r0, r1, [sp, #56]	@ 0x38
 8004874:	3601      	adds	r6, #1
 8004876:	1064      	asrs	r4, r4, #1
 8004878:	3508      	adds	r5, #8
 800487a:	e7e5      	b.n	8004848 <_dtoa_r+0x340>
 800487c:	f000 80af 	beq.w	80049de <_dtoa_r+0x4d6>
 8004880:	427c      	negs	r4, r7
 8004882:	4b81      	ldr	r3, [pc, #516]	@ (8004a88 <_dtoa_r+0x580>)
 8004884:	4d81      	ldr	r5, [pc, #516]	@ (8004a8c <_dtoa_r+0x584>)
 8004886:	f004 020f 	and.w	r2, r4, #15
 800488a:	eb03 03c2 	add.w	r3, r3, r2, lsl #3
 800488e:	e9d3 2300 	ldrd	r2, r3, [r3]
 8004892:	e9dd 010a 	ldrd	r0, r1, [sp, #40]	@ 0x28
 8004896:	f7fb fed7 	bl	8000648 <__aeabi_dmul>
 800489a:	e9cd 0104 	strd	r0, r1, [sp, #16]
 800489e:	1124      	asrs	r4, r4, #4
 80048a0:	2300      	movs	r3, #0
 80048a2:	2602      	movs	r6, #2
 80048a4:	2c00      	cmp	r4, #0
 80048a6:	f040 808f 	bne.w	80049c8 <_dtoa_r+0x4c0>
 80048aa:	2b00      	cmp	r3, #0
 80048ac:	d1d3      	bne.n	8004856 <_dtoa_r+0x34e>
 80048ae:	9b10      	ldr	r3, [sp, #64]	@ 0x40
 80048b0:	e9dd 4504 	ldrd	r4, r5, [sp, #16]
 80048b4:	2b00      	cmp	r3, #0
 80048b6:	f000 8094 	beq.w	80049e2 <_dtoa_r+0x4da>
 80048ba:	4b75      	ldr	r3, [pc, #468]	@ (8004a90 <_dtoa_r+0x588>)
 80048bc:	2200      	movs	r2, #0
 80048be:	4620      	mov	r0, r4
 80048c0:	4629      	mov	r1, r5
 80048c2:	f7fc f933 	bl	8000b2c <__aeabi_dcmplt>
 80048c6:	2800      	cmp	r0, #0
 80048c8:	f000 808b 	beq.w	80049e2 <_dtoa_r+0x4da>
 80048cc:	9b03      	ldr	r3, [sp, #12]
 80048ce:	2b00      	cmp	r3, #0
 80048d0:	f000 8087 	beq.w	80049e2 <_dtoa_r+0x4da>
 80048d4:	f1bb 0f00 	cmp.w	fp, #0
 80048d8:	dd34      	ble.n	8004944 <_dtoa_r+0x43c>
 80048da:	4620      	mov	r0, r4
 80048dc:	4b6d      	ldr	r3, [pc, #436]	@ (8004a94 <_dtoa_r+0x58c>)
 80048de:	2200      	movs	r2, #0
 80048e0:	4629      	mov	r1, r5
 80048e2:	f7fb feb1 	bl	8000648 <__aeabi_dmul>
 80048e6:	e9cd 0104 	strd	r0, r1, [sp, #16]
 80048ea:	f107 38ff 	add.w	r8, r7, #4294967295
 80048ee:	3601      	adds	r6, #1
 80048f0:	465c      	mov	r4, fp
 80048f2:	4630      	mov	r0, r6
 80048f4:	f7fb fe3e 	bl	8000574 <__aeabi_i2d>
 80048f8:	e9dd 2304 	ldrd	r2, r3, [sp, #16]
 80048fc:	f7fb fea4 	bl	8000648 <__aeabi_dmul>
 8004900:	4b65      	ldr	r3, [pc, #404]	@ (8004a98 <_dtoa_r+0x590>)
 8004902:	2200      	movs	r2, #0
 8004904:	f7fb fcea 	bl	80002dc <__adddf3>
 8004908:	4605      	mov	r5, r0
 800490a:	f1a1 7650 	sub.w	r6, r1, #54525952	@ 0x3400000
 800490e:	2c00      	cmp	r4, #0
 8004910:	d16a      	bne.n	80049e8 <_dtoa_r+0x4e0>
 8004912:	e9dd 0104 	ldrd	r0, r1, [sp, #16]
 8004916:	4b61      	ldr	r3, [pc, #388]	@ (8004a9c <_dtoa_r+0x594>)
 8004918:	2200      	movs	r2, #0
 800491a:	f7fb fcdd 	bl	80002d8 <__aeabi_dsub>
 800491e:	4602      	mov	r2, r0
 8004920:	460b      	mov	r3, r1
 8004922:	e9cd 2304 	strd	r2, r3, [sp, #16]
 8004926:	462a      	mov	r2, r5
 8004928:	4633      	mov	r3, r6
 800492a:	f7fc f91d 	bl	8000b68 <__aeabi_dcmpgt>
 800492e:	2800      	cmp	r0, #0
 8004930:	f040 8298 	bne.w	8004e64 <_dtoa_r+0x95c>
 8004934:	e9dd 0104 	ldrd	r0, r1, [sp, #16]
 8004938:	462a      	mov	r2, r5
 800493a:	f106 4300 	add.w	r3, r6, #2147483648	@ 0x80000000
 800493e:	f7fc f8f5 	bl	8000b2c <__aeabi_dcmplt>
 8004942:	bb38      	cbnz	r0, 8004994 <_dtoa_r+0x48c>
 8004944:	e9dd 340a 	ldrd	r3, r4, [sp, #40]	@ 0x28
 8004948:	e9cd 3404 	strd	r3, r4, [sp, #16]
 800494c:	9b15      	ldr	r3, [sp, #84]	@ 0x54
 800494e:	2b00      	cmp	r3, #0
 8004950:	f2c0 8157 	blt.w	8004c02 <_dtoa_r+0x6fa>
 8004954:	2f0e      	cmp	r7, #14
 8004956:	f300 8154 	bgt.w	8004c02 <_dtoa_r+0x6fa>
 800495a:	4b4b      	ldr	r3, [pc, #300]	@ (8004a88 <_dtoa_r+0x580>)
 800495c:	eb03 03c7 	add.w	r3, r3, r7, lsl #3
 8004960:	ed93 7b00 	vldr	d7, [r3]
 8004964:	9b0c      	ldr	r3, [sp, #48]	@ 0x30
 8004966:	2b00      	cmp	r3, #0
 8004968:	ed8d 7b00 	vstr	d7, [sp]
 800496c:	f280 80e5 	bge.w	8004b3a <_dtoa_r+0x632>
 8004970:	9b03      	ldr	r3, [sp, #12]
 8004972:	2b00      	cmp	r3, #0
 8004974:	f300 80e1 	bgt.w	8004b3a <_dtoa_r+0x632>
 8004978:	d10c      	bne.n	8004994 <_dtoa_r+0x48c>
 800497a:	4b48      	ldr	r3, [pc, #288]	@ (8004a9c <_dtoa_r+0x594>)
 800497c:	2200      	movs	r2, #0
 800497e:	ec51 0b17 	vmov	r0, r1, d7
 8004982:	f7fb fe61 	bl	8000648 <__aeabi_dmul>
 8004986:	e9dd 2304 	ldrd	r2, r3, [sp, #16]
 800498a:	f7fc f8e3 	bl	8000b54 <__aeabi_dcmpge>
 800498e:	2800      	cmp	r0, #0
 8004990:	f000 8266 	beq.w	8004e60 <_dtoa_r+0x958>
 8004994:	2400      	movs	r4, #0
 8004996:	4625      	mov	r5, r4
 8004998:	9b0c      	ldr	r3, [sp, #48]	@ 0x30
 800499a:	4656      	mov	r6, sl
 800499c:	ea6f 0803 	mvn.w	r8, r3
 80049a0:	2700      	movs	r7, #0
 80049a2:	4621      	mov	r1, r4
 80049a4:	4648      	mov	r0, r9
 80049a6:	f000 fcbf 	bl	8005328 <_Bfree>
 80049aa:	2d00      	cmp	r5, #0
 80049ac:	f000 80bd 	beq.w	8004b2a <_dtoa_r+0x622>
 80049b0:	b12f      	cbz	r7, 80049be <_dtoa_r+0x4b6>
 80049b2:	42af      	cmp	r7, r5
 80049b4:	d003      	beq.n	80049be <_dtoa_r+0x4b6>
 80049b6:	4639      	mov	r1, r7
 80049b8:	4648      	mov	r0, r9
 80049ba:	f000 fcb5 	bl	8005328 <_Bfree>
 80049be:	4629      	mov	r1, r5
 80049c0:	4648      	mov	r0, r9
 80049c2:	f000 fcb1 	bl	8005328 <_Bfree>
 80049c6:	e0b0      	b.n	8004b2a <_dtoa_r+0x622>
 80049c8:	07e2      	lsls	r2, r4, #31
 80049ca:	d505      	bpl.n	80049d8 <_dtoa_r+0x4d0>
 80049cc:	e9d5 2300 	ldrd	r2, r3, [r5]
 80049d0:	f7fb fe3a 	bl	8000648 <__aeabi_dmul>
 80049d4:	3601      	adds	r6, #1
 80049d6:	2301      	movs	r3, #1
 80049d8:	1064      	asrs	r4, r4, #1
 80049da:	3508      	adds	r5, #8
 80049dc:	e762      	b.n	80048a4 <_dtoa_r+0x39c>
 80049de:	2602      	movs	r6, #2
 80049e0:	e765      	b.n	80048ae <_dtoa_r+0x3a6>
 80049e2:	9c03      	ldr	r4, [sp, #12]
 80049e4:	46b8      	mov	r8, r7
 80049e6:	e784      	b.n	80048f2 <_dtoa_r+0x3ea>
 80049e8:	4b27      	ldr	r3, [pc, #156]	@ (8004a88 <_dtoa_r+0x580>)
 80049ea:	9909      	ldr	r1, [sp, #36]	@ 0x24
 80049ec:	eb03 03c4 	add.w	r3, r3, r4, lsl #3
 80049f0:	e953 2302 	ldrd	r2, r3, [r3, #-8]
 80049f4:	4454      	add	r4, sl
 80049f6:	2900      	cmp	r1, #0
 80049f8:	d054      	beq.n	8004aa4 <_dtoa_r+0x59c>
 80049fa:	4929      	ldr	r1, [pc, #164]	@ (8004aa0 <_dtoa_r+0x598>)
 80049fc:	2000      	movs	r0, #0
 80049fe:	f7fb ff4d 	bl	800089c <__aeabi_ddiv>
 8004a02:	4633      	mov	r3, r6
 8004a04:	462a      	mov	r2, r5
 8004a06:	f7fb fc67 	bl	80002d8 <__aeabi_dsub>
 8004a0a:	e9cd 010e 	strd	r0, r1, [sp, #56]	@ 0x38
 8004a0e:	4656      	mov	r6, sl
 8004a10:	e9dd 0104 	ldrd	r0, r1, [sp, #16]
 8004a14:	f7fc f8c8 	bl	8000ba8 <__aeabi_d2iz>
 8004a18:	4605      	mov	r5, r0
 8004a1a:	f7fb fdab 	bl	8000574 <__aeabi_i2d>
 8004a1e:	4602      	mov	r2, r0
 8004a20:	460b      	mov	r3, r1
 8004a22:	e9dd 0104 	ldrd	r0, r1, [sp, #16]
 8004a26:	f7fb fc57 	bl	80002d8 <__aeabi_dsub>
 8004a2a:	3530      	adds	r5, #48	@ 0x30
 8004a2c:	4602      	mov	r2, r0
 8004a2e:	460b      	mov	r3, r1
 8004a30:	e9cd 2304 	strd	r2, r3, [sp, #16]
 8004a34:	f806 5b01 	strb.w	r5, [r6], #1
 8004a38:	e9dd 230e 	ldrd	r2, r3, [sp, #56]	@ 0x38
 8004a3c:	f7fc f876 	bl	8000b2c <__aeabi_dcmplt>
 8004a40:	2800      	cmp	r0, #0
 8004a42:	d172      	bne.n	8004b2a <_dtoa_r+0x622>
 8004a44:	e9dd 2304 	ldrd	r2, r3, [sp, #16]
 8004a48:	4911      	ldr	r1, [pc, #68]	@ (8004a90 <_dtoa_r+0x588>)
 8004a4a:	2000      	movs	r0, #0
 8004a4c:	f7fb fc44 	bl	80002d8 <__aeabi_dsub>
 8004a50:	e9dd 230e 	ldrd	r2, r3, [sp, #56]	@ 0x38
 8004a54:	f7fc f86a 	bl	8000b2c <__aeabi_dcmplt>
 8004a58:	2800      	cmp	r0, #0
 8004a5a:	f040 80b4 	bne.w	8004bc6 <_dtoa_r+0x6be>
 8004a5e:	42a6      	cmp	r6, r4
 8004a60:	f43f af70 	beq.w	8004944 <_dtoa_r+0x43c>
 8004a64:	e9dd 010e 	ldrd	r0, r1, [sp, #56]	@ 0x38
 8004a68:	4b0a      	ldr	r3, [pc, #40]	@ (8004a94 <_dtoa_r+0x58c>)
 8004a6a:	2200      	movs	r2, #0
 8004a6c:	f7fb fdec 	bl	8000648 <__aeabi_dmul>
 8004a70:	4b08      	ldr	r3, [pc, #32]	@ (8004a94 <_dtoa_r+0x58c>)
 8004a72:	e9cd 010e 	strd	r0, r1, [sp, #56]	@ 0x38
 8004a76:	2200      	movs	r2, #0
 8004a78:	e9dd 0104 	ldrd	r0, r1, [sp, #16]
 8004a7c:	f7fb fde4 	bl	8000648 <__aeabi_dmul>
 8004a80:	e9cd 0104 	strd	r0, r1, [sp, #16]
 8004a84:	e7c4      	b.n	8004a10 <_dtoa_r+0x508>
 8004a86:	bf00      	nop
 8004a88:	08007d08 	.word	0x08007d08
 8004a8c:	08007ce0 	.word	0x08007ce0
 8004a90:	3ff00000 	.word	0x3ff00000
 8004a94:	40240000 	.word	0x40240000
 8004a98:	401c0000 	.word	0x401c0000
 8004a9c:	40140000 	.word	0x40140000
 8004aa0:	3fe00000 	.word	0x3fe00000
 8004aa4:	4631      	mov	r1, r6
 8004aa6:	4628      	mov	r0, r5
 8004aa8:	f7fb fdce 	bl	8000648 <__aeabi_dmul>
 8004aac:	e9cd 010e 	strd	r0, r1, [sp, #56]	@ 0x38
 8004ab0:	9413      	str	r4, [sp, #76]	@ 0x4c
 8004ab2:	4656      	mov	r6, sl
 8004ab4:	e9dd 0104 	ldrd	r0, r1, [sp, #16]
 8004ab8:	f7fc f876 	bl	8000ba8 <__aeabi_d2iz>
 8004abc:	4605      	mov	r5, r0
 8004abe:	f7fb fd59 	bl	8000574 <__aeabi_i2d>
 8004ac2:	4602      	mov	r2, r0
 8004ac4:	460b      	mov	r3, r1
 8004ac6:	e9dd 0104 	ldrd	r0, r1, [sp, #16]
 8004aca:	f7fb fc05 	bl	80002d8 <__aeabi_dsub>
 8004ace:	3530      	adds	r5, #48	@ 0x30
 8004ad0:	f806 5b01 	strb.w	r5, [r6], #1
 8004ad4:	4602      	mov	r2, r0
 8004ad6:	460b      	mov	r3, r1
 8004ad8:	42a6      	cmp	r6, r4
 8004ada:	e9cd 2304 	strd	r2, r3, [sp, #16]
 8004ade:	f04f 0200 	mov.w	r2, #0
 8004ae2:	d124      	bne.n	8004b2e <_dtoa_r+0x626>
 8004ae4:	4baf      	ldr	r3, [pc, #700]	@ (8004da4 <_dtoa_r+0x89c>)
 8004ae6:	e9dd 010e 	ldrd	r0, r1, [sp, #56]	@ 0x38
 8004aea:	f7fb fbf7 	bl	80002dc <__adddf3>
 8004aee:	4602      	mov	r2, r0
 8004af0:	460b      	mov	r3, r1
 8004af2:	e9dd 0104 	ldrd	r0, r1, [sp, #16]
 8004af6:	f7fc f837 	bl	8000b68 <__aeabi_dcmpgt>
 8004afa:	2800      	cmp	r0, #0
 8004afc:	d163      	bne.n	8004bc6 <_dtoa_r+0x6be>
 8004afe:	e9dd 230e 	ldrd	r2, r3, [sp, #56]	@ 0x38
 8004b02:	49a8      	ldr	r1, [pc, #672]	@ (8004da4 <_dtoa_r+0x89c>)
 8004b04:	2000      	movs	r0, #0
 8004b06:	f7fb fbe7 	bl	80002d8 <__aeabi_dsub>
 8004b0a:	4602      	mov	r2, r0
 8004b0c:	460b      	mov	r3, r1
 8004b0e:	e9dd 0104 	ldrd	r0, r1, [sp, #16]
 8004b12:	f7fc f80b 	bl	8000b2c <__aeabi_dcmplt>
 8004b16:	2800      	cmp	r0, #0
 8004b18:	f43f af14 	beq.w	8004944 <_dtoa_r+0x43c>
 8004b1c:	9e13      	ldr	r6, [sp, #76]	@ 0x4c
 8004b1e:	1e73      	subs	r3, r6, #1
 8004b20:	9313      	str	r3, [sp, #76]	@ 0x4c
 8004b22:	f816 3c01 	ldrb.w	r3, [r6, #-1]
 8004b26:	2b30      	cmp	r3, #48	@ 0x30
 8004b28:	d0f8      	beq.n	8004b1c <_dtoa_r+0x614>
 8004b2a:	4647      	mov	r7, r8
 8004b2c:	e03b      	b.n	8004ba6 <_dtoa_r+0x69e>
 8004b2e:	4b9e      	ldr	r3, [pc, #632]	@ (8004da8 <_dtoa_r+0x8a0>)
 8004b30:	f7fb fd8a 	bl	8000648 <__aeabi_dmul>
 8004b34:	e9cd 0104 	strd	r0, r1, [sp, #16]
 8004b38:	e7bc      	b.n	8004ab4 <_dtoa_r+0x5ac>
 8004b3a:	e9dd 4504 	ldrd	r4, r5, [sp, #16]
 8004b3e:	4656      	mov	r6, sl
 8004b40:	e9dd 2300 	ldrd	r2, r3, [sp]
 8004b44:	4620      	mov	r0, r4
 8004b46:	4629      	mov	r1, r5
 8004b48:	f7fb fea8 	bl	800089c <__aeabi_ddiv>
 8004b4c:	f7fc f82c 	bl	8000ba8 <__aeabi_d2iz>
 8004b50:	4680      	mov	r8, r0
 8004b52:	f7fb fd0f 	bl	8000574 <__aeabi_i2d>
 8004b56:	e9dd 2300 	ldrd	r2, r3, [sp]
 8004b5a:	f7fb fd75 	bl	8000648 <__aeabi_dmul>
 8004b5e:	4602      	mov	r2, r0
 8004b60:	460b      	mov	r3, r1
 8004b62:	4620      	mov	r0, r4
 8004b64:	4629      	mov	r1, r5
 8004b66:	f108 0430 	add.w	r4, r8, #48	@ 0x30
 8004b6a:	f7fb fbb5 	bl	80002d8 <__aeabi_dsub>
 8004b6e:	f806 4b01 	strb.w	r4, [r6], #1
 8004b72:	9d03      	ldr	r5, [sp, #12]
 8004b74:	eba6 040a 	sub.w	r4, r6, sl
 8004b78:	42a5      	cmp	r5, r4
 8004b7a:	4602      	mov	r2, r0
 8004b7c:	460b      	mov	r3, r1
 8004b7e:	d133      	bne.n	8004be8 <_dtoa_r+0x6e0>
 8004b80:	f7fb fbac 	bl	80002dc <__adddf3>
 8004b84:	e9dd 2300 	ldrd	r2, r3, [sp]
 8004b88:	4604      	mov	r4, r0
 8004b8a:	460d      	mov	r5, r1
 8004b8c:	f7fb ffec 	bl	8000b68 <__aeabi_dcmpgt>
 8004b90:	b9c0      	cbnz	r0, 8004bc4 <_dtoa_r+0x6bc>
 8004b92:	e9dd 2300 	ldrd	r2, r3, [sp]
 8004b96:	4620      	mov	r0, r4
 8004b98:	4629      	mov	r1, r5
 8004b9a:	f7fb ffbd 	bl	8000b18 <__aeabi_dcmpeq>
 8004b9e:	b110      	cbz	r0, 8004ba6 <_dtoa_r+0x69e>
 8004ba0:	f018 0f01 	tst.w	r8, #1
 8004ba4:	d10e      	bne.n	8004bc4 <_dtoa_r+0x6bc>
 8004ba6:	9902      	ldr	r1, [sp, #8]
 8004ba8:	4648      	mov	r0, r9
 8004baa:	f000 fbbd 	bl	8005328 <_Bfree>
 8004bae:	2300      	movs	r3, #0
 8004bb0:	7033      	strb	r3, [r6, #0]
 8004bb2:	9b11      	ldr	r3, [sp, #68]	@ 0x44
 8004bb4:	3701      	adds	r7, #1
 8004bb6:	601f      	str	r7, [r3, #0]
 8004bb8:	9b21      	ldr	r3, [sp, #132]	@ 0x84
 8004bba:	2b00      	cmp	r3, #0
 8004bbc:	f000 824b 	beq.w	8005056 <_dtoa_r+0xb4e>
 8004bc0:	601e      	str	r6, [r3, #0]
 8004bc2:	e248      	b.n	8005056 <_dtoa_r+0xb4e>
 8004bc4:	46b8      	mov	r8, r7
 8004bc6:	4633      	mov	r3, r6
 8004bc8:	461e      	mov	r6, r3
 8004bca:	f813 2d01 	ldrb.w	r2, [r3, #-1]!
 8004bce:	2a39      	cmp	r2, #57	@ 0x39
 8004bd0:	d106      	bne.n	8004be0 <_dtoa_r+0x6d8>
 8004bd2:	459a      	cmp	sl, r3
 8004bd4:	d1f8      	bne.n	8004bc8 <_dtoa_r+0x6c0>
 8004bd6:	2230      	movs	r2, #48	@ 0x30
 8004bd8:	f108 0801 	add.w	r8, r8, #1
 8004bdc:	f88a 2000 	strb.w	r2, [sl]
 8004be0:	781a      	ldrb	r2, [r3, #0]
 8004be2:	3201      	adds	r2, #1
 8004be4:	701a      	strb	r2, [r3, #0]
 8004be6:	e7a0      	b.n	8004b2a <_dtoa_r+0x622>
 8004be8:	4b6f      	ldr	r3, [pc, #444]	@ (8004da8 <_dtoa_r+0x8a0>)
 8004bea:	2200      	movs	r2, #0
 8004bec:	f7fb fd2c 	bl	8000648 <__aeabi_dmul>
 8004bf0:	2200      	movs	r2, #0
 8004bf2:	2300      	movs	r3, #0
 8004bf4:	4604      	mov	r4, r0
 8004bf6:	460d      	mov	r5, r1
 8004bf8:	f7fb ff8e 	bl	8000b18 <__aeabi_dcmpeq>
 8004bfc:	2800      	cmp	r0, #0
 8004bfe:	d09f      	beq.n	8004b40 <_dtoa_r+0x638>
 8004c00:	e7d1      	b.n	8004ba6 <_dtoa_r+0x69e>
 8004c02:	9a09      	ldr	r2, [sp, #36]	@ 0x24
 8004c04:	2a00      	cmp	r2, #0
 8004c06:	f000 80ea 	beq.w	8004dde <_dtoa_r+0x8d6>
 8004c0a:	9a07      	ldr	r2, [sp, #28]
 8004c0c:	2a01      	cmp	r2, #1
 8004c0e:	f300 80cd 	bgt.w	8004dac <_dtoa_r+0x8a4>
 8004c12:	9a12      	ldr	r2, [sp, #72]	@ 0x48
 8004c14:	2a00      	cmp	r2, #0
 8004c16:	f000 80c1 	beq.w	8004d9c <_dtoa_r+0x894>
 8004c1a:	f203 4333 	addw	r3, r3, #1075	@ 0x433
 8004c1e:	9c08      	ldr	r4, [sp, #32]
 8004c20:	9e00      	ldr	r6, [sp, #0]
 8004c22:	9a00      	ldr	r2, [sp, #0]
 8004c24:	441a      	add	r2, r3
 8004c26:	9200      	str	r2, [sp, #0]
 8004c28:	9a06      	ldr	r2, [sp, #24]
 8004c2a:	2101      	movs	r1, #1
 8004c2c:	441a      	add	r2, r3
 8004c2e:	4648      	mov	r0, r9
 8004c30:	9206      	str	r2, [sp, #24]
 8004c32:	f000 fc77 	bl	8005524 <__i2b>
 8004c36:	4605      	mov	r5, r0
 8004c38:	b166      	cbz	r6, 8004c54 <_dtoa_r+0x74c>
 8004c3a:	9b06      	ldr	r3, [sp, #24]
 8004c3c:	2b00      	cmp	r3, #0
 8004c3e:	dd09      	ble.n	8004c54 <_dtoa_r+0x74c>
 8004c40:	42b3      	cmp	r3, r6
 8004c42:	9a00      	ldr	r2, [sp, #0]
 8004c44:	bfa8      	it	ge
 8004c46:	4633      	movge	r3, r6
 8004c48:	1ad2      	subs	r2, r2, r3
 8004c4a:	9200      	str	r2, [sp, #0]
 8004c4c:	9a06      	ldr	r2, [sp, #24]
 8004c4e:	1af6      	subs	r6, r6, r3
 8004c50:	1ad3      	subs	r3, r2, r3
 8004c52:	9306      	str	r3, [sp, #24]
 8004c54:	9b08      	ldr	r3, [sp, #32]
 8004c56:	b30b      	cbz	r3, 8004c9c <_dtoa_r+0x794>
 8004c58:	9b09      	ldr	r3, [sp, #36]	@ 0x24
 8004c5a:	2b00      	cmp	r3, #0
 8004c5c:	f000 80c6 	beq.w	8004dec <_dtoa_r+0x8e4>
 8004c60:	2c00      	cmp	r4, #0
 8004c62:	f000 80c0 	beq.w	8004de6 <_dtoa_r+0x8de>
 8004c66:	4629      	mov	r1, r5
 8004c68:	4622      	mov	r2, r4
 8004c6a:	4648      	mov	r0, r9
 8004c6c:	f000 fd12 	bl	8005694 <__pow5mult>
 8004c70:	9a02      	ldr	r2, [sp, #8]
 8004c72:	4601      	mov	r1, r0
 8004c74:	4605      	mov	r5, r0
 8004c76:	4648      	mov	r0, r9
 8004c78:	f000 fc6a 	bl	8005550 <__multiply>
 8004c7c:	9902      	ldr	r1, [sp, #8]
 8004c7e:	4680      	mov	r8, r0
 8004c80:	4648      	mov	r0, r9
 8004c82:	f000 fb51 	bl	8005328 <_Bfree>
 8004c86:	9b08      	ldr	r3, [sp, #32]
 8004c88:	1b1b      	subs	r3, r3, r4
 8004c8a:	9308      	str	r3, [sp, #32]
 8004c8c:	f000 80b1 	beq.w	8004df2 <_dtoa_r+0x8ea>
 8004c90:	9a08      	ldr	r2, [sp, #32]
 8004c92:	4641      	mov	r1, r8
 8004c94:	4648      	mov	r0, r9
 8004c96:	f000 fcfd 	bl	8005694 <__pow5mult>
 8004c9a:	9002      	str	r0, [sp, #8]
 8004c9c:	2101      	movs	r1, #1
 8004c9e:	4648      	mov	r0, r9
 8004ca0:	f000 fc40 	bl	8005524 <__i2b>
 8004ca4:	9b0d      	ldr	r3, [sp, #52]	@ 0x34
 8004ca6:	4604      	mov	r4, r0
 8004ca8:	2b00      	cmp	r3, #0
 8004caa:	f000 81d8 	beq.w	800505e <_dtoa_r+0xb56>
 8004cae:	461a      	mov	r2, r3
 8004cb0:	4601      	mov	r1, r0
 8004cb2:	4648      	mov	r0, r9
 8004cb4:	f000 fcee 	bl	8005694 <__pow5mult>
 8004cb8:	9b07      	ldr	r3, [sp, #28]
 8004cba:	2b01      	cmp	r3, #1
 8004cbc:	4604      	mov	r4, r0
 8004cbe:	f300 809f 	bgt.w	8004e00 <_dtoa_r+0x8f8>
 8004cc2:	9b04      	ldr	r3, [sp, #16]
 8004cc4:	2b00      	cmp	r3, #0
 8004cc6:	f040 8097 	bne.w	8004df8 <_dtoa_r+0x8f0>
 8004cca:	9b05      	ldr	r3, [sp, #20]
 8004ccc:	f3c3 0313 	ubfx	r3, r3, #0, #20
 8004cd0:	2b00      	cmp	r3, #0
 8004cd2:	f040 8093 	bne.w	8004dfc <_dtoa_r+0x8f4>
 8004cd6:	9b05      	ldr	r3, [sp, #20]
 8004cd8:	f023 4300 	bic.w	r3, r3, #2147483648	@ 0x80000000
 8004cdc:	0d1b      	lsrs	r3, r3, #20
 8004cde:	051b      	lsls	r3, r3, #20
 8004ce0:	b133      	cbz	r3, 8004cf0 <_dtoa_r+0x7e8>
 8004ce2:	9b00      	ldr	r3, [sp, #0]
 8004ce4:	3301      	adds	r3, #1
 8004ce6:	9300      	str	r3, [sp, #0]
 8004ce8:	9b06      	ldr	r3, [sp, #24]
 8004cea:	3301      	adds	r3, #1
 8004cec:	9306      	str	r3, [sp, #24]
 8004cee:	2301      	movs	r3, #1
 8004cf0:	9308      	str	r3, [sp, #32]
 8004cf2:	9b0d      	ldr	r3, [sp, #52]	@ 0x34
 8004cf4:	2b00      	cmp	r3, #0
 8004cf6:	f000 81b8 	beq.w	800506a <_dtoa_r+0xb62>
 8004cfa:	6923      	ldr	r3, [r4, #16]
 8004cfc:	eb04 0383 	add.w	r3, r4, r3, lsl #2
 8004d00:	6918      	ldr	r0, [r3, #16]
 8004d02:	f000 fbc3 	bl	800548c <__hi0bits>
 8004d06:	f1c0 0020 	rsb	r0, r0, #32
 8004d0a:	9b06      	ldr	r3, [sp, #24]
 8004d0c:	4418      	add	r0, r3
 8004d0e:	f010 001f 	ands.w	r0, r0, #31
 8004d12:	f000 8082 	beq.w	8004e1a <_dtoa_r+0x912>
 8004d16:	f1c0 0320 	rsb	r3, r0, #32
 8004d1a:	2b04      	cmp	r3, #4
 8004d1c:	dd73      	ble.n	8004e06 <_dtoa_r+0x8fe>
 8004d1e:	9b00      	ldr	r3, [sp, #0]
 8004d20:	f1c0 001c 	rsb	r0, r0, #28
 8004d24:	4403      	add	r3, r0
 8004d26:	9300      	str	r3, [sp, #0]
 8004d28:	9b06      	ldr	r3, [sp, #24]
 8004d2a:	4403      	add	r3, r0
 8004d2c:	4406      	add	r6, r0
 8004d2e:	9306      	str	r3, [sp, #24]
 8004d30:	9b00      	ldr	r3, [sp, #0]
 8004d32:	2b00      	cmp	r3, #0
 8004d34:	dd05      	ble.n	8004d42 <_dtoa_r+0x83a>
 8004d36:	9902      	ldr	r1, [sp, #8]
 8004d38:	461a      	mov	r2, r3
 8004d3a:	4648      	mov	r0, r9
 8004d3c:	f000 fd04 	bl	8005748 <__lshift>
 8004d40:	9002      	str	r0, [sp, #8]
 8004d42:	9b06      	ldr	r3, [sp, #24]
 8004d44:	2b00      	cmp	r3, #0
 8004d46:	dd05      	ble.n	8004d54 <_dtoa_r+0x84c>
 8004d48:	4621      	mov	r1, r4
 8004d4a:	461a      	mov	r2, r3
 8004d4c:	4648      	mov	r0, r9
 8004d4e:	f000 fcfb 	bl	8005748 <__lshift>
 8004d52:	4604      	mov	r4, r0
 8004d54:	9b10      	ldr	r3, [sp, #64]	@ 0x40
 8004d56:	2b00      	cmp	r3, #0
 8004d58:	d061      	beq.n	8004e1e <_dtoa_r+0x916>
 8004d5a:	9802      	ldr	r0, [sp, #8]
 8004d5c:	4621      	mov	r1, r4
 8004d5e:	f000 fd5f 	bl	8005820 <__mcmp>
 8004d62:	2800      	cmp	r0, #0
 8004d64:	da5b      	bge.n	8004e1e <_dtoa_r+0x916>
 8004d66:	2300      	movs	r3, #0
 8004d68:	9902      	ldr	r1, [sp, #8]
 8004d6a:	220a      	movs	r2, #10
 8004d6c:	4648      	mov	r0, r9
 8004d6e:	f000 fafd 	bl	800536c <__multadd>
 8004d72:	9b09      	ldr	r3, [sp, #36]	@ 0x24
 8004d74:	9002      	str	r0, [sp, #8]
 8004d76:	f107 38ff 	add.w	r8, r7, #4294967295
 8004d7a:	2b00      	cmp	r3, #0
 8004d7c:	f000 8177 	beq.w	800506e <_dtoa_r+0xb66>
 8004d80:	4629      	mov	r1, r5
 8004d82:	2300      	movs	r3, #0
 8004d84:	220a      	movs	r2, #10
 8004d86:	4648      	mov	r0, r9
 8004d88:	f000 faf0 	bl	800536c <__multadd>
 8004d8c:	f1bb 0f00 	cmp.w	fp, #0
 8004d90:	4605      	mov	r5, r0
 8004d92:	dc6f      	bgt.n	8004e74 <_dtoa_r+0x96c>
 8004d94:	9b07      	ldr	r3, [sp, #28]
 8004d96:	2b02      	cmp	r3, #2
 8004d98:	dc49      	bgt.n	8004e2e <_dtoa_r+0x926>
 8004d9a:	e06b      	b.n	8004e74 <_dtoa_r+0x96c>
 8004d9c:	9b14      	ldr	r3, [sp, #80]	@ 0x50
 8004d9e:	f1c3 0336 	rsb	r3, r3, #54	@ 0x36
 8004da2:	e73c      	b.n	8004c1e <_dtoa_r+0x716>
 8004da4:	3fe00000 	.word	0x3fe00000
 8004da8:	40240000 	.word	0x40240000
 8004dac:	9b03      	ldr	r3, [sp, #12]
 8004dae:	1e5c      	subs	r4, r3, #1
 8004db0:	9b08      	ldr	r3, [sp, #32]
 8004db2:	42a3      	cmp	r3, r4
 8004db4:	db09      	blt.n	8004dca <_dtoa_r+0x8c2>
 8004db6:	1b1c      	subs	r4, r3, r4
 8004db8:	9b03      	ldr	r3, [sp, #12]
 8004dba:	2b00      	cmp	r3, #0
 8004dbc:	f6bf af30 	bge.w	8004c20 <_dtoa_r+0x718>
 8004dc0:	9b00      	ldr	r3, [sp, #0]
 8004dc2:	9a03      	ldr	r2, [sp, #12]
 8004dc4:	1a9e      	subs	r6, r3, r2
 8004dc6:	2300      	movs	r3, #0
 8004dc8:	e72b      	b.n	8004c22 <_dtoa_r+0x71a>
 8004dca:	9b08      	ldr	r3, [sp, #32]
 8004dcc:	9a0d      	ldr	r2, [sp, #52]	@ 0x34
 8004dce:	9408      	str	r4, [sp, #32]
 8004dd0:	1ae3      	subs	r3, r4, r3
 8004dd2:	441a      	add	r2, r3
 8004dd4:	9e00      	ldr	r6, [sp, #0]
 8004dd6:	9b03      	ldr	r3, [sp, #12]
 8004dd8:	920d      	str	r2, [sp, #52]	@ 0x34
 8004dda:	2400      	movs	r4, #0
 8004ddc:	e721      	b.n	8004c22 <_dtoa_r+0x71a>
 8004dde:	9c08      	ldr	r4, [sp, #32]
 8004de0:	9e00      	ldr	r6, [sp, #0]
 8004de2:	9d09      	ldr	r5, [sp, #36]	@ 0x24
 8004de4:	e728      	b.n	8004c38 <_dtoa_r+0x730>
 8004de6:	f8dd 8008 	ldr.w	r8, [sp, #8]
 8004dea:	e751      	b.n	8004c90 <_dtoa_r+0x788>
 8004dec:	9a08      	ldr	r2, [sp, #32]
 8004dee:	9902      	ldr	r1, [sp, #8]
 8004df0:	e750      	b.n	8004c94 <_dtoa_r+0x78c>
 8004df2:	f8cd 8008 	str.w	r8, [sp, #8]
 8004df6:	e751      	b.n	8004c9c <_dtoa_r+0x794>
 8004df8:	2300      	movs	r3, #0
 8004dfa:	e779      	b.n	8004cf0 <_dtoa_r+0x7e8>
 8004dfc:	9b04      	ldr	r3, [sp, #16]
 8004dfe:	e777      	b.n	8004cf0 <_dtoa_r+0x7e8>
 8004e00:	2300      	movs	r3, #0
 8004e02:	9308      	str	r3, [sp, #32]
 8004e04:	e779      	b.n	8004cfa <_dtoa_r+0x7f2>
 8004e06:	d093      	beq.n	8004d30 <_dtoa_r+0x828>
 8004e08:	9a00      	ldr	r2, [sp, #0]
 8004e0a:	331c      	adds	r3, #28
 8004e0c:	441a      	add	r2, r3
 8004e0e:	9200      	str	r2, [sp, #0]
 8004e10:	9a06      	ldr	r2, [sp, #24]
 8004e12:	441a      	add	r2, r3
 8004e14:	441e      	add	r6, r3
 8004e16:	9206      	str	r2, [sp, #24]
 8004e18:	e78a      	b.n	8004d30 <_dtoa_r+0x828>
 8004e1a:	4603      	mov	r3, r0
 8004e1c:	e7f4      	b.n	8004e08 <_dtoa_r+0x900>
 8004e1e:	9b03      	ldr	r3, [sp, #12]
 8004e20:	2b00      	cmp	r3, #0
 8004e22:	46b8      	mov	r8, r7
 8004e24:	dc20      	bgt.n	8004e68 <_dtoa_r+0x960>
 8004e26:	469b      	mov	fp, r3
 8004e28:	9b07      	ldr	r3, [sp, #28]
 8004e2a:	2b02      	cmp	r3, #2
 8004e2c:	dd1e      	ble.n	8004e6c <_dtoa_r+0x964>
 8004e2e:	f1bb 0f00 	cmp.w	fp, #0
 8004e32:	f47f adb1 	bne.w	8004998 <_dtoa_r+0x490>
 8004e36:	4621      	mov	r1, r4
 8004e38:	465b      	mov	r3, fp
 8004e3a:	2205      	movs	r2, #5
 8004e3c:	4648      	mov	r0, r9
 8004e3e:	f000 fa95 	bl	800536c <__multadd>
 8004e42:	4601      	mov	r1, r0
 8004e44:	4604      	mov	r4, r0
 8004e46:	9802      	ldr	r0, [sp, #8]
 8004e48:	f000 fcea 	bl	8005820 <__mcmp>
 8004e4c:	2800      	cmp	r0, #0
 8004e4e:	f77f ada3 	ble.w	8004998 <_dtoa_r+0x490>
 8004e52:	4656      	mov	r6, sl
 8004e54:	2331      	movs	r3, #49	@ 0x31
 8004e56:	f806 3b01 	strb.w	r3, [r6], #1
 8004e5a:	f108 0801 	add.w	r8, r8, #1
 8004e5e:	e59f      	b.n	80049a0 <_dtoa_r+0x498>
 8004e60:	9c03      	ldr	r4, [sp, #12]
 8004e62:	46b8      	mov	r8, r7
 8004e64:	4625      	mov	r5, r4
 8004e66:	e7f4      	b.n	8004e52 <_dtoa_r+0x94a>
 8004e68:	f8dd b00c 	ldr.w	fp, [sp, #12]
 8004e6c:	9b09      	ldr	r3, [sp, #36]	@ 0x24
 8004e6e:	2b00      	cmp	r3, #0
 8004e70:	f000 8101 	beq.w	8005076 <_dtoa_r+0xb6e>
 8004e74:	2e00      	cmp	r6, #0
 8004e76:	dd05      	ble.n	8004e84 <_dtoa_r+0x97c>
 8004e78:	4629      	mov	r1, r5
 8004e7a:	4632      	mov	r2, r6
 8004e7c:	4648      	mov	r0, r9
 8004e7e:	f000 fc63 	bl	8005748 <__lshift>
 8004e82:	4605      	mov	r5, r0
 8004e84:	9b08      	ldr	r3, [sp, #32]
 8004e86:	2b00      	cmp	r3, #0
 8004e88:	d05c      	beq.n	8004f44 <_dtoa_r+0xa3c>
 8004e8a:	6869      	ldr	r1, [r5, #4]
 8004e8c:	4648      	mov	r0, r9
 8004e8e:	f000 fa0b 	bl	80052a8 <_Balloc>
 8004e92:	4606      	mov	r6, r0
 8004e94:	b928      	cbnz	r0, 8004ea2 <_dtoa_r+0x99a>
 8004e96:	4b82      	ldr	r3, [pc, #520]	@ (80050a0 <_dtoa_r+0xb98>)
 8004e98:	4602      	mov	r2, r0
 8004e9a:	f240 21ef 	movw	r1, #751	@ 0x2ef
 8004e9e:	f7ff bb4a 	b.w	8004536 <_dtoa_r+0x2e>
 8004ea2:	692a      	ldr	r2, [r5, #16]
 8004ea4:	3202      	adds	r2, #2
 8004ea6:	0092      	lsls	r2, r2, #2
 8004ea8:	f105 010c 	add.w	r1, r5, #12
 8004eac:	300c      	adds	r0, #12
 8004eae:	f001 ff69 	bl	8006d84 <memcpy>
 8004eb2:	2201      	movs	r2, #1
 8004eb4:	4631      	mov	r1, r6
 8004eb6:	4648      	mov	r0, r9
 8004eb8:	f000 fc46 	bl	8005748 <__lshift>
 8004ebc:	f10a 0301 	add.w	r3, sl, #1
 8004ec0:	9300      	str	r3, [sp, #0]
 8004ec2:	eb0a 030b 	add.w	r3, sl, fp
 8004ec6:	9308      	str	r3, [sp, #32]
 8004ec8:	9b04      	ldr	r3, [sp, #16]
 8004eca:	f003 0301 	and.w	r3, r3, #1
 8004ece:	462f      	mov	r7, r5
 8004ed0:	9306      	str	r3, [sp, #24]
 8004ed2:	4605      	mov	r5, r0
 8004ed4:	9b00      	ldr	r3, [sp, #0]
 8004ed6:	9802      	ldr	r0, [sp, #8]
 8004ed8:	4621      	mov	r1, r4
 8004eda:	f103 3bff 	add.w	fp, r3, #4294967295
 8004ede:	f7ff fa8b 	bl	80043f8 <quorem>
 8004ee2:	4603      	mov	r3, r0
 8004ee4:	3330      	adds	r3, #48	@ 0x30
 8004ee6:	9003      	str	r0, [sp, #12]
 8004ee8:	4639      	mov	r1, r7
 8004eea:	9802      	ldr	r0, [sp, #8]
 8004eec:	9309      	str	r3, [sp, #36]	@ 0x24
 8004eee:	f000 fc97 	bl	8005820 <__mcmp>
 8004ef2:	462a      	mov	r2, r5
 8004ef4:	9004      	str	r0, [sp, #16]
 8004ef6:	4621      	mov	r1, r4
 8004ef8:	4648      	mov	r0, r9
 8004efa:	f000 fcad 	bl	8005858 <__mdiff>
 8004efe:	68c2      	ldr	r2, [r0, #12]
 8004f00:	9b09      	ldr	r3, [sp, #36]	@ 0x24
 8004f02:	4606      	mov	r6, r0
 8004f04:	bb02      	cbnz	r2, 8004f48 <_dtoa_r+0xa40>
 8004f06:	4601      	mov	r1, r0
 8004f08:	9802      	ldr	r0, [sp, #8]
 8004f0a:	f000 fc89 	bl	8005820 <__mcmp>
 8004f0e:	9b09      	ldr	r3, [sp, #36]	@ 0x24
 8004f10:	4602      	mov	r2, r0
 8004f12:	4631      	mov	r1, r6
 8004f14:	4648      	mov	r0, r9
 8004f16:	920c      	str	r2, [sp, #48]	@ 0x30
 8004f18:	9309      	str	r3, [sp, #36]	@ 0x24
 8004f1a:	f000 fa05 	bl	8005328 <_Bfree>
 8004f1e:	9b07      	ldr	r3, [sp, #28]
 8004f20:	9a0c      	ldr	r2, [sp, #48]	@ 0x30
 8004f22:	9e00      	ldr	r6, [sp, #0]
 8004f24:	ea42 0103 	orr.w	r1, r2, r3
 8004f28:	9b06      	ldr	r3, [sp, #24]
 8004f2a:	4319      	orrs	r1, r3
 8004f2c:	9b09      	ldr	r3, [sp, #36]	@ 0x24
 8004f2e:	d10d      	bne.n	8004f4c <_dtoa_r+0xa44>
 8004f30:	2b39      	cmp	r3, #57	@ 0x39
 8004f32:	d027      	beq.n	8004f84 <_dtoa_r+0xa7c>
 8004f34:	9a04      	ldr	r2, [sp, #16]
 8004f36:	2a00      	cmp	r2, #0
 8004f38:	dd01      	ble.n	8004f3e <_dtoa_r+0xa36>
 8004f3a:	9b03      	ldr	r3, [sp, #12]
 8004f3c:	3331      	adds	r3, #49	@ 0x31
 8004f3e:	f88b 3000 	strb.w	r3, [fp]
 8004f42:	e52e      	b.n	80049a2 <_dtoa_r+0x49a>
 8004f44:	4628      	mov	r0, r5
 8004f46:	e7b9      	b.n	8004ebc <_dtoa_r+0x9b4>
 8004f48:	2201      	movs	r2, #1
 8004f4a:	e7e2      	b.n	8004f12 <_dtoa_r+0xa0a>
 8004f4c:	9904      	ldr	r1, [sp, #16]
 8004f4e:	2900      	cmp	r1, #0
 8004f50:	db04      	blt.n	8004f5c <_dtoa_r+0xa54>
 8004f52:	9807      	ldr	r0, [sp, #28]
 8004f54:	4301      	orrs	r1, r0
 8004f56:	9806      	ldr	r0, [sp, #24]
 8004f58:	4301      	orrs	r1, r0
 8004f5a:	d120      	bne.n	8004f9e <_dtoa_r+0xa96>
 8004f5c:	2a00      	cmp	r2, #0
 8004f5e:	ddee      	ble.n	8004f3e <_dtoa_r+0xa36>
 8004f60:	9902      	ldr	r1, [sp, #8]
 8004f62:	9300      	str	r3, [sp, #0]
 8004f64:	2201      	movs	r2, #1
 8004f66:	4648      	mov	r0, r9
 8004f68:	f000 fbee 	bl	8005748 <__lshift>
 8004f6c:	4621      	mov	r1, r4
 8004f6e:	9002      	str	r0, [sp, #8]
 8004f70:	f000 fc56 	bl	8005820 <__mcmp>
 8004f74:	2800      	cmp	r0, #0
 8004f76:	9b00      	ldr	r3, [sp, #0]
 8004f78:	dc02      	bgt.n	8004f80 <_dtoa_r+0xa78>
 8004f7a:	d1e0      	bne.n	8004f3e <_dtoa_r+0xa36>
 8004f7c:	07da      	lsls	r2, r3, #31
 8004f7e:	d5de      	bpl.n	8004f3e <_dtoa_r+0xa36>
 8004f80:	2b39      	cmp	r3, #57	@ 0x39
 8004f82:	d1da      	bne.n	8004f3a <_dtoa_r+0xa32>
 8004f84:	2339      	movs	r3, #57	@ 0x39
 8004f86:	f88b 3000 	strb.w	r3, [fp]
 8004f8a:	4633      	mov	r3, r6
 8004f8c:	461e      	mov	r6, r3
 8004f8e:	3b01      	subs	r3, #1
 8004f90:	f816 2c01 	ldrb.w	r2, [r6, #-1]
 8004f94:	2a39      	cmp	r2, #57	@ 0x39
 8004f96:	d04e      	beq.n	8005036 <_dtoa_r+0xb2e>
 8004f98:	3201      	adds	r2, #1
 8004f9a:	701a      	strb	r2, [r3, #0]
 8004f9c:	e501      	b.n	80049a2 <_dtoa_r+0x49a>
 8004f9e:	2a00      	cmp	r2, #0
 8004fa0:	dd03      	ble.n	8004faa <_dtoa_r+0xaa2>
 8004fa2:	2b39      	cmp	r3, #57	@ 0x39
 8004fa4:	d0ee      	beq.n	8004f84 <_dtoa_r+0xa7c>
 8004fa6:	3301      	adds	r3, #1
 8004fa8:	e7c9      	b.n	8004f3e <_dtoa_r+0xa36>
 8004faa:	9a00      	ldr	r2, [sp, #0]
 8004fac:	9908      	ldr	r1, [sp, #32]
 8004fae:	f802 3c01 	strb.w	r3, [r2, #-1]
 8004fb2:	428a      	cmp	r2, r1
 8004fb4:	d028      	beq.n	8005008 <_dtoa_r+0xb00>
 8004fb6:	9902      	ldr	r1, [sp, #8]
 8004fb8:	2300      	movs	r3, #0
 8004fba:	220a      	movs	r2, #10
 8004fbc:	4648      	mov	r0, r9
 8004fbe:	f000 f9d5 	bl	800536c <__multadd>
 8004fc2:	42af      	cmp	r7, r5
 8004fc4:	9002      	str	r0, [sp, #8]
 8004fc6:	f04f 0300 	mov.w	r3, #0
 8004fca:	f04f 020a 	mov.w	r2, #10
 8004fce:	4639      	mov	r1, r7
 8004fd0:	4648      	mov	r0, r9
 8004fd2:	d107      	bne.n	8004fe4 <_dtoa_r+0xadc>
 8004fd4:	f000 f9ca 	bl	800536c <__multadd>
 8004fd8:	4607      	mov	r7, r0
 8004fda:	4605      	mov	r5, r0
 8004fdc:	9b00      	ldr	r3, [sp, #0]
 8004fde:	3301      	adds	r3, #1
 8004fe0:	9300      	str	r3, [sp, #0]
 8004fe2:	e777      	b.n	8004ed4 <_dtoa_r+0x9cc>
 8004fe4:	f000 f9c2 	bl	800536c <__multadd>
 8004fe8:	4629      	mov	r1, r5
 8004fea:	4607      	mov	r7, r0
 8004fec:	2300      	movs	r3, #0
 8004fee:	220a      	movs	r2, #10
 8004ff0:	4648      	mov	r0, r9
 8004ff2:	f000 f9bb 	bl	800536c <__multadd>
 8004ff6:	4605      	mov	r5, r0
 8004ff8:	e7f0      	b.n	8004fdc <_dtoa_r+0xad4>
 8004ffa:	f1bb 0f00 	cmp.w	fp, #0
 8004ffe:	bfcc      	ite	gt
 8005000:	465e      	movgt	r6, fp
 8005002:	2601      	movle	r6, #1
 8005004:	4456      	add	r6, sl
 8005006:	2700      	movs	r7, #0
 8005008:	9902      	ldr	r1, [sp, #8]
 800500a:	9300      	str	r3, [sp, #0]
 800500c:	2201      	movs	r2, #1
 800500e:	4648      	mov	r0, r9
 8005010:	f000 fb9a 	bl	8005748 <__lshift>
 8005014:	4621      	mov	r1, r4
 8005016:	9002      	str	r0, [sp, #8]
 8005018:	f000 fc02 	bl	8005820 <__mcmp>
 800501c:	2800      	cmp	r0, #0
 800501e:	dcb4      	bgt.n	8004f8a <_dtoa_r+0xa82>
 8005020:	d102      	bne.n	8005028 <_dtoa_r+0xb20>
 8005022:	9b00      	ldr	r3, [sp, #0]
 8005024:	07db      	lsls	r3, r3, #31
 8005026:	d4b0      	bmi.n	8004f8a <_dtoa_r+0xa82>
 8005028:	4633      	mov	r3, r6
 800502a:	461e      	mov	r6, r3
 800502c:	f813 2d01 	ldrb.w	r2, [r3, #-1]!
 8005030:	2a30      	cmp	r2, #48	@ 0x30
 8005032:	d0fa      	beq.n	800502a <_dtoa_r+0xb22>
 8005034:	e4b5      	b.n	80049a2 <_dtoa_r+0x49a>
 8005036:	459a      	cmp	sl, r3
 8005038:	d1a8      	bne.n	8004f8c <_dtoa_r+0xa84>
 800503a:	2331      	movs	r3, #49	@ 0x31
 800503c:	f108 0801 	add.w	r8, r8, #1
 8005040:	f88a 3000 	strb.w	r3, [sl]
 8005044:	e4ad      	b.n	80049a2 <_dtoa_r+0x49a>
 8005046:	9b21      	ldr	r3, [sp, #132]	@ 0x84
 8005048:	f8df a058 	ldr.w	sl, [pc, #88]	@ 80050a4 <_dtoa_r+0xb9c>
 800504c:	b11b      	cbz	r3, 8005056 <_dtoa_r+0xb4e>
 800504e:	f10a 0308 	add.w	r3, sl, #8
 8005052:	9a21      	ldr	r2, [sp, #132]	@ 0x84
 8005054:	6013      	str	r3, [r2, #0]
 8005056:	4650      	mov	r0, sl
 8005058:	b017      	add	sp, #92	@ 0x5c
 800505a:	e8bd 8ff0 	ldmia.w	sp!, {r4, r5, r6, r7, r8, r9, sl, fp, pc}
 800505e:	9b07      	ldr	r3, [sp, #28]
 8005060:	2b01      	cmp	r3, #1
 8005062:	f77f ae2e 	ble.w	8004cc2 <_dtoa_r+0x7ba>
 8005066:	9b0d      	ldr	r3, [sp, #52]	@ 0x34
 8005068:	9308      	str	r3, [sp, #32]
 800506a:	2001      	movs	r0, #1
 800506c:	e64d      	b.n	8004d0a <_dtoa_r+0x802>
 800506e:	f1bb 0f00 	cmp.w	fp, #0
 8005072:	f77f aed9 	ble.w	8004e28 <_dtoa_r+0x920>
 8005076:	4656      	mov	r6, sl
 8005078:	9802      	ldr	r0, [sp, #8]
 800507a:	4621      	mov	r1, r4
 800507c:	f7ff f9bc 	bl	80043f8 <quorem>
 8005080:	f100 0330 	add.w	r3, r0, #48	@ 0x30
 8005084:	f806 3b01 	strb.w	r3, [r6], #1
 8005088:	eba6 020a 	sub.w	r2, r6, sl
 800508c:	4593      	cmp	fp, r2
 800508e:	ddb4      	ble.n	8004ffa <_dtoa_r+0xaf2>
 8005090:	9902      	ldr	r1, [sp, #8]
 8005092:	2300      	movs	r3, #0
 8005094:	220a      	movs	r2, #10
 8005096:	4648      	mov	r0, r9
 8005098:	f000 f968 	bl	800536c <__multadd>
 800509c:	9002      	str	r0, [sp, #8]
 800509e:	e7eb      	b.n	8005078 <_dtoa_r+0xb70>
 80050a0:	08007bad 	.word	0x08007bad
 80050a4:	08007b31 	.word	0x08007b31

080050a8 <_free_r>:
 80050a8:	b538      	push	{r3, r4, r5, lr}
 80050aa:	4605      	mov	r5, r0
 80050ac:	2900      	cmp	r1, #0
 80050ae:	d041      	beq.n	8005134 <_free_r+0x8c>
 80050b0:	f851 3c04 	ldr.w	r3, [r1, #-4]
 80050b4:	1f0c      	subs	r4, r1, #4
 80050b6:	2b00      	cmp	r3, #0
 80050b8:	bfb8      	it	lt
 80050ba:	18e4      	addlt	r4, r4, r3
 80050bc:	f000 f8e8 	bl	8005290 <__malloc_lock>
 80050c0:	4a1d      	ldr	r2, [pc, #116]	@ (8005138 <_free_r+0x90>)
 80050c2:	6813      	ldr	r3, [r2, #0]
 80050c4:	b933      	cbnz	r3, 80050d4 <_free_r+0x2c>
 80050c6:	6063      	str	r3, [r4, #4]
 80050c8:	6014      	str	r4, [r2, #0]
 80050ca:	4628      	mov	r0, r5
 80050cc:	e8bd 4038 	ldmia.w	sp!, {r3, r4, r5, lr}
 80050d0:	f000 b8e4 	b.w	800529c <__malloc_unlock>
 80050d4:	42a3      	cmp	r3, r4
 80050d6:	d908      	bls.n	80050ea <_free_r+0x42>
 80050d8:	6820      	ldr	r0, [r4, #0]
 80050da:	1821      	adds	r1, r4, r0
 80050dc:	428b      	cmp	r3, r1
 80050de:	bf01      	itttt	eq
 80050e0:	6819      	ldreq	r1, [r3, #0]
 80050e2:	685b      	ldreq	r3, [r3, #4]
 80050e4:	1809      	addeq	r1, r1, r0
 80050e6:	6021      	streq	r1, [r4, #0]
 80050e8:	e7ed      	b.n	80050c6 <_free_r+0x1e>
 80050ea:	461a      	mov	r2, r3
 80050ec:	685b      	ldr	r3, [r3, #4]
 80050ee:	b10b      	cbz	r3, 80050f4 <_free_r+0x4c>
 80050f0:	42a3      	cmp	r3, r4
 80050f2:	d9fa      	bls.n	80050ea <_free_r+0x42>
 80050f4:	6811      	ldr	r1, [r2, #0]
 80050f6:	1850      	adds	r0, r2, r1
 80050f8:	42a0      	cmp	r0, r4
 80050fa:	d10b      	bne.n	8005114 <_free_r+0x6c>
 80050fc:	6820      	ldr	r0, [r4, #0]
 80050fe:	4401      	add	r1, r0
 8005100:	1850      	adds	r0, r2, r1
 8005102:	4283      	cmp	r3, r0
 8005104:	6011      	str	r1, [r2, #0]
 8005106:	d1e0      	bne.n	80050ca <_free_r+0x22>
 8005108:	6818      	ldr	r0, [r3, #0]
 800510a:	685b      	ldr	r3, [r3, #4]
 800510c:	6053      	str	r3, [r2, #4]
 800510e:	4408      	add	r0, r1
 8005110:	6010      	str	r0, [r2, #0]
 8005112:	e7da      	b.n	80050ca <_free_r+0x22>
 8005114:	d902      	bls.n	800511c <_free_r+0x74>
 8005116:	230c      	movs	r3, #12
 8005118:	602b      	str	r3, [r5, #0]
 800511a:	e7d6      	b.n	80050ca <_free_r+0x22>
 800511c:	6820      	ldr	r0, [r4, #0]
 800511e:	1821      	adds	r1, r4, r0
 8005120:	428b      	cmp	r3, r1
 8005122:	bf04      	itt	eq
 8005124:	6819      	ldreq	r1, [r3, #0]
 8005126:	685b      	ldreq	r3, [r3, #4]
 8005128:	6063      	str	r3, [r4, #4]
 800512a:	bf04      	itt	eq
 800512c:	1809      	addeq	r1, r1, r0
 800512e:	6021      	streq	r1, [r4, #0]
 8005130:	6054      	str	r4, [r2, #4]
 8005132:	e7ca      	b.n	80050ca <_free_r+0x22>
 8005134:	bd38      	pop	{r3, r4, r5, pc}
 8005136:	bf00      	nop
 8005138:	200007a4 	.word	0x200007a4

0800513c <malloc>:
 800513c:	4b02      	ldr	r3, [pc, #8]	@ (8005148 <malloc+0xc>)
 800513e:	4601      	mov	r1, r0
 8005140:	6818      	ldr	r0, [r3, #0]
 8005142:	f000 b825 	b.w	8005190 <_malloc_r>
 8005146:	bf00      	nop
 8005148:	20000018 	.word	0x20000018

0800514c <sbrk_aligned>:
 800514c:	b570      	push	{r4, r5, r6, lr}
 800514e:	4e0f      	ldr	r6, [pc, #60]	@ (800518c <sbrk_aligned+0x40>)
 8005150:	460c      	mov	r4, r1
 8005152:	6831      	ldr	r1, [r6, #0]
 8005154:	4605      	mov	r5, r0
 8005156:	b911      	cbnz	r1, 800515e <sbrk_aligned+0x12>
 8005158:	f001 fe04 	bl	8006d64 <_sbrk_r>
 800515c:	6030      	str	r0, [r6, #0]
 800515e:	4621      	mov	r1, r4
 8005160:	4628      	mov	r0, r5
 8005162:	f001 fdff 	bl	8006d64 <_sbrk_r>
 8005166:	1c43      	adds	r3, r0, #1
 8005168:	d103      	bne.n	8005172 <sbrk_aligned+0x26>
 800516a:	f04f 34ff 	mov.w	r4, #4294967295
 800516e:	4620      	mov	r0, r4
 8005170:	bd70      	pop	{r4, r5, r6, pc}
 8005172:	1cc4      	adds	r4, r0, #3
 8005174:	f024 0403 	bic.w	r4, r4, #3
 8005178:	42a0      	cmp	r0, r4
 800517a:	d0f8      	beq.n	800516e <sbrk_aligned+0x22>
 800517c:	1a21      	subs	r1, r4, r0
 800517e:	4628      	mov	r0, r5
 8005180:	f001 fdf0 	bl	8006d64 <_sbrk_r>
 8005184:	3001      	adds	r0, #1
 8005186:	d1f2      	bne.n	800516e <sbrk_aligned+0x22>
 8005188:	e7ef      	b.n	800516a <sbrk_aligned+0x1e>
 800518a:	bf00      	nop
 800518c:	200007a0 	.word	0x200007a0

08005190 <_malloc_r>:
 8005190:	e92d 43f8 	stmdb	sp!, {r3, r4, r5, r6, r7, r8, r9, lr}
 8005194:	1ccd      	adds	r5, r1, #3
 8005196:	f025 0503 	bic.w	r5, r5, #3
 800519a:	3508      	adds	r5, #8
 800519c:	2d0c      	cmp	r5, #12
 800519e:	bf38      	it	cc
 80051a0:	250c      	movcc	r5, #12
 80051a2:	2d00      	cmp	r5, #0
 80051a4:	4606      	mov	r6, r0
 80051a6:	db01      	blt.n	80051ac <_malloc_r+0x1c>
 80051a8:	42a9      	cmp	r1, r5
 80051aa:	d904      	bls.n	80051b6 <_malloc_r+0x26>
 80051ac:	230c      	movs	r3, #12
 80051ae:	6033      	str	r3, [r6, #0]
 80051b0:	2000      	movs	r0, #0
 80051b2:	e8bd 83f8 	ldmia.w	sp!, {r3, r4, r5, r6, r7, r8, r9, pc}
 80051b6:	f8df 80d4 	ldr.w	r8, [pc, #212]	@ 800528c <_malloc_r+0xfc>
 80051ba:	f000 f869 	bl	8005290 <__malloc_lock>
 80051be:	f8d8 3000 	ldr.w	r3, [r8]
 80051c2:	461c      	mov	r4, r3
 80051c4:	bb44      	cbnz	r4, 8005218 <_malloc_r+0x88>
 80051c6:	4629      	mov	r1, r5
 80051c8:	4630      	mov	r0, r6
 80051ca:	f7ff ffbf 	bl	800514c <sbrk_aligned>
 80051ce:	1c43      	adds	r3, r0, #1
 80051d0:	4604      	mov	r4, r0
 80051d2:	d158      	bne.n	8005286 <_malloc_r+0xf6>
 80051d4:	f8d8 4000 	ldr.w	r4, [r8]
 80051d8:	4627      	mov	r7, r4
 80051da:	2f00      	cmp	r7, #0
 80051dc:	d143      	bne.n	8005266 <_malloc_r+0xd6>
 80051de:	2c00      	cmp	r4, #0
 80051e0:	d04b      	beq.n	800527a <_malloc_r+0xea>
 80051e2:	6823      	ldr	r3, [r4, #0]
 80051e4:	4639      	mov	r1, r7
 80051e6:	4630      	mov	r0, r6
 80051e8:	eb04 0903 	add.w	r9, r4, r3
 80051ec:	f001 fdba 	bl	8006d64 <_sbrk_r>
 80051f0:	4581      	cmp	r9, r0
 80051f2:	d142      	bne.n	800527a <_malloc_r+0xea>
 80051f4:	6821      	ldr	r1, [r4, #0]
 80051f6:	1a6d      	subs	r5, r5, r1
 80051f8:	4629      	mov	r1, r5
 80051fa:	4630      	mov	r0, r6
 80051fc:	f7ff ffa6 	bl	800514c <sbrk_aligned>
 8005200:	3001      	adds	r0, #1
 8005202:	d03a      	beq.n	800527a <_malloc_r+0xea>
 8005204:	6823      	ldr	r3, [r4, #0]
 8005206:	442b      	add	r3, r5
 8005208:	6023      	str	r3, [r4, #0]
 800520a:	f8d8 3000 	ldr.w	r3, [r8]
 800520e:	685a      	ldr	r2, [r3, #4]
 8005210:	bb62      	cbnz	r2, 800526c <_malloc_r+0xdc>
 8005212:	f8c8 7000 	str.w	r7, [r8]
 8005216:	e00f      	b.n	8005238 <_malloc_r+0xa8>
 8005218:	6822      	ldr	r2, [r4, #0]
 800521a:	1b52      	subs	r2, r2, r5
 800521c:	d420      	bmi.n	8005260 <_malloc_r+0xd0>
 800521e:	2a0b      	cmp	r2, #11
 8005220:	d917      	bls.n	8005252 <_malloc_r+0xc2>
 8005222:	1961      	adds	r1, r4, r5
 8005224:	42a3      	cmp	r3, r4
 8005226:	6025      	str	r5, [r4, #0]
 8005228:	bf18      	it	ne
 800522a:	6059      	strne	r1, [r3, #4]
 800522c:	6863      	ldr	r3, [r4, #4]
 800522e:	bf08      	it	eq
 8005230:	f8c8 1000 	streq.w	r1, [r8]
 8005234:	5162      	str	r2, [r4, r5]
 8005236:	604b      	str	r3, [r1, #4]
 8005238:	4630      	mov	r0, r6
 800523a:	f000 f82f 	bl	800529c <__malloc_unlock>
 800523e:	f104 000b 	add.w	r0, r4, #11
 8005242:	1d23      	adds	r3, r4, #4
 8005244:	f020 0007 	bic.w	r0, r0, #7
 8005248:	1ac2      	subs	r2, r0, r3
 800524a:	bf1c      	itt	ne
 800524c:	1a1b      	subne	r3, r3, r0
 800524e:	50a3      	strne	r3, [r4, r2]
 8005250:	e7af      	b.n	80051b2 <_malloc_r+0x22>
 8005252:	6862      	ldr	r2, [r4, #4]
 8005254:	42a3      	cmp	r3, r4
 8005256:	bf0c      	ite	eq
 8005258:	f8c8 2000 	streq.w	r2, [r8]
 800525c:	605a      	strne	r2, [r3, #4]
 800525e:	e7eb      	b.n	8005238 <_malloc_r+0xa8>
 8005260:	4623      	mov	r3, r4
 8005262:	6864      	ldr	r4, [r4, #4]
 8005264:	e7ae      	b.n	80051c4 <_malloc_r+0x34>
 8005266:	463c      	mov	r4, r7
 8005268:	687f      	ldr	r7, [r7, #4]
 800526a:	e7b6      	b.n	80051da <_malloc_r+0x4a>
 800526c:	461a      	mov	r2, r3
 800526e:	685b      	ldr	r3, [r3, #4]
 8005270:	42a3      	cmp	r3, r4
 8005272:	d1fb      	bne.n	800526c <_malloc_r+0xdc>
 8005274:	2300      	movs	r3, #0
 8005276:	6053      	str	r3, [r2, #4]
 8005278:	e7de      	b.n	8005238 <_malloc_r+0xa8>
 800527a:	230c      	movs	r3, #12
 800527c:	6033      	str	r3, [r6, #0]
 800527e:	4630      	mov	r0, r6
 8005280:	f000 f80c 	bl	800529c <__malloc_unlock>
 8005284:	e794      	b.n	80051b0 <_malloc_r+0x20>
 8005286:	6005      	str	r5, [r0, #0]
 8005288:	e7d6      	b.n	8005238 <_malloc_r+0xa8>
 800528a:	bf00      	nop
 800528c:	200007a4 	.word	0x200007a4

08005290 <__malloc_lock>:
 8005290:	4801      	ldr	r0, [pc, #4]	@ (8005298 <__malloc_lock+0x8>)
 8005292:	f7ff b8a8 	b.w	80043e6 <__retarget_lock_acquire_recursive>
 8005296:	bf00      	nop
 8005298:	2000079c 	.word	0x2000079c

0800529c <__malloc_unlock>:
 800529c:	4801      	ldr	r0, [pc, #4]	@ (80052a4 <__malloc_unlock+0x8>)
 800529e:	f7ff b8a3 	b.w	80043e8 <__retarget_lock_release_recursive>
 80052a2:	bf00      	nop
 80052a4:	2000079c 	.word	0x2000079c

080052a8 <_Balloc>:
 80052a8:	b570      	push	{r4, r5, r6, lr}
 80052aa:	69c6      	ldr	r6, [r0, #28]
 80052ac:	4604      	mov	r4, r0
 80052ae:	460d      	mov	r5, r1
 80052b0:	b976      	cbnz	r6, 80052d0 <_Balloc+0x28>
 80052b2:	2010      	movs	r0, #16
 80052b4:	f7ff ff42 	bl	800513c <malloc>
 80052b8:	4602      	mov	r2, r0
 80052ba:	61e0      	str	r0, [r4, #28]
 80052bc:	b920      	cbnz	r0, 80052c8 <_Balloc+0x20>
 80052be:	4b18      	ldr	r3, [pc, #96]	@ (8005320 <_Balloc+0x78>)
 80052c0:	4818      	ldr	r0, [pc, #96]	@ (8005324 <_Balloc+0x7c>)
 80052c2:	216b      	movs	r1, #107	@ 0x6b
 80052c4:	f001 fd74 	bl	8006db0 <__assert_func>
 80052c8:	e9c0 6601 	strd	r6, r6, [r0, #4]
 80052cc:	6006      	str	r6, [r0, #0]
 80052ce:	60c6      	str	r6, [r0, #12]
 80052d0:	69e6      	ldr	r6, [r4, #28]
 80052d2:	68f3      	ldr	r3, [r6, #12]
 80052d4:	b183      	cbz	r3, 80052f8 <_Balloc+0x50>
 80052d6:	69e3      	ldr	r3, [r4, #28]
 80052d8:	68db      	ldr	r3, [r3, #12]
 80052da:	f853 0025 	ldr.w	r0, [r3, r5, lsl #2]
 80052de:	b9b8      	cbnz	r0, 8005310 <_Balloc+0x68>
 80052e0:	2101      	movs	r1, #1
 80052e2:	fa01 f605 	lsl.w	r6, r1, r5
 80052e6:	1d72      	adds	r2, r6, #5
 80052e8:	0092      	lsls	r2, r2, #2
 80052ea:	4620      	mov	r0, r4
 80052ec:	f001 fd7e 	bl	8006dec <_calloc_r>
 80052f0:	b160      	cbz	r0, 800530c <_Balloc+0x64>
 80052f2:	e9c0 5601 	strd	r5, r6, [r0, #4]
 80052f6:	e00e      	b.n	8005316 <_Balloc+0x6e>
 80052f8:	2221      	movs	r2, #33	@ 0x21
 80052fa:	2104      	movs	r1, #4
 80052fc:	4620      	mov	r0, r4
 80052fe:	f001 fd75 	bl	8006dec <_calloc_r>
 8005302:	69e3      	ldr	r3, [r4, #28]
 8005304:	60f0      	str	r0, [r6, #12]
 8005306:	68db      	ldr	r3, [r3, #12]
 8005308:	2b00      	cmp	r3, #0
 800530a:	d1e4      	bne.n	80052d6 <_Balloc+0x2e>
 800530c:	2000      	movs	r0, #0
 800530e:	bd70      	pop	{r4, r5, r6, pc}
 8005310:	6802      	ldr	r2, [r0, #0]
 8005312:	f843 2025 	str.w	r2, [r3, r5, lsl #2]
 8005316:	2300      	movs	r3, #0
 8005318:	e9c0 3303 	strd	r3, r3, [r0, #12]
 800531c:	e7f7      	b.n	800530e <_Balloc+0x66>
 800531e:	bf00      	nop
 8005320:	08007b3e 	.word	0x08007b3e
 8005324:	08007bbe 	.word	0x08007bbe

08005328 <_Bfree>:
 8005328:	b570      	push	{r4, r5, r6, lr}
 800532a:	69c6      	ldr	r6, [r0, #28]
 800532c:	4605      	mov	r5, r0
 800532e:	460c      	mov	r4, r1
 8005330:	b976      	cbnz	r6, 8005350 <_Bfree+0x28>
 8005332:	2010      	movs	r0, #16
 8005334:	f7ff ff02 	bl	800513c <malloc>
 8005338:	4602      	mov	r2, r0
 800533a:	61e8      	str	r0, [r5, #28]
 800533c:	b920      	cbnz	r0, 8005348 <_Bfree+0x20>
 800533e:	4b09      	ldr	r3, [pc, #36]	@ (8005364 <_Bfree+0x3c>)
 8005340:	4809      	ldr	r0, [pc, #36]	@ (8005368 <_Bfree+0x40>)
 8005342:	218f      	movs	r1, #143	@ 0x8f
 8005344:	f001 fd34 	bl	8006db0 <__assert_func>
 8005348:	e9c0 6601 	strd	r6, r6, [r0, #4]
 800534c:	6006      	str	r6, [r0, #0]
 800534e:	60c6      	str	r6, [r0, #12]
 8005350:	b13c      	cbz	r4, 8005362 <_Bfree+0x3a>
 8005352:	69eb      	ldr	r3, [r5, #28]
 8005354:	6862      	ldr	r2, [r4, #4]
 8005356:	68db      	ldr	r3, [r3, #12]
 8005358:	f853 1022 	ldr.w	r1, [r3, r2, lsl #2]
 800535c:	6021      	str	r1, [r4, #0]
 800535e:	f843 4022 	str.w	r4, [r3, r2, lsl #2]
 8005362:	bd70      	pop	{r4, r5, r6, pc}
 8005364:	08007b3e 	.word	0x08007b3e
 8005368:	08007bbe 	.word	0x08007bbe

0800536c <__multadd>:
 800536c:	e92d 41f0 	stmdb	sp!, {r4, r5, r6, r7, r8, lr}
 8005370:	690d      	ldr	r5, [r1, #16]
 8005372:	4607      	mov	r7, r0
 8005374:	460c      	mov	r4, r1
 8005376:	461e      	mov	r6, r3
 8005378:	f101 0c14 	add.w	ip, r1, #20
 800537c:	2000      	movs	r0, #0
 800537e:	f8dc 3000 	ldr.w	r3, [ip]
 8005382:	b299      	uxth	r1, r3
 8005384:	fb02 6101 	mla	r1, r2, r1, r6
 8005388:	0c1e      	lsrs	r6, r3, #16
 800538a:	0c0b      	lsrs	r3, r1, #16
 800538c:	fb02 3306 	mla	r3, r2, r6, r3
 8005390:	b289      	uxth	r1, r1
 8005392:	3001      	adds	r0, #1
 8005394:	eb01 4103 	add.w	r1, r1, r3, lsl #16
 8005398:	4285      	cmp	r5, r0
 800539a:	f84c 1b04 	str.w	r1, [ip], #4
 800539e:	ea4f 4613 	mov.w	r6, r3, lsr #16
 80053a2:	dcec      	bgt.n	800537e <__multadd+0x12>
 80053a4:	b30e      	cbz	r6, 80053ea <__multadd+0x7e>
 80053a6:	68a3      	ldr	r3, [r4, #8]
 80053a8:	42ab      	cmp	r3, r5
 80053aa:	dc19      	bgt.n	80053e0 <__multadd+0x74>
 80053ac:	6861      	ldr	r1, [r4, #4]
 80053ae:	4638      	mov	r0, r7
 80053b0:	3101      	adds	r1, #1
 80053b2:	f7ff ff79 	bl	80052a8 <_Balloc>
 80053b6:	4680      	mov	r8, r0
 80053b8:	b928      	cbnz	r0, 80053c6 <__multadd+0x5a>
 80053ba:	4602      	mov	r2, r0
 80053bc:	4b0c      	ldr	r3, [pc, #48]	@ (80053f0 <__multadd+0x84>)
 80053be:	480d      	ldr	r0, [pc, #52]	@ (80053f4 <__multadd+0x88>)
 80053c0:	21ba      	movs	r1, #186	@ 0xba
 80053c2:	f001 fcf5 	bl	8006db0 <__assert_func>
 80053c6:	6922      	ldr	r2, [r4, #16]
 80053c8:	3202      	adds	r2, #2
 80053ca:	f104 010c 	add.w	r1, r4, #12
 80053ce:	0092      	lsls	r2, r2, #2
 80053d0:	300c      	adds	r0, #12
 80053d2:	f001 fcd7 	bl	8006d84 <memcpy>
 80053d6:	4621      	mov	r1, r4
 80053d8:	4638      	mov	r0, r7
 80053da:	f7ff ffa5 	bl	8005328 <_Bfree>
 80053de:	4644      	mov	r4, r8
 80053e0:	eb04 0385 	add.w	r3, r4, r5, lsl #2
 80053e4:	3501      	adds	r5, #1
 80053e6:	615e      	str	r6, [r3, #20]
 80053e8:	6125      	str	r5, [r4, #16]
 80053ea:	4620      	mov	r0, r4
 80053ec:	e8bd 81f0 	ldmia.w	sp!, {r4, r5, r6, r7, r8, pc}
 80053f0:	08007bad 	.word	0x08007bad
 80053f4:	08007bbe 	.word	0x08007bbe

080053f8 <__s2b>:
 80053f8:	e92d 43f8 	stmdb	sp!, {r3, r4, r5, r6, r7, r8, r9, lr}
 80053fc:	460c      	mov	r4, r1
 80053fe:	4615      	mov	r5, r2
 8005400:	461f      	mov	r7, r3
 8005402:	2209      	movs	r2, #9
 8005404:	3308      	adds	r3, #8
 8005406:	4606      	mov	r6, r0
 8005408:	fb93 f3f2 	sdiv	r3, r3, r2
 800540c:	2100      	movs	r1, #0
 800540e:	2201      	movs	r2, #1
 8005410:	429a      	cmp	r2, r3
 8005412:	db09      	blt.n	8005428 <__s2b+0x30>
 8005414:	4630      	mov	r0, r6
 8005416:	f7ff ff47 	bl	80052a8 <_Balloc>
 800541a:	b940      	cbnz	r0, 800542e <__s2b+0x36>
 800541c:	4602      	mov	r2, r0
 800541e:	4b19      	ldr	r3, [pc, #100]	@ (8005484 <__s2b+0x8c>)
 8005420:	4819      	ldr	r0, [pc, #100]	@ (8005488 <__s2b+0x90>)
 8005422:	21d3      	movs	r1, #211	@ 0xd3
 8005424:	f001 fcc4 	bl	8006db0 <__assert_func>
 8005428:	0052      	lsls	r2, r2, #1
 800542a:	3101      	adds	r1, #1
 800542c:	e7f0      	b.n	8005410 <__s2b+0x18>
 800542e:	9b08      	ldr	r3, [sp, #32]
 8005430:	6143      	str	r3, [r0, #20]
 8005432:	2d09      	cmp	r5, #9
 8005434:	f04f 0301 	mov.w	r3, #1
 8005438:	6103      	str	r3, [r0, #16]
 800543a:	dd16      	ble.n	800546a <__s2b+0x72>
 800543c:	f104 0909 	add.w	r9, r4, #9
 8005440:	46c8      	mov	r8, r9
 8005442:	442c      	add	r4, r5
 8005444:	f818 3b01 	ldrb.w	r3, [r8], #1
 8005448:	4601      	mov	r1, r0
 800544a:	3b30      	subs	r3, #48	@ 0x30
 800544c:	220a      	movs	r2, #10
 800544e:	4630      	mov	r0, r6
 8005450:	f7ff ff8c 	bl	800536c <__multadd>
 8005454:	45a0      	cmp	r8, r4
 8005456:	d1f5      	bne.n	8005444 <__s2b+0x4c>
 8005458:	f1a5 0408 	sub.w	r4, r5, #8
 800545c:	444c      	add	r4, r9
 800545e:	1b2d      	subs	r5, r5, r4
 8005460:	1963      	adds	r3, r4, r5
 8005462:	42bb      	cmp	r3, r7
 8005464:	db04      	blt.n	8005470 <__s2b+0x78>
 8005466:	e8bd 83f8 	ldmia.w	sp!, {r3, r4, r5, r6, r7, r8, r9, pc}
 800546a:	340a      	adds	r4, #10
 800546c:	2509      	movs	r5, #9
 800546e:	e7f6      	b.n	800545e <__s2b+0x66>
 8005470:	f814 3b01 	ldrb.w	r3, [r4], #1
 8005474:	4601      	mov	r1, r0
 8005476:	3b30      	subs	r3, #48	@ 0x30
 8005478:	220a      	movs	r2, #10
 800547a:	4630      	mov	r0, r6
 800547c:	f7ff ff76 	bl	800536c <__multadd>
 8005480:	e7ee      	b.n	8005460 <__s2b+0x68>
 8005482:	bf00      	nop
 8005484:	08007bad 	.word	0x08007bad
 8005488:	08007bbe 	.word	0x08007bbe

0800548c <__hi0bits>:
 800548c:	f5b0 3f80 	cmp.w	r0, #65536	@ 0x10000
 8005490:	4603      	mov	r3, r0
 8005492:	bf36      	itet	cc
 8005494:	0403      	lslcc	r3, r0, #16
 8005496:	2000      	movcs	r0, #0
 8005498:	2010      	movcc	r0, #16
 800549a:	f1b3 7f80 	cmp.w	r3, #16777216	@ 0x1000000
 800549e:	bf3c      	itt	cc
 80054a0:	021b      	lslcc	r3, r3, #8
 80054a2:	3008      	addcc	r0, #8
 80054a4:	f1b3 5f80 	cmp.w	r3, #268435456	@ 0x10000000
 80054a8:	bf3c      	itt	cc
 80054aa:	011b      	lslcc	r3, r3, #4
 80054ac:	3004      	addcc	r0, #4
 80054ae:	f1b3 4f80 	cmp.w	r3, #1073741824	@ 0x40000000
 80054b2:	bf3c      	itt	cc
 80054b4:	009b      	lslcc	r3, r3, #2
 80054b6:	3002      	addcc	r0, #2
 80054b8:	2b00      	cmp	r3, #0
 80054ba:	db05      	blt.n	80054c8 <__hi0bits+0x3c>
 80054bc:	f013 4f80 	tst.w	r3, #1073741824	@ 0x40000000
 80054c0:	f100 0001 	add.w	r0, r0, #1
 80054c4:	bf08      	it	eq
 80054c6:	2020      	moveq	r0, #32
 80054c8:	4770      	bx	lr

080054ca <__lo0bits>:
 80054ca:	6803      	ldr	r3, [r0, #0]
 80054cc:	4602      	mov	r2, r0
 80054ce:	f013 0007 	ands.w	r0, r3, #7
 80054d2:	d00b      	beq.n	80054ec <__lo0bits+0x22>
 80054d4:	07d9      	lsls	r1, r3, #31
 80054d6:	d421      	bmi.n	800551c <__lo0bits+0x52>
 80054d8:	0798      	lsls	r0, r3, #30
 80054da:	bf49      	itett	mi
 80054dc:	085b      	lsrmi	r3, r3, #1
 80054de:	089b      	lsrpl	r3, r3, #2
 80054e0:	2001      	movmi	r0, #1
 80054e2:	6013      	strmi	r3, [r2, #0]
 80054e4:	bf5c      	itt	pl
 80054e6:	6013      	strpl	r3, [r2, #0]
 80054e8:	2002      	movpl	r0, #2
 80054ea:	4770      	bx	lr
 80054ec:	b299      	uxth	r1, r3
 80054ee:	b909      	cbnz	r1, 80054f4 <__lo0bits+0x2a>
 80054f0:	0c1b      	lsrs	r3, r3, #16
 80054f2:	2010      	movs	r0, #16
 80054f4:	b2d9      	uxtb	r1, r3
 80054f6:	b909      	cbnz	r1, 80054fc <__lo0bits+0x32>
 80054f8:	3008      	adds	r0, #8
 80054fa:	0a1b      	lsrs	r3, r3, #8
 80054fc:	0719      	lsls	r1, r3, #28
 80054fe:	bf04      	itt	eq
 8005500:	091b      	lsreq	r3, r3, #4
 8005502:	3004      	addeq	r0, #4
 8005504:	0799      	lsls	r1, r3, #30
 8005506:	bf04      	itt	eq
 8005508:	089b      	lsreq	r3, r3, #2
 800550a:	3002      	addeq	r0, #2
 800550c:	07d9      	lsls	r1, r3, #31
 800550e:	d403      	bmi.n	8005518 <__lo0bits+0x4e>
 8005510:	085b      	lsrs	r3, r3, #1
 8005512:	f100 0001 	add.w	r0, r0, #1
 8005516:	d003      	beq.n	8005520 <__lo0bits+0x56>
 8005518:	6013      	str	r3, [r2, #0]
 800551a:	4770      	bx	lr
 800551c:	2000      	movs	r0, #0
 800551e:	4770      	bx	lr
 8005520:	2020      	movs	r0, #32
 8005522:	4770      	bx	lr

08005524 <__i2b>:
 8005524:	b510      	push	{r4, lr}
 8005526:	460c      	mov	r4, r1
 8005528:	2101      	movs	r1, #1
 800552a:	f7ff febd 	bl	80052a8 <_Balloc>
 800552e:	4602      	mov	r2, r0
 8005530:	b928      	cbnz	r0, 800553e <__i2b+0x1a>
 8005532:	4b05      	ldr	r3, [pc, #20]	@ (8005548 <__i2b+0x24>)
 8005534:	4805      	ldr	r0, [pc, #20]	@ (800554c <__i2b+0x28>)
 8005536:	f240 1145 	movw	r1, #325	@ 0x145
 800553a:	f001 fc39 	bl	8006db0 <__assert_func>
 800553e:	2301      	movs	r3, #1
 8005540:	6144      	str	r4, [r0, #20]
 8005542:	6103      	str	r3, [r0, #16]
 8005544:	bd10      	pop	{r4, pc}
 8005546:	bf00      	nop
 8005548:	08007bad 	.word	0x08007bad
 800554c:	08007bbe 	.word	0x08007bbe

08005550 <__multiply>:
 8005550:	e92d 4ff0 	stmdb	sp!, {r4, r5, r6, r7, r8, r9, sl, fp, lr}
 8005554:	4617      	mov	r7, r2
 8005556:	690a      	ldr	r2, [r1, #16]
 8005558:	693b      	ldr	r3, [r7, #16]
 800555a:	429a      	cmp	r2, r3
 800555c:	bfa8      	it	ge
 800555e:	463b      	movge	r3, r7
 8005560:	4689      	mov	r9, r1
 8005562:	bfa4      	itt	ge
 8005564:	460f      	movge	r7, r1
 8005566:	4699      	movge	r9, r3
 8005568:	693d      	ldr	r5, [r7, #16]
 800556a:	f8d9 a010 	ldr.w	sl, [r9, #16]
 800556e:	68bb      	ldr	r3, [r7, #8]
 8005570:	6879      	ldr	r1, [r7, #4]
 8005572:	eb05 060a 	add.w	r6, r5, sl
 8005576:	42b3      	cmp	r3, r6
 8005578:	b085      	sub	sp, #20
 800557a:	bfb8      	it	lt
 800557c:	3101      	addlt	r1, #1
 800557e:	f7ff fe93 	bl	80052a8 <_Balloc>
 8005582:	b930      	cbnz	r0, 8005592 <__multiply+0x42>
 8005584:	4602      	mov	r2, r0
 8005586:	4b41      	ldr	r3, [pc, #260]	@ (800568c <__multiply+0x13c>)
 8005588:	4841      	ldr	r0, [pc, #260]	@ (8005690 <__multiply+0x140>)
 800558a:	f44f 71b1 	mov.w	r1, #354	@ 0x162
 800558e:	f001 fc0f 	bl	8006db0 <__assert_func>
 8005592:	f100 0414 	add.w	r4, r0, #20
 8005596:	eb04 0e86 	add.w	lr, r4, r6, lsl #2
 800559a:	4623      	mov	r3, r4
 800559c:	2200      	movs	r2, #0
 800559e:	4573      	cmp	r3, lr
 80055a0:	d320      	bcc.n	80055e4 <__multiply+0x94>
 80055a2:	f107 0814 	add.w	r8, r7, #20
 80055a6:	f109 0114 	add.w	r1, r9, #20
 80055aa:	eb08 0585 	add.w	r5, r8, r5, lsl #2
 80055ae:	eb01 038a 	add.w	r3, r1, sl, lsl #2
 80055b2:	9302      	str	r3, [sp, #8]
 80055b4:	1beb      	subs	r3, r5, r7
 80055b6:	3b15      	subs	r3, #21
 80055b8:	f023 0303 	bic.w	r3, r3, #3
 80055bc:	3304      	adds	r3, #4
 80055be:	3715      	adds	r7, #21
 80055c0:	42bd      	cmp	r5, r7
 80055c2:	bf38      	it	cc
 80055c4:	2304      	movcc	r3, #4
 80055c6:	9301      	str	r3, [sp, #4]
 80055c8:	9b02      	ldr	r3, [sp, #8]
 80055ca:	9103      	str	r1, [sp, #12]
 80055cc:	428b      	cmp	r3, r1
 80055ce:	d80c      	bhi.n	80055ea <__multiply+0x9a>
 80055d0:	2e00      	cmp	r6, #0
 80055d2:	dd03      	ble.n	80055dc <__multiply+0x8c>
 80055d4:	f85e 3d04 	ldr.w	r3, [lr, #-4]!
 80055d8:	2b00      	cmp	r3, #0
 80055da:	d055      	beq.n	8005688 <__multiply+0x138>
 80055dc:	6106      	str	r6, [r0, #16]
 80055de:	b005      	add	sp, #20
 80055e0:	e8bd 8ff0 	ldmia.w	sp!, {r4, r5, r6, r7, r8, r9, sl, fp, pc}
 80055e4:	f843 2b04 	str.w	r2, [r3], #4
 80055e8:	e7d9      	b.n	800559e <__multiply+0x4e>
 80055ea:	f8b1 a000 	ldrh.w	sl, [r1]
 80055ee:	f1ba 0f00 	cmp.w	sl, #0
 80055f2:	d01f      	beq.n	8005634 <__multiply+0xe4>
 80055f4:	46c4      	mov	ip, r8
 80055f6:	46a1      	mov	r9, r4
 80055f8:	2700      	movs	r7, #0
 80055fa:	f85c 2b04 	ldr.w	r2, [ip], #4
 80055fe:	f8d9 3000 	ldr.w	r3, [r9]
 8005602:	fa1f fb82 	uxth.w	fp, r2
 8005606:	b29b      	uxth	r3, r3
 8005608:	fb0a 330b 	mla	r3, sl, fp, r3
 800560c:	443b      	add	r3, r7
 800560e:	f8d9 7000 	ldr.w	r7, [r9]
 8005612:	0c12      	lsrs	r2, r2, #16
 8005614:	0c3f      	lsrs	r7, r7, #16
 8005616:	fb0a 7202 	mla	r2, sl, r2, r7
 800561a:	eb02 4213 	add.w	r2, r2, r3, lsr #16
 800561e:	b29b      	uxth	r3, r3
 8005620:	ea43 4302 	orr.w	r3, r3, r2, lsl #16
 8005624:	4565      	cmp	r5, ip
 8005626:	f849 3b04 	str.w	r3, [r9], #4
 800562a:	ea4f 4712 	mov.w	r7, r2, lsr #16
 800562e:	d8e4      	bhi.n	80055fa <__multiply+0xaa>
 8005630:	9b01      	ldr	r3, [sp, #4]
 8005632:	50e7      	str	r7, [r4, r3]
 8005634:	9b03      	ldr	r3, [sp, #12]
 8005636:	f8b3 9002 	ldrh.w	r9, [r3, #2]
 800563a:	3104      	adds	r1, #4
 800563c:	f1b9 0f00 	cmp.w	r9, #0
 8005640:	d020      	beq.n	8005684 <__multiply+0x134>
 8005642:	6823      	ldr	r3, [r4, #0]
 8005644:	4647      	mov	r7, r8
 8005646:	46a4      	mov	ip, r4
 8005648:	f04f 0a00 	mov.w	sl, #0
 800564c:	f8b7 b000 	ldrh.w	fp, [r7]
 8005650:	f8bc 2002 	ldrh.w	r2, [ip, #2]
 8005654:	fb09 220b 	mla	r2, r9, fp, r2
 8005658:	4452      	add	r2, sl
 800565a:	b29b      	uxth	r3, r3
 800565c:	ea43 4302 	orr.w	r3, r3, r2, lsl #16
 8005660:	f84c 3b04 	str.w	r3, [ip], #4
 8005664:	f857 3b04 	ldr.w	r3, [r7], #4
 8005668:	ea4f 4a13 	mov.w	sl, r3, lsr #16
 800566c:	f8bc 3000 	ldrh.w	r3, [ip]
 8005670:	fb09 330a 	mla	r3, r9, sl, r3
 8005674:	eb03 4312 	add.w	r3, r3, r2, lsr #16
 8005678:	42bd      	cmp	r5, r7
 800567a:	ea4f 4a13 	mov.w	sl, r3, lsr #16
 800567e:	d8e5      	bhi.n	800564c <__multiply+0xfc>
 8005680:	9a01      	ldr	r2, [sp, #4]
 8005682:	50a3      	str	r3, [r4, r2]
 8005684:	3404      	adds	r4, #4
 8005686:	e79f      	b.n	80055c8 <__multiply+0x78>
 8005688:	3e01      	subs	r6, #1
 800568a:	e7a1      	b.n	80055d0 <__multiply+0x80>
 800568c:	08007bad 	.word	0x08007bad
 8005690:	08007bbe 	.word	0x08007bbe

08005694 <__pow5mult>:
 8005694:	e92d 43f8 	stmdb	sp!, {r3, r4, r5, r6, r7, r8, r9, lr}
 8005698:	4615      	mov	r5, r2
 800569a:	f012 0203 	ands.w	r2, r2, #3
 800569e:	4607      	mov	r7, r0
 80056a0:	460e      	mov	r6, r1
 80056a2:	d007      	beq.n	80056b4 <__pow5mult+0x20>
 80056a4:	4c25      	ldr	r4, [pc, #148]	@ (800573c <__pow5mult+0xa8>)
 80056a6:	3a01      	subs	r2, #1
 80056a8:	2300      	movs	r3, #0
 80056aa:	f854 2022 	ldr.w	r2, [r4, r2, lsl #2]
 80056ae:	f7ff fe5d 	bl	800536c <__multadd>
 80056b2:	4606      	mov	r6, r0
 80056b4:	10ad      	asrs	r5, r5, #2
 80056b6:	d03d      	beq.n	8005734 <__pow5mult+0xa0>
 80056b8:	69fc      	ldr	r4, [r7, #28]
 80056ba:	b97c      	cbnz	r4, 80056dc <__pow5mult+0x48>
 80056bc:	2010      	movs	r0, #16
 80056be:	f7ff fd3d 	bl	800513c <malloc>
 80056c2:	4602      	mov	r2, r0
 80056c4:	61f8      	str	r0, [r7, #28]
 80056c6:	b928      	cbnz	r0, 80056d4 <__pow5mult+0x40>
 80056c8:	4b1d      	ldr	r3, [pc, #116]	@ (8005740 <__pow5mult+0xac>)
 80056ca:	481e      	ldr	r0, [pc, #120]	@ (8005744 <__pow5mult+0xb0>)
 80056cc:	f240 11b3 	movw	r1, #435	@ 0x1b3
 80056d0:	f001 fb6e 	bl	8006db0 <__assert_func>
 80056d4:	e9c0 4401 	strd	r4, r4, [r0, #4]
 80056d8:	6004      	str	r4, [r0, #0]
 80056da:	60c4      	str	r4, [r0, #12]
 80056dc:	f8d7 801c 	ldr.w	r8, [r7, #28]
 80056e0:	f8d8 4008 	ldr.w	r4, [r8, #8]
 80056e4:	b94c      	cbnz	r4, 80056fa <__pow5mult+0x66>
 80056e6:	f240 2171 	movw	r1, #625	@ 0x271
 80056ea:	4638      	mov	r0, r7
 80056ec:	f7ff ff1a 	bl	8005524 <__i2b>
 80056f0:	2300      	movs	r3, #0
 80056f2:	f8c8 0008 	str.w	r0, [r8, #8]
 80056f6:	4604      	mov	r4, r0
 80056f8:	6003      	str	r3, [r0, #0]
 80056fa:	f04f 0900 	mov.w	r9, #0
 80056fe:	07eb      	lsls	r3, r5, #31
 8005700:	d50a      	bpl.n	8005718 <__pow5mult+0x84>
 8005702:	4631      	mov	r1, r6
 8005704:	4622      	mov	r2, r4
 8005706:	4638      	mov	r0, r7
 8005708:	f7ff ff22 	bl	8005550 <__multiply>
 800570c:	4631      	mov	r1, r6
 800570e:	4680      	mov	r8, r0
 8005710:	4638      	mov	r0, r7
 8005712:	f7ff fe09 	bl	8005328 <_Bfree>
 8005716:	4646      	mov	r6, r8
 8005718:	106d      	asrs	r5, r5, #1
 800571a:	d00b      	beq.n	8005734 <__pow5mult+0xa0>
 800571c:	6820      	ldr	r0, [r4, #0]
 800571e:	b938      	cbnz	r0, 8005730 <__pow5mult+0x9c>
 8005720:	4622      	mov	r2, r4
 8005722:	4621      	mov	r1, r4
 8005724:	4638      	mov	r0, r7
 8005726:	f7ff ff13 	bl	8005550 <__multiply>
 800572a:	6020      	str	r0, [r4, #0]
 800572c:	f8c0 9000 	str.w	r9, [r0]
 8005730:	4604      	mov	r4, r0
 8005732:	e7e4      	b.n	80056fe <__pow5mult+0x6a>
 8005734:	4630      	mov	r0, r6
 8005736:	e8bd 83f8 	ldmia.w	sp!, {r3, r4, r5, r6, r7, r8, r9, pc}
 800573a:	bf00      	nop
 800573c:	08007cd0 	.word	0x08007cd0
 8005740:	08007b3e 	.word	0x08007b3e
 8005744:	08007bbe 	.word	0x08007bbe

08005748 <__lshift>:
 8005748:	e92d 47f0 	stmdb	sp!, {r4, r5, r6, r7, r8, r9, sl, lr}
 800574c:	460c      	mov	r4, r1
 800574e:	6849      	ldr	r1, [r1, #4]
 8005750:	6923      	ldr	r3, [r4, #16]
 8005752:	eb03 1862 	add.w	r8, r3, r2, asr #5
 8005756:	68a3      	ldr	r3, [r4, #8]
 8005758:	4607      	mov	r7, r0
 800575a:	4691      	mov	r9, r2
 800575c:	ea4f 1a62 	mov.w	sl, r2, asr #5
 8005760:	f108 0601 	add.w	r6, r8, #1
 8005764:	42b3      	cmp	r3, r6
 8005766:	db0b      	blt.n	8005780 <__lshift+0x38>
 8005768:	4638      	mov	r0, r7
 800576a:	f7ff fd9d 	bl	80052a8 <_Balloc>
 800576e:	4605      	mov	r5, r0
 8005770:	b948      	cbnz	r0, 8005786 <__lshift+0x3e>
 8005772:	4602      	mov	r2, r0
 8005774:	4b28      	ldr	r3, [pc, #160]	@ (8005818 <__lshift+0xd0>)
 8005776:	4829      	ldr	r0, [pc, #164]	@ (800581c <__lshift+0xd4>)
 8005778:	f44f 71ef 	mov.w	r1, #478	@ 0x1de
 800577c:	f001 fb18 	bl	8006db0 <__assert_func>
 8005780:	3101      	adds	r1, #1
 8005782:	005b      	lsls	r3, r3, #1
 8005784:	e7ee      	b.n	8005764 <__lshift+0x1c>
 8005786:	2300      	movs	r3, #0
 8005788:	f100 0114 	add.w	r1, r0, #20
 800578c:	f100 0210 	add.w	r2, r0, #16
 8005790:	4618      	mov	r0, r3
 8005792:	4553      	cmp	r3, sl
 8005794:	db33      	blt.n	80057fe <__lshift+0xb6>
 8005796:	6920      	ldr	r0, [r4, #16]
 8005798:	ea2a 7aea 	bic.w	sl, sl, sl, asr #31
 800579c:	f104 0314 	add.w	r3, r4, #20
 80057a0:	f019 091f 	ands.w	r9, r9, #31
 80057a4:	eb01 018a 	add.w	r1, r1, sl, lsl #2
 80057a8:	eb03 0c80 	add.w	ip, r3, r0, lsl #2
 80057ac:	d02b      	beq.n	8005806 <__lshift+0xbe>
 80057ae:	f1c9 0e20 	rsb	lr, r9, #32
 80057b2:	468a      	mov	sl, r1
 80057b4:	2200      	movs	r2, #0
 80057b6:	6818      	ldr	r0, [r3, #0]
 80057b8:	fa00 f009 	lsl.w	r0, r0, r9
 80057bc:	4310      	orrs	r0, r2
 80057be:	f84a 0b04 	str.w	r0, [sl], #4
 80057c2:	f853 2b04 	ldr.w	r2, [r3], #4
 80057c6:	459c      	cmp	ip, r3
 80057c8:	fa22 f20e 	lsr.w	r2, r2, lr
 80057cc:	d8f3      	bhi.n	80057b6 <__lshift+0x6e>
 80057ce:	ebac 0304 	sub.w	r3, ip, r4
 80057d2:	3b15      	subs	r3, #21
 80057d4:	f023 0303 	bic.w	r3, r3, #3
 80057d8:	3304      	adds	r3, #4
 80057da:	f104 0015 	add.w	r0, r4, #21
 80057de:	4560      	cmp	r0, ip
 80057e0:	bf88      	it	hi
 80057e2:	2304      	movhi	r3, #4
 80057e4:	50ca      	str	r2, [r1, r3]
 80057e6:	b10a      	cbz	r2, 80057ec <__lshift+0xa4>
 80057e8:	f108 0602 	add.w	r6, r8, #2
 80057ec:	3e01      	subs	r6, #1
 80057ee:	4638      	mov	r0, r7
 80057f0:	612e      	str	r6, [r5, #16]
 80057f2:	4621      	mov	r1, r4
 80057f4:	f7ff fd98 	bl	8005328 <_Bfree>
 80057f8:	4628      	mov	r0, r5
 80057fa:	e8bd 87f0 	ldmia.w	sp!, {r4, r5, r6, r7, r8, r9, sl, pc}
 80057fe:	f842 0f04 	str.w	r0, [r2, #4]!
 8005802:	3301      	adds	r3, #1
 8005804:	e7c5      	b.n	8005792 <__lshift+0x4a>
 8005806:	3904      	subs	r1, #4
 8005808:	f853 2b04 	ldr.w	r2, [r3], #4
 800580c:	f841 2f04 	str.w	r2, [r1, #4]!
 8005810:	459c      	cmp	ip, r3
 8005812:	d8f9      	bhi.n	8005808 <__lshift+0xc0>
 8005814:	e7ea      	b.n	80057ec <__lshift+0xa4>
 8005816:	bf00      	nop
 8005818:	08007bad 	.word	0x08007bad
 800581c:	08007bbe 	.word	0x08007bbe

08005820 <__mcmp>:
 8005820:	690a      	ldr	r2, [r1, #16]
 8005822:	4603      	mov	r3, r0
 8005824:	6900      	ldr	r0, [r0, #16]
 8005826:	1a80      	subs	r0, r0, r2
 8005828:	b530      	push	{r4, r5, lr}
 800582a:	d10e      	bne.n	800584a <__mcmp+0x2a>
 800582c:	3314      	adds	r3, #20
 800582e:	3114      	adds	r1, #20
 8005830:	eb03 0482 	add.w	r4, r3, r2, lsl #2
 8005834:	eb01 0182 	add.w	r1, r1, r2, lsl #2
 8005838:	f854 5d04 	ldr.w	r5, [r4, #-4]!
 800583c:	f851 2d04 	ldr.w	r2, [r1, #-4]!
 8005840:	4295      	cmp	r5, r2
 8005842:	d003      	beq.n	800584c <__mcmp+0x2c>
 8005844:	d205      	bcs.n	8005852 <__mcmp+0x32>
 8005846:	f04f 30ff 	mov.w	r0, #4294967295
 800584a:	bd30      	pop	{r4, r5, pc}
 800584c:	42a3      	cmp	r3, r4
 800584e:	d3f3      	bcc.n	8005838 <__mcmp+0x18>
 8005850:	e7fb      	b.n	800584a <__mcmp+0x2a>
 8005852:	2001      	movs	r0, #1
 8005854:	e7f9      	b.n	800584a <__mcmp+0x2a>
	...

08005858 <__mdiff>:
 8005858:	e92d 4ff7 	stmdb	sp!, {r0, r1, r2, r4, r5, r6, r7, r8, r9, sl, fp, lr}
 800585c:	4689      	mov	r9, r1
 800585e:	4606      	mov	r6, r0
 8005860:	4611      	mov	r1, r2
 8005862:	4648      	mov	r0, r9
 8005864:	4614      	mov	r4, r2
 8005866:	f7ff ffdb 	bl	8005820 <__mcmp>
 800586a:	1e05      	subs	r5, r0, #0
 800586c:	d112      	bne.n	8005894 <__mdiff+0x3c>
 800586e:	4629      	mov	r1, r5
 8005870:	4630      	mov	r0, r6
 8005872:	f7ff fd19 	bl	80052a8 <_Balloc>
 8005876:	4602      	mov	r2, r0
 8005878:	b928      	cbnz	r0, 8005886 <__mdiff+0x2e>
 800587a:	4b3f      	ldr	r3, [pc, #252]	@ (8005978 <__mdiff+0x120>)
 800587c:	f240 2137 	movw	r1, #567	@ 0x237
 8005880:	483e      	ldr	r0, [pc, #248]	@ (800597c <__mdiff+0x124>)
 8005882:	f001 fa95 	bl	8006db0 <__assert_func>
 8005886:	2301      	movs	r3, #1
 8005888:	e9c0 3504 	strd	r3, r5, [r0, #16]
 800588c:	4610      	mov	r0, r2
 800588e:	b003      	add	sp, #12
 8005890:	e8bd 8ff0 	ldmia.w	sp!, {r4, r5, r6, r7, r8, r9, sl, fp, pc}
 8005894:	bfbc      	itt	lt
 8005896:	464b      	movlt	r3, r9
 8005898:	46a1      	movlt	r9, r4
 800589a:	4630      	mov	r0, r6
 800589c:	f8d9 1004 	ldr.w	r1, [r9, #4]
 80058a0:	bfba      	itte	lt
 80058a2:	461c      	movlt	r4, r3
 80058a4:	2501      	movlt	r5, #1
 80058a6:	2500      	movge	r5, #0
 80058a8:	f7ff fcfe 	bl	80052a8 <_Balloc>
 80058ac:	4602      	mov	r2, r0
 80058ae:	b918      	cbnz	r0, 80058b8 <__mdiff+0x60>
 80058b0:	4b31      	ldr	r3, [pc, #196]	@ (8005978 <__mdiff+0x120>)
 80058b2:	f240 2145 	movw	r1, #581	@ 0x245
 80058b6:	e7e3      	b.n	8005880 <__mdiff+0x28>
 80058b8:	f8d9 7010 	ldr.w	r7, [r9, #16]
 80058bc:	6926      	ldr	r6, [r4, #16]
 80058be:	60c5      	str	r5, [r0, #12]
 80058c0:	f109 0310 	add.w	r3, r9, #16
 80058c4:	f109 0514 	add.w	r5, r9, #20
 80058c8:	f104 0e14 	add.w	lr, r4, #20
 80058cc:	f100 0b14 	add.w	fp, r0, #20
 80058d0:	eb05 0887 	add.w	r8, r5, r7, lsl #2
 80058d4:	eb0e 0686 	add.w	r6, lr, r6, lsl #2
 80058d8:	9301      	str	r3, [sp, #4]
 80058da:	46d9      	mov	r9, fp
 80058dc:	f04f 0c00 	mov.w	ip, #0
 80058e0:	9b01      	ldr	r3, [sp, #4]
 80058e2:	f85e 0b04 	ldr.w	r0, [lr], #4
 80058e6:	f853 af04 	ldr.w	sl, [r3, #4]!
 80058ea:	9301      	str	r3, [sp, #4]
 80058ec:	fa1f f38a 	uxth.w	r3, sl
 80058f0:	4619      	mov	r1, r3
 80058f2:	b283      	uxth	r3, r0
 80058f4:	1acb      	subs	r3, r1, r3
 80058f6:	0c00      	lsrs	r0, r0, #16
 80058f8:	4463      	add	r3, ip
 80058fa:	ebc0 401a 	rsb	r0, r0, sl, lsr #16
 80058fe:	eb00 4023 	add.w	r0, r0, r3, asr #16
 8005902:	b29b      	uxth	r3, r3
 8005904:	ea43 4300 	orr.w	r3, r3, r0, lsl #16
 8005908:	4576      	cmp	r6, lr
 800590a:	f849 3b04 	str.w	r3, [r9], #4
 800590e:	ea4f 4c20 	mov.w	ip, r0, asr #16
 8005912:	d8e5      	bhi.n	80058e0 <__mdiff+0x88>
 8005914:	1b33      	subs	r3, r6, r4
 8005916:	3b15      	subs	r3, #21
 8005918:	f023 0303 	bic.w	r3, r3, #3
 800591c:	3415      	adds	r4, #21
 800591e:	3304      	adds	r3, #4
 8005920:	42a6      	cmp	r6, r4
 8005922:	bf38      	it	cc
 8005924:	2304      	movcc	r3, #4
 8005926:	441d      	add	r5, r3
 8005928:	445b      	add	r3, fp
 800592a:	461e      	mov	r6, r3
 800592c:	462c      	mov	r4, r5
 800592e:	4544      	cmp	r4, r8
 8005930:	d30e      	bcc.n	8005950 <__mdiff+0xf8>
 8005932:	f108 0103 	add.w	r1, r8, #3
 8005936:	1b49      	subs	r1, r1, r5
 8005938:	f021 0103 	bic.w	r1, r1, #3
 800593c:	3d03      	subs	r5, #3
 800593e:	45a8      	cmp	r8, r5
 8005940:	bf38      	it	cc
 8005942:	2100      	movcc	r1, #0
 8005944:	440b      	add	r3, r1
 8005946:	f853 1d04 	ldr.w	r1, [r3, #-4]!
 800594a:	b191      	cbz	r1, 8005972 <__mdiff+0x11a>
 800594c:	6117      	str	r7, [r2, #16]
 800594e:	e79d      	b.n	800588c <__mdiff+0x34>
 8005950:	f854 1b04 	ldr.w	r1, [r4], #4
 8005954:	46e6      	mov	lr, ip
 8005956:	0c08      	lsrs	r0, r1, #16
 8005958:	fa1c fc81 	uxtah	ip, ip, r1
 800595c:	4471      	add	r1, lr
 800595e:	eb00 402c 	add.w	r0, r0, ip, asr #16
 8005962:	b289      	uxth	r1, r1
 8005964:	ea41 4100 	orr.w	r1, r1, r0, lsl #16
 8005968:	f846 1b04 	str.w	r1, [r6], #4
 800596c:	ea4f 4c20 	mov.w	ip, r0, asr #16
 8005970:	e7dd      	b.n	800592e <__mdiff+0xd6>
 8005972:	3f01      	subs	r7, #1
 8005974:	e7e7      	b.n	8005946 <__mdiff+0xee>
 8005976:	bf00      	nop
 8005978:	08007bad 	.word	0x08007bad
 800597c:	08007bbe 	.word	0x08007bbe

08005980 <__ulp>:
 8005980:	b082      	sub	sp, #8
 8005982:	ed8d 0b00 	vstr	d0, [sp]
 8005986:	9a01      	ldr	r2, [sp, #4]
 8005988:	4b0f      	ldr	r3, [pc, #60]	@ (80059c8 <__ulp+0x48>)
 800598a:	4013      	ands	r3, r2
 800598c:	f1a3 7350 	sub.w	r3, r3, #54525952	@ 0x3400000
 8005990:	2b00      	cmp	r3, #0
 8005992:	dc08      	bgt.n	80059a6 <__ulp+0x26>
 8005994:	425b      	negs	r3, r3
 8005996:	f1b3 7fa0 	cmp.w	r3, #20971520	@ 0x1400000
 800599a:	ea4f 5223 	mov.w	r2, r3, asr #20
 800599e:	da04      	bge.n	80059aa <__ulp+0x2a>
 80059a0:	f44f 2300 	mov.w	r3, #524288	@ 0x80000
 80059a4:	4113      	asrs	r3, r2
 80059a6:	2200      	movs	r2, #0
 80059a8:	e008      	b.n	80059bc <__ulp+0x3c>
 80059aa:	f1a2 0314 	sub.w	r3, r2, #20
 80059ae:	2b1e      	cmp	r3, #30
 80059b0:	bfda      	itte	le
 80059b2:	f04f 4200 	movle.w	r2, #2147483648	@ 0x80000000
 80059b6:	40da      	lsrle	r2, r3
 80059b8:	2201      	movgt	r2, #1
 80059ba:	2300      	movs	r3, #0
 80059bc:	4619      	mov	r1, r3
 80059be:	4610      	mov	r0, r2
 80059c0:	ec41 0b10 	vmov	d0, r0, r1
 80059c4:	b002      	add	sp, #8
 80059c6:	4770      	bx	lr
 80059c8:	7ff00000 	.word	0x7ff00000

080059cc <__b2d>:
 80059cc:	e92d 41f0 	stmdb	sp!, {r4, r5, r6, r7, r8, lr}
 80059d0:	6906      	ldr	r6, [r0, #16]
 80059d2:	f100 0814 	add.w	r8, r0, #20
 80059d6:	eb08 0686 	add.w	r6, r8, r6, lsl #2
 80059da:	1f37      	subs	r7, r6, #4
 80059dc:	f856 2c04 	ldr.w	r2, [r6, #-4]
 80059e0:	4610      	mov	r0, r2
 80059e2:	f7ff fd53 	bl	800548c <__hi0bits>
 80059e6:	f1c0 0320 	rsb	r3, r0, #32
 80059ea:	280a      	cmp	r0, #10
 80059ec:	600b      	str	r3, [r1, #0]
 80059ee:	491b      	ldr	r1, [pc, #108]	@ (8005a5c <__b2d+0x90>)
 80059f0:	dc15      	bgt.n	8005a1e <__b2d+0x52>
 80059f2:	f1c0 0c0b 	rsb	ip, r0, #11
 80059f6:	fa22 f30c 	lsr.w	r3, r2, ip
 80059fa:	45b8      	cmp	r8, r7
 80059fc:	ea43 0501 	orr.w	r5, r3, r1
 8005a00:	bf34      	ite	cc
 8005a02:	f856 3c08 	ldrcc.w	r3, [r6, #-8]
 8005a06:	2300      	movcs	r3, #0
 8005a08:	3015      	adds	r0, #21
 8005a0a:	fa02 f000 	lsl.w	r0, r2, r0
 8005a0e:	fa23 f30c 	lsr.w	r3, r3, ip
 8005a12:	4303      	orrs	r3, r0
 8005a14:	461c      	mov	r4, r3
 8005a16:	ec45 4b10 	vmov	d0, r4, r5
 8005a1a:	e8bd 81f0 	ldmia.w	sp!, {r4, r5, r6, r7, r8, pc}
 8005a1e:	45b8      	cmp	r8, r7
 8005a20:	bf3a      	itte	cc
 8005a22:	f856 3c08 	ldrcc.w	r3, [r6, #-8]
 8005a26:	f1a6 0708 	subcc.w	r7, r6, #8
 8005a2a:	2300      	movcs	r3, #0
 8005a2c:	380b      	subs	r0, #11
 8005a2e:	d012      	beq.n	8005a56 <__b2d+0x8a>
 8005a30:	f1c0 0120 	rsb	r1, r0, #32
 8005a34:	fa23 f401 	lsr.w	r4, r3, r1
 8005a38:	4082      	lsls	r2, r0
 8005a3a:	4322      	orrs	r2, r4
 8005a3c:	4547      	cmp	r7, r8
 8005a3e:	f042 557f 	orr.w	r5, r2, #1069547520	@ 0x3fc00000
 8005a42:	bf8c      	ite	hi
 8005a44:	f857 2c04 	ldrhi.w	r2, [r7, #-4]
 8005a48:	2200      	movls	r2, #0
 8005a4a:	4083      	lsls	r3, r0
 8005a4c:	40ca      	lsrs	r2, r1
 8005a4e:	f445 1540 	orr.w	r5, r5, #3145728	@ 0x300000
 8005a52:	4313      	orrs	r3, r2
 8005a54:	e7de      	b.n	8005a14 <__b2d+0x48>
 8005a56:	ea42 0501 	orr.w	r5, r2, r1
 8005a5a:	e7db      	b.n	8005a14 <__b2d+0x48>
 8005a5c:	3ff00000 	.word	0x3ff00000

08005a60 <__d2b>:
 8005a60:	e92d 43f7 	stmdb	sp!, {r0, r1, r2, r4, r5, r6, r7, r8, r9, lr}
 8005a64:	460f      	mov	r7, r1
 8005a66:	2101      	movs	r1, #1
 8005a68:	ec59 8b10 	vmov	r8, r9, d0
 8005a6c:	4616      	mov	r6, r2
 8005a6e:	f7ff fc1b 	bl	80052a8 <_Balloc>
 8005a72:	4604      	mov	r4, r0
 8005a74:	b930      	cbnz	r0, 8005a84 <__d2b+0x24>
 8005a76:	4602      	mov	r2, r0
 8005a78:	4b23      	ldr	r3, [pc, #140]	@ (8005b08 <__d2b+0xa8>)
 8005a7a:	4824      	ldr	r0, [pc, #144]	@ (8005b0c <__d2b+0xac>)
 8005a7c:	f240 310f 	movw	r1, #783	@ 0x30f
 8005a80:	f001 f996 	bl	8006db0 <__assert_func>
 8005a84:	f3c9 550a 	ubfx	r5, r9, #20, #11
 8005a88:	f3c9 0313 	ubfx	r3, r9, #0, #20
 8005a8c:	b10d      	cbz	r5, 8005a92 <__d2b+0x32>
 8005a8e:	f443 1380 	orr.w	r3, r3, #1048576	@ 0x100000
 8005a92:	9301      	str	r3, [sp, #4]
 8005a94:	f1b8 0300 	subs.w	r3, r8, #0
 8005a98:	d023      	beq.n	8005ae2 <__d2b+0x82>
 8005a9a:	4668      	mov	r0, sp
 8005a9c:	9300      	str	r3, [sp, #0]
 8005a9e:	f7ff fd14 	bl	80054ca <__lo0bits>
 8005aa2:	e9dd 1200 	ldrd	r1, r2, [sp]
 8005aa6:	b1d0      	cbz	r0, 8005ade <__d2b+0x7e>
 8005aa8:	f1c0 0320 	rsb	r3, r0, #32
 8005aac:	fa02 f303 	lsl.w	r3, r2, r3
 8005ab0:	430b      	orrs	r3, r1
 8005ab2:	40c2      	lsrs	r2, r0
 8005ab4:	6163      	str	r3, [r4, #20]
 8005ab6:	9201      	str	r2, [sp, #4]
 8005ab8:	9b01      	ldr	r3, [sp, #4]
 8005aba:	61a3      	str	r3, [r4, #24]
 8005abc:	2b00      	cmp	r3, #0
 8005abe:	bf0c      	ite	eq
 8005ac0:	2201      	moveq	r2, #1
 8005ac2:	2202      	movne	r2, #2
 8005ac4:	6122      	str	r2, [r4, #16]
 8005ac6:	b1a5      	cbz	r5, 8005af2 <__d2b+0x92>
 8005ac8:	f2a5 4533 	subw	r5, r5, #1075	@ 0x433
 8005acc:	4405      	add	r5, r0
 8005ace:	603d      	str	r5, [r7, #0]
 8005ad0:	f1c0 0035 	rsb	r0, r0, #53	@ 0x35
 8005ad4:	6030      	str	r0, [r6, #0]
 8005ad6:	4620      	mov	r0, r4
 8005ad8:	b003      	add	sp, #12
 8005ada:	e8bd 83f0 	ldmia.w	sp!, {r4, r5, r6, r7, r8, r9, pc}
 8005ade:	6161      	str	r1, [r4, #20]
 8005ae0:	e7ea      	b.n	8005ab8 <__d2b+0x58>
 8005ae2:	a801      	add	r0, sp, #4
 8005ae4:	f7ff fcf1 	bl	80054ca <__lo0bits>
 8005ae8:	9b01      	ldr	r3, [sp, #4]
 8005aea:	6163      	str	r3, [r4, #20]
 8005aec:	3020      	adds	r0, #32
 8005aee:	2201      	movs	r2, #1
 8005af0:	e7e8      	b.n	8005ac4 <__d2b+0x64>
 8005af2:	eb04 0382 	add.w	r3, r4, r2, lsl #2
 8005af6:	f2a0 4032 	subw	r0, r0, #1074	@ 0x432
 8005afa:	6038      	str	r0, [r7, #0]
 8005afc:	6918      	ldr	r0, [r3, #16]
 8005afe:	f7ff fcc5 	bl	800548c <__hi0bits>
 8005b02:	ebc0 1042 	rsb	r0, r0, r2, lsl #5
 8005b06:	e7e5      	b.n	8005ad4 <__d2b+0x74>
 8005b08:	08007bad 	.word	0x08007bad
 8005b0c:	08007bbe 	.word	0x08007bbe

08005b10 <__ratio>:
 8005b10:	e92d 4ff0 	stmdb	sp!, {r4, r5, r6, r7, r8, r9, sl, fp, lr}
 8005b14:	b085      	sub	sp, #20
 8005b16:	e9cd 1000 	strd	r1, r0, [sp]
 8005b1a:	a902      	add	r1, sp, #8
 8005b1c:	f7ff ff56 	bl	80059cc <__b2d>
 8005b20:	9800      	ldr	r0, [sp, #0]
 8005b22:	a903      	add	r1, sp, #12
 8005b24:	ec55 4b10 	vmov	r4, r5, d0
 8005b28:	f7ff ff50 	bl	80059cc <__b2d>
 8005b2c:	9b01      	ldr	r3, [sp, #4]
 8005b2e:	6919      	ldr	r1, [r3, #16]
 8005b30:	9b00      	ldr	r3, [sp, #0]
 8005b32:	691b      	ldr	r3, [r3, #16]
 8005b34:	1ac9      	subs	r1, r1, r3
 8005b36:	e9dd 3202 	ldrd	r3, r2, [sp, #8]
 8005b3a:	1a9b      	subs	r3, r3, r2
 8005b3c:	ec5b ab10 	vmov	sl, fp, d0
 8005b40:	eb03 1341 	add.w	r3, r3, r1, lsl #5
 8005b44:	2b00      	cmp	r3, #0
 8005b46:	bfce      	itee	gt
 8005b48:	462a      	movgt	r2, r5
 8005b4a:	ebc3 3303 	rsble	r3, r3, r3, lsl #12
 8005b4e:	465a      	movle	r2, fp
 8005b50:	462f      	mov	r7, r5
 8005b52:	46d9      	mov	r9, fp
 8005b54:	bfcc      	ite	gt
 8005b56:	eb02 5703 	addgt.w	r7, r2, r3, lsl #20
 8005b5a:	eb02 5903 	addle.w	r9, r2, r3, lsl #20
 8005b5e:	464b      	mov	r3, r9
 8005b60:	4652      	mov	r2, sl
 8005b62:	4620      	mov	r0, r4
 8005b64:	4639      	mov	r1, r7
 8005b66:	f7fa fe99 	bl	800089c <__aeabi_ddiv>
 8005b6a:	ec41 0b10 	vmov	d0, r0, r1
 8005b6e:	b005      	add	sp, #20
 8005b70:	e8bd 8ff0 	ldmia.w	sp!, {r4, r5, r6, r7, r8, r9, sl, fp, pc}

08005b74 <__copybits>:
 8005b74:	3901      	subs	r1, #1
 8005b76:	b570      	push	{r4, r5, r6, lr}
 8005b78:	1149      	asrs	r1, r1, #5
 8005b7a:	6914      	ldr	r4, [r2, #16]
 8005b7c:	3101      	adds	r1, #1
 8005b7e:	f102 0314 	add.w	r3, r2, #20
 8005b82:	eb00 0181 	add.w	r1, r0, r1, lsl #2
 8005b86:	eb03 0484 	add.w	r4, r3, r4, lsl #2
 8005b8a:	1f05      	subs	r5, r0, #4
 8005b8c:	42a3      	cmp	r3, r4
 8005b8e:	d30c      	bcc.n	8005baa <__copybits+0x36>
 8005b90:	1aa3      	subs	r3, r4, r2
 8005b92:	3b11      	subs	r3, #17
 8005b94:	f023 0303 	bic.w	r3, r3, #3
 8005b98:	3211      	adds	r2, #17
 8005b9a:	42a2      	cmp	r2, r4
 8005b9c:	bf88      	it	hi
 8005b9e:	2300      	movhi	r3, #0
 8005ba0:	4418      	add	r0, r3
 8005ba2:	2300      	movs	r3, #0
 8005ba4:	4288      	cmp	r0, r1
 8005ba6:	d305      	bcc.n	8005bb4 <__copybits+0x40>
 8005ba8:	bd70      	pop	{r4, r5, r6, pc}
 8005baa:	f853 6b04 	ldr.w	r6, [r3], #4
 8005bae:	f845 6f04 	str.w	r6, [r5, #4]!
 8005bb2:	e7eb      	b.n	8005b8c <__copybits+0x18>
 8005bb4:	f840 3b04 	str.w	r3, [r0], #4
 8005bb8:	e7f4      	b.n	8005ba4 <__copybits+0x30>

08005bba <__any_on>:
 8005bba:	f100 0214 	add.w	r2, r0, #20
 8005bbe:	6900      	ldr	r0, [r0, #16]
 8005bc0:	114b      	asrs	r3, r1, #5
 8005bc2:	4298      	cmp	r0, r3
 8005bc4:	b510      	push	{r4, lr}
 8005bc6:	db11      	blt.n	8005bec <__any_on+0x32>
 8005bc8:	dd0a      	ble.n	8005be0 <__any_on+0x26>
 8005bca:	f011 011f 	ands.w	r1, r1, #31
 8005bce:	d007      	beq.n	8005be0 <__any_on+0x26>
 8005bd0:	f852 4023 	ldr.w	r4, [r2, r3, lsl #2]
 8005bd4:	fa24 f001 	lsr.w	r0, r4, r1
 8005bd8:	fa00 f101 	lsl.w	r1, r0, r1
 8005bdc:	428c      	cmp	r4, r1
 8005bde:	d10b      	bne.n	8005bf8 <__any_on+0x3e>
 8005be0:	eb02 0383 	add.w	r3, r2, r3, lsl #2
 8005be4:	4293      	cmp	r3, r2
 8005be6:	d803      	bhi.n	8005bf0 <__any_on+0x36>
 8005be8:	2000      	movs	r0, #0
 8005bea:	bd10      	pop	{r4, pc}
 8005bec:	4603      	mov	r3, r0
 8005bee:	e7f7      	b.n	8005be0 <__any_on+0x26>
 8005bf0:	f853 1d04 	ldr.w	r1, [r3, #-4]!
 8005bf4:	2900      	cmp	r1, #0
 8005bf6:	d0f5      	beq.n	8005be4 <__any_on+0x2a>
 8005bf8:	2001      	movs	r0, #1
 8005bfa:	e7f6      	b.n	8005bea <__any_on+0x30>

08005bfc <sulp>:
 8005bfc:	b570      	push	{r4, r5, r6, lr}
 8005bfe:	4604      	mov	r4, r0
 8005c00:	460d      	mov	r5, r1
 8005c02:	ec45 4b10 	vmov	d0, r4, r5
 8005c06:	4616      	mov	r6, r2
 8005c08:	f7ff feba 	bl	8005980 <__ulp>
 8005c0c:	ec51 0b10 	vmov	r0, r1, d0
 8005c10:	b17e      	cbz	r6, 8005c32 <sulp+0x36>
 8005c12:	f3c5 530a 	ubfx	r3, r5, #20, #11
 8005c16:	f1c3 036b 	rsb	r3, r3, #107	@ 0x6b
 8005c1a:	2b00      	cmp	r3, #0
 8005c1c:	dd09      	ble.n	8005c32 <sulp+0x36>
 8005c1e:	051b      	lsls	r3, r3, #20
 8005c20:	f103 557f 	add.w	r5, r3, #1069547520	@ 0x3fc00000
 8005c24:	2400      	movs	r4, #0
 8005c26:	f505 1540 	add.w	r5, r5, #3145728	@ 0x300000
 8005c2a:	4622      	mov	r2, r4
 8005c2c:	462b      	mov	r3, r5
 8005c2e:	f7fa fd0b 	bl	8000648 <__aeabi_dmul>
 8005c32:	ec41 0b10 	vmov	d0, r0, r1
 8005c36:	bd70      	pop	{r4, r5, r6, pc}

08005c38 <_strtod_l>:
 8005c38:	e92d 4ff0 	stmdb	sp!, {r4, r5, r6, r7, r8, r9, sl, fp, lr}
 8005c3c:	b09f      	sub	sp, #124	@ 0x7c
 8005c3e:	460c      	mov	r4, r1
 8005c40:	9217      	str	r2, [sp, #92]	@ 0x5c
 8005c42:	2200      	movs	r2, #0
 8005c44:	921a      	str	r2, [sp, #104]	@ 0x68
 8005c46:	9005      	str	r0, [sp, #20]
 8005c48:	f04f 0a00 	mov.w	sl, #0
 8005c4c:	f04f 0b00 	mov.w	fp, #0
 8005c50:	460a      	mov	r2, r1
 8005c52:	9219      	str	r2, [sp, #100]	@ 0x64
 8005c54:	7811      	ldrb	r1, [r2, #0]
 8005c56:	292b      	cmp	r1, #43	@ 0x2b
 8005c58:	d04a      	beq.n	8005cf0 <_strtod_l+0xb8>
 8005c5a:	d838      	bhi.n	8005cce <_strtod_l+0x96>
 8005c5c:	290d      	cmp	r1, #13
 8005c5e:	d832      	bhi.n	8005cc6 <_strtod_l+0x8e>
 8005c60:	2908      	cmp	r1, #8
 8005c62:	d832      	bhi.n	8005cca <_strtod_l+0x92>
 8005c64:	2900      	cmp	r1, #0
 8005c66:	d03b      	beq.n	8005ce0 <_strtod_l+0xa8>
 8005c68:	2200      	movs	r2, #0
 8005c6a:	920e      	str	r2, [sp, #56]	@ 0x38
 8005c6c:	9d19      	ldr	r5, [sp, #100]	@ 0x64
 8005c6e:	782a      	ldrb	r2, [r5, #0]
 8005c70:	2a30      	cmp	r2, #48	@ 0x30
 8005c72:	f040 80b2 	bne.w	8005dda <_strtod_l+0x1a2>
 8005c76:	786a      	ldrb	r2, [r5, #1]
 8005c78:	f002 02df 	and.w	r2, r2, #223	@ 0xdf
 8005c7c:	2a58      	cmp	r2, #88	@ 0x58
 8005c7e:	d16e      	bne.n	8005d5e <_strtod_l+0x126>
 8005c80:	9302      	str	r3, [sp, #8]
 8005c82:	9b0e      	ldr	r3, [sp, #56]	@ 0x38
 8005c84:	9301      	str	r3, [sp, #4]
 8005c86:	ab1a      	add	r3, sp, #104	@ 0x68
 8005c88:	9300      	str	r3, [sp, #0]
 8005c8a:	4a8f      	ldr	r2, [pc, #572]	@ (8005ec8 <_strtod_l+0x290>)
 8005c8c:	9805      	ldr	r0, [sp, #20]
 8005c8e:	ab1b      	add	r3, sp, #108	@ 0x6c
 8005c90:	a919      	add	r1, sp, #100	@ 0x64
 8005c92:	f001 f927 	bl	8006ee4 <__gethex>
 8005c96:	f010 060f 	ands.w	r6, r0, #15
 8005c9a:	4604      	mov	r4, r0
 8005c9c:	d005      	beq.n	8005caa <_strtod_l+0x72>
 8005c9e:	2e06      	cmp	r6, #6
 8005ca0:	d128      	bne.n	8005cf4 <_strtod_l+0xbc>
 8005ca2:	3501      	adds	r5, #1
 8005ca4:	2300      	movs	r3, #0
 8005ca6:	9519      	str	r5, [sp, #100]	@ 0x64
 8005ca8:	930e      	str	r3, [sp, #56]	@ 0x38
 8005caa:	9b17      	ldr	r3, [sp, #92]	@ 0x5c
 8005cac:	2b00      	cmp	r3, #0
 8005cae:	f040 858e 	bne.w	80067ce <_strtod_l+0xb96>
 8005cb2:	9b0e      	ldr	r3, [sp, #56]	@ 0x38
 8005cb4:	b1cb      	cbz	r3, 8005cea <_strtod_l+0xb2>
 8005cb6:	4652      	mov	r2, sl
 8005cb8:	f10b 4300 	add.w	r3, fp, #2147483648	@ 0x80000000
 8005cbc:	ec43 2b10 	vmov	d0, r2, r3
 8005cc0:	b01f      	add	sp, #124	@ 0x7c
 8005cc2:	e8bd 8ff0 	ldmia.w	sp!, {r4, r5, r6, r7, r8, r9, sl, fp, pc}
 8005cc6:	2920      	cmp	r1, #32
 8005cc8:	d1ce      	bne.n	8005c68 <_strtod_l+0x30>
 8005cca:	3201      	adds	r2, #1
 8005ccc:	e7c1      	b.n	8005c52 <_strtod_l+0x1a>
 8005cce:	292d      	cmp	r1, #45	@ 0x2d
 8005cd0:	d1ca      	bne.n	8005c68 <_strtod_l+0x30>
 8005cd2:	2101      	movs	r1, #1
 8005cd4:	910e      	str	r1, [sp, #56]	@ 0x38
 8005cd6:	1c51      	adds	r1, r2, #1
 8005cd8:	9119      	str	r1, [sp, #100]	@ 0x64
 8005cda:	7852      	ldrb	r2, [r2, #1]
 8005cdc:	2a00      	cmp	r2, #0
 8005cde:	d1c5      	bne.n	8005c6c <_strtod_l+0x34>
 8005ce0:	9b17      	ldr	r3, [sp, #92]	@ 0x5c
 8005ce2:	9419      	str	r4, [sp, #100]	@ 0x64
 8005ce4:	2b00      	cmp	r3, #0
 8005ce6:	f040 8570 	bne.w	80067ca <_strtod_l+0xb92>
 8005cea:	4652      	mov	r2, sl
 8005cec:	465b      	mov	r3, fp
 8005cee:	e7e5      	b.n	8005cbc <_strtod_l+0x84>
 8005cf0:	2100      	movs	r1, #0
 8005cf2:	e7ef      	b.n	8005cd4 <_strtod_l+0x9c>
 8005cf4:	9a1a      	ldr	r2, [sp, #104]	@ 0x68
 8005cf6:	b13a      	cbz	r2, 8005d08 <_strtod_l+0xd0>
 8005cf8:	2135      	movs	r1, #53	@ 0x35
 8005cfa:	a81c      	add	r0, sp, #112	@ 0x70
 8005cfc:	f7ff ff3a 	bl	8005b74 <__copybits>
 8005d00:	991a      	ldr	r1, [sp, #104]	@ 0x68
 8005d02:	9805      	ldr	r0, [sp, #20]
 8005d04:	f7ff fb10 	bl	8005328 <_Bfree>
 8005d08:	3e01      	subs	r6, #1
 8005d0a:	9a1b      	ldr	r2, [sp, #108]	@ 0x6c
 8005d0c:	2e04      	cmp	r6, #4
 8005d0e:	d806      	bhi.n	8005d1e <_strtod_l+0xe6>
 8005d10:	e8df f006 	tbb	[pc, r6]
 8005d14:	201d0314 	.word	0x201d0314
 8005d18:	14          	.byte	0x14
 8005d19:	00          	.byte	0x00
 8005d1a:	e9dd ab1c 	ldrd	sl, fp, [sp, #112]	@ 0x70
 8005d1e:	05e1      	lsls	r1, r4, #23
 8005d20:	bf48      	it	mi
 8005d22:	f04b 4b00 	orrmi.w	fp, fp, #2147483648	@ 0x80000000
 8005d26:	f02b 4300 	bic.w	r3, fp, #2147483648	@ 0x80000000
 8005d2a:	0d1b      	lsrs	r3, r3, #20
 8005d2c:	051b      	lsls	r3, r3, #20
 8005d2e:	2b00      	cmp	r3, #0
 8005d30:	d1bb      	bne.n	8005caa <_strtod_l+0x72>
 8005d32:	f7fe fb2d 	bl	8004390 <__errno>
 8005d36:	2322      	movs	r3, #34	@ 0x22
 8005d38:	6003      	str	r3, [r0, #0]
 8005d3a:	e7b6      	b.n	8005caa <_strtod_l+0x72>
 8005d3c:	e9dd a31c 	ldrd	sl, r3, [sp, #112]	@ 0x70
 8005d40:	f202 4233 	addw	r2, r2, #1075	@ 0x433
 8005d44:	f423 1380 	bic.w	r3, r3, #1048576	@ 0x100000
 8005d48:	ea43 5b02 	orr.w	fp, r3, r2, lsl #20
 8005d4c:	e7e7      	b.n	8005d1e <_strtod_l+0xe6>
 8005d4e:	f8df b180 	ldr.w	fp, [pc, #384]	@ 8005ed0 <_strtod_l+0x298>
 8005d52:	e7e4      	b.n	8005d1e <_strtod_l+0xe6>
 8005d54:	f06f 4b00 	mvn.w	fp, #2147483648	@ 0x80000000
 8005d58:	f04f 3aff 	mov.w	sl, #4294967295
 8005d5c:	e7df      	b.n	8005d1e <_strtod_l+0xe6>
 8005d5e:	9b19      	ldr	r3, [sp, #100]	@ 0x64
 8005d60:	1c5a      	adds	r2, r3, #1
 8005d62:	9219      	str	r2, [sp, #100]	@ 0x64
 8005d64:	785b      	ldrb	r3, [r3, #1]
 8005d66:	2b30      	cmp	r3, #48	@ 0x30
 8005d68:	d0f9      	beq.n	8005d5e <_strtod_l+0x126>
 8005d6a:	2b00      	cmp	r3, #0
 8005d6c:	d09d      	beq.n	8005caa <_strtod_l+0x72>
 8005d6e:	2301      	movs	r3, #1
 8005d70:	2700      	movs	r7, #0
 8005d72:	9308      	str	r3, [sp, #32]
 8005d74:	9b19      	ldr	r3, [sp, #100]	@ 0x64
 8005d76:	930c      	str	r3, [sp, #48]	@ 0x30
 8005d78:	970b      	str	r7, [sp, #44]	@ 0x2c
 8005d7a:	46b9      	mov	r9, r7
 8005d7c:	220a      	movs	r2, #10
 8005d7e:	9819      	ldr	r0, [sp, #100]	@ 0x64
 8005d80:	7805      	ldrb	r5, [r0, #0]
 8005d82:	f1a5 0330 	sub.w	r3, r5, #48	@ 0x30
 8005d86:	b2d9      	uxtb	r1, r3
 8005d88:	2909      	cmp	r1, #9
 8005d8a:	d928      	bls.n	8005dde <_strtod_l+0x1a6>
 8005d8c:	494f      	ldr	r1, [pc, #316]	@ (8005ecc <_strtod_l+0x294>)
 8005d8e:	2201      	movs	r2, #1
 8005d90:	f000 ffd6 	bl	8006d40 <strncmp>
 8005d94:	2800      	cmp	r0, #0
 8005d96:	d032      	beq.n	8005dfe <_strtod_l+0x1c6>
 8005d98:	2000      	movs	r0, #0
 8005d9a:	462a      	mov	r2, r5
 8005d9c:	900a      	str	r0, [sp, #40]	@ 0x28
 8005d9e:	464d      	mov	r5, r9
 8005da0:	4603      	mov	r3, r0
 8005da2:	2a65      	cmp	r2, #101	@ 0x65
 8005da4:	d001      	beq.n	8005daa <_strtod_l+0x172>
 8005da6:	2a45      	cmp	r2, #69	@ 0x45
 8005da8:	d114      	bne.n	8005dd4 <_strtod_l+0x19c>
 8005daa:	b91d      	cbnz	r5, 8005db4 <_strtod_l+0x17c>
 8005dac:	9a08      	ldr	r2, [sp, #32]
 8005dae:	4302      	orrs	r2, r0
 8005db0:	d096      	beq.n	8005ce0 <_strtod_l+0xa8>
 8005db2:	2500      	movs	r5, #0
 8005db4:	9c19      	ldr	r4, [sp, #100]	@ 0x64
 8005db6:	1c62      	adds	r2, r4, #1
 8005db8:	9219      	str	r2, [sp, #100]	@ 0x64
 8005dba:	7862      	ldrb	r2, [r4, #1]
 8005dbc:	2a2b      	cmp	r2, #43	@ 0x2b
 8005dbe:	d07a      	beq.n	8005eb6 <_strtod_l+0x27e>
 8005dc0:	2a2d      	cmp	r2, #45	@ 0x2d
 8005dc2:	d07e      	beq.n	8005ec2 <_strtod_l+0x28a>
 8005dc4:	f04f 0c00 	mov.w	ip, #0
 8005dc8:	f1a2 0130 	sub.w	r1, r2, #48	@ 0x30
 8005dcc:	2909      	cmp	r1, #9
 8005dce:	f240 8085 	bls.w	8005edc <_strtod_l+0x2a4>
 8005dd2:	9419      	str	r4, [sp, #100]	@ 0x64
 8005dd4:	f04f 0800 	mov.w	r8, #0
 8005dd8:	e0a5      	b.n	8005f26 <_strtod_l+0x2ee>
 8005dda:	2300      	movs	r3, #0
 8005ddc:	e7c8      	b.n	8005d70 <_strtod_l+0x138>
 8005dde:	f1b9 0f08 	cmp.w	r9, #8
 8005de2:	bfd8      	it	le
 8005de4:	990b      	ldrle	r1, [sp, #44]	@ 0x2c
 8005de6:	f100 0001 	add.w	r0, r0, #1
 8005dea:	bfda      	itte	le
 8005dec:	fb02 3301 	mlale	r3, r2, r1, r3
 8005df0:	930b      	strle	r3, [sp, #44]	@ 0x2c
 8005df2:	fb02 3707 	mlagt	r7, r2, r7, r3
 8005df6:	f109 0901 	add.w	r9, r9, #1
 8005dfa:	9019      	str	r0, [sp, #100]	@ 0x64
 8005dfc:	e7bf      	b.n	8005d7e <_strtod_l+0x146>
 8005dfe:	9b19      	ldr	r3, [sp, #100]	@ 0x64
 8005e00:	1c5a      	adds	r2, r3, #1
 8005e02:	9219      	str	r2, [sp, #100]	@ 0x64
 8005e04:	785a      	ldrb	r2, [r3, #1]
 8005e06:	f1b9 0f00 	cmp.w	r9, #0
 8005e0a:	d03b      	beq.n	8005e84 <_strtod_l+0x24c>
 8005e0c:	900a      	str	r0, [sp, #40]	@ 0x28
 8005e0e:	464d      	mov	r5, r9
 8005e10:	f1a2 0330 	sub.w	r3, r2, #48	@ 0x30
 8005e14:	2b09      	cmp	r3, #9
 8005e16:	d912      	bls.n	8005e3e <_strtod_l+0x206>
 8005e18:	2301      	movs	r3, #1
 8005e1a:	e7c2      	b.n	8005da2 <_strtod_l+0x16a>
 8005e1c:	9b19      	ldr	r3, [sp, #100]	@ 0x64
 8005e1e:	1c5a      	adds	r2, r3, #1
 8005e20:	9219      	str	r2, [sp, #100]	@ 0x64
 8005e22:	785a      	ldrb	r2, [r3, #1]
 8005e24:	3001      	adds	r0, #1
 8005e26:	2a30      	cmp	r2, #48	@ 0x30
 8005e28:	d0f8      	beq.n	8005e1c <_strtod_l+0x1e4>
 8005e2a:	f1a2 0331 	sub.w	r3, r2, #49	@ 0x31
 8005e2e:	2b08      	cmp	r3, #8
 8005e30:	f200 84d2 	bhi.w	80067d8 <_strtod_l+0xba0>
 8005e34:	9b19      	ldr	r3, [sp, #100]	@ 0x64
 8005e36:	900a      	str	r0, [sp, #40]	@ 0x28
 8005e38:	2000      	movs	r0, #0
 8005e3a:	930c      	str	r3, [sp, #48]	@ 0x30
 8005e3c:	4605      	mov	r5, r0
 8005e3e:	3a30      	subs	r2, #48	@ 0x30
 8005e40:	f100 0301 	add.w	r3, r0, #1
 8005e44:	d018      	beq.n	8005e78 <_strtod_l+0x240>
 8005e46:	990a      	ldr	r1, [sp, #40]	@ 0x28
 8005e48:	4419      	add	r1, r3
 8005e4a:	910a      	str	r1, [sp, #40]	@ 0x28
 8005e4c:	462e      	mov	r6, r5
 8005e4e:	f04f 0e0a 	mov.w	lr, #10
 8005e52:	1c71      	adds	r1, r6, #1
 8005e54:	eba1 0c05 	sub.w	ip, r1, r5
 8005e58:	4563      	cmp	r3, ip
 8005e5a:	dc15      	bgt.n	8005e88 <_strtod_l+0x250>
 8005e5c:	ea20 70e0 	bic.w	r0, r0, r0, asr #31
 8005e60:	182b      	adds	r3, r5, r0
 8005e62:	2b08      	cmp	r3, #8
 8005e64:	f105 0501 	add.w	r5, r5, #1
 8005e68:	4405      	add	r5, r0
 8005e6a:	dc1a      	bgt.n	8005ea2 <_strtod_l+0x26a>
 8005e6c:	990b      	ldr	r1, [sp, #44]	@ 0x2c
 8005e6e:	230a      	movs	r3, #10
 8005e70:	fb03 2301 	mla	r3, r3, r1, r2
 8005e74:	930b      	str	r3, [sp, #44]	@ 0x2c
 8005e76:	2300      	movs	r3, #0
 8005e78:	9a19      	ldr	r2, [sp, #100]	@ 0x64
 8005e7a:	1c51      	adds	r1, r2, #1
 8005e7c:	9119      	str	r1, [sp, #100]	@ 0x64
 8005e7e:	7852      	ldrb	r2, [r2, #1]
 8005e80:	4618      	mov	r0, r3
 8005e82:	e7c5      	b.n	8005e10 <_strtod_l+0x1d8>
 8005e84:	4648      	mov	r0, r9
 8005e86:	e7ce      	b.n	8005e26 <_strtod_l+0x1ee>
 8005e88:	2e08      	cmp	r6, #8
 8005e8a:	dc05      	bgt.n	8005e98 <_strtod_l+0x260>
 8005e8c:	9e0b      	ldr	r6, [sp, #44]	@ 0x2c
 8005e8e:	fb0e f606 	mul.w	r6, lr, r6
 8005e92:	960b      	str	r6, [sp, #44]	@ 0x2c
 8005e94:	460e      	mov	r6, r1
 8005e96:	e7dc      	b.n	8005e52 <_strtod_l+0x21a>
 8005e98:	2910      	cmp	r1, #16
 8005e9a:	bfd8      	it	le
 8005e9c:	fb0e f707 	mulle.w	r7, lr, r7
 8005ea0:	e7f8      	b.n	8005e94 <_strtod_l+0x25c>
 8005ea2:	2b0f      	cmp	r3, #15
 8005ea4:	bfdc      	itt	le
 8005ea6:	230a      	movle	r3, #10
 8005ea8:	fb03 2707 	mlale	r7, r3, r7, r2
 8005eac:	e7e3      	b.n	8005e76 <_strtod_l+0x23e>
 8005eae:	2300      	movs	r3, #0
 8005eb0:	930a      	str	r3, [sp, #40]	@ 0x28
 8005eb2:	2301      	movs	r3, #1
 8005eb4:	e77a      	b.n	8005dac <_strtod_l+0x174>
 8005eb6:	f04f 0c00 	mov.w	ip, #0
 8005eba:	1ca2      	adds	r2, r4, #2
 8005ebc:	9219      	str	r2, [sp, #100]	@ 0x64
 8005ebe:	78a2      	ldrb	r2, [r4, #2]
 8005ec0:	e782      	b.n	8005dc8 <_strtod_l+0x190>
 8005ec2:	f04f 0c01 	mov.w	ip, #1
 8005ec6:	e7f8      	b.n	8005eba <_strtod_l+0x282>
 8005ec8:	08007de4 	.word	0x08007de4
 8005ecc:	08007c17 	.word	0x08007c17
 8005ed0:	7ff00000 	.word	0x7ff00000
 8005ed4:	9a19      	ldr	r2, [sp, #100]	@ 0x64
 8005ed6:	1c51      	adds	r1, r2, #1
 8005ed8:	9119      	str	r1, [sp, #100]	@ 0x64
 8005eda:	7852      	ldrb	r2, [r2, #1]
 8005edc:	2a30      	cmp	r2, #48	@ 0x30
 8005ede:	d0f9      	beq.n	8005ed4 <_strtod_l+0x29c>
 8005ee0:	f1a2 0131 	sub.w	r1, r2, #49	@ 0x31
 8005ee4:	2908      	cmp	r1, #8
 8005ee6:	f63f af75 	bhi.w	8005dd4 <_strtod_l+0x19c>
 8005eea:	3a30      	subs	r2, #48	@ 0x30
 8005eec:	9209      	str	r2, [sp, #36]	@ 0x24
 8005eee:	9a19      	ldr	r2, [sp, #100]	@ 0x64
 8005ef0:	920f      	str	r2, [sp, #60]	@ 0x3c
 8005ef2:	f04f 080a 	mov.w	r8, #10
 8005ef6:	9a19      	ldr	r2, [sp, #100]	@ 0x64
 8005ef8:	1c56      	adds	r6, r2, #1
 8005efa:	9619      	str	r6, [sp, #100]	@ 0x64
 8005efc:	7852      	ldrb	r2, [r2, #1]
 8005efe:	f1a2 0e30 	sub.w	lr, r2, #48	@ 0x30
 8005f02:	f1be 0f09 	cmp.w	lr, #9
 8005f06:	d939      	bls.n	8005f7c <_strtod_l+0x344>
 8005f08:	990f      	ldr	r1, [sp, #60]	@ 0x3c
 8005f0a:	1a76      	subs	r6, r6, r1
 8005f0c:	2e08      	cmp	r6, #8
 8005f0e:	f644 681f 	movw	r8, #19999	@ 0x4e1f
 8005f12:	dc03      	bgt.n	8005f1c <_strtod_l+0x2e4>
 8005f14:	9909      	ldr	r1, [sp, #36]	@ 0x24
 8005f16:	4588      	cmp	r8, r1
 8005f18:	bfa8      	it	ge
 8005f1a:	4688      	movge	r8, r1
 8005f1c:	f1bc 0f00 	cmp.w	ip, #0
 8005f20:	d001      	beq.n	8005f26 <_strtod_l+0x2ee>
 8005f22:	f1c8 0800 	rsb	r8, r8, #0
 8005f26:	2d00      	cmp	r5, #0
 8005f28:	d14e      	bne.n	8005fc8 <_strtod_l+0x390>
 8005f2a:	9908      	ldr	r1, [sp, #32]
 8005f2c:	4308      	orrs	r0, r1
 8005f2e:	f47f aebc 	bne.w	8005caa <_strtod_l+0x72>
 8005f32:	2b00      	cmp	r3, #0
 8005f34:	f47f aed4 	bne.w	8005ce0 <_strtod_l+0xa8>
 8005f38:	2a69      	cmp	r2, #105	@ 0x69
 8005f3a:	d028      	beq.n	8005f8e <_strtod_l+0x356>
 8005f3c:	dc25      	bgt.n	8005f8a <_strtod_l+0x352>
 8005f3e:	2a49      	cmp	r2, #73	@ 0x49
 8005f40:	d025      	beq.n	8005f8e <_strtod_l+0x356>
 8005f42:	2a4e      	cmp	r2, #78	@ 0x4e
 8005f44:	f47f aecc 	bne.w	8005ce0 <_strtod_l+0xa8>
 8005f48:	499a      	ldr	r1, [pc, #616]	@ (80061b4 <_strtod_l+0x57c>)
 8005f4a:	a819      	add	r0, sp, #100	@ 0x64
 8005f4c:	f001 f9ec 	bl	8007328 <__match>
 8005f50:	2800      	cmp	r0, #0
 8005f52:	f43f aec5 	beq.w	8005ce0 <_strtod_l+0xa8>
 8005f56:	9b19      	ldr	r3, [sp, #100]	@ 0x64
 8005f58:	781b      	ldrb	r3, [r3, #0]
 8005f5a:	2b28      	cmp	r3, #40	@ 0x28
 8005f5c:	d12e      	bne.n	8005fbc <_strtod_l+0x384>
 8005f5e:	4996      	ldr	r1, [pc, #600]	@ (80061b8 <_strtod_l+0x580>)
 8005f60:	aa1c      	add	r2, sp, #112	@ 0x70
 8005f62:	a819      	add	r0, sp, #100	@ 0x64
 8005f64:	f001 f9f4 	bl	8007350 <__hexnan>
 8005f68:	2805      	cmp	r0, #5
 8005f6a:	d127      	bne.n	8005fbc <_strtod_l+0x384>
 8005f6c:	9b1d      	ldr	r3, [sp, #116]	@ 0x74
 8005f6e:	f8dd a070 	ldr.w	sl, [sp, #112]	@ 0x70
 8005f72:	f043 4bff 	orr.w	fp, r3, #2139095040	@ 0x7f800000
 8005f76:	f44b 0be0 	orr.w	fp, fp, #7340032	@ 0x700000
 8005f7a:	e696      	b.n	8005caa <_strtod_l+0x72>
 8005f7c:	9909      	ldr	r1, [sp, #36]	@ 0x24
 8005f7e:	fb08 2101 	mla	r1, r8, r1, r2
 8005f82:	f1a1 0230 	sub.w	r2, r1, #48	@ 0x30
 8005f86:	9209      	str	r2, [sp, #36]	@ 0x24
 8005f88:	e7b5      	b.n	8005ef6 <_strtod_l+0x2be>
 8005f8a:	2a6e      	cmp	r2, #110	@ 0x6e
 8005f8c:	e7da      	b.n	8005f44 <_strtod_l+0x30c>
 8005f8e:	498b      	ldr	r1, [pc, #556]	@ (80061bc <_strtod_l+0x584>)
 8005f90:	a819      	add	r0, sp, #100	@ 0x64
 8005f92:	f001 f9c9 	bl	8007328 <__match>
 8005f96:	2800      	cmp	r0, #0
 8005f98:	f43f aea2 	beq.w	8005ce0 <_strtod_l+0xa8>
 8005f9c:	9b19      	ldr	r3, [sp, #100]	@ 0x64
 8005f9e:	4988      	ldr	r1, [pc, #544]	@ (80061c0 <_strtod_l+0x588>)
 8005fa0:	3b01      	subs	r3, #1
 8005fa2:	a819      	add	r0, sp, #100	@ 0x64
 8005fa4:	9319      	str	r3, [sp, #100]	@ 0x64
 8005fa6:	f001 f9bf 	bl	8007328 <__match>
 8005faa:	b910      	cbnz	r0, 8005fb2 <_strtod_l+0x37a>
 8005fac:	9b19      	ldr	r3, [sp, #100]	@ 0x64
 8005fae:	3301      	adds	r3, #1
 8005fb0:	9319      	str	r3, [sp, #100]	@ 0x64
 8005fb2:	f8df b21c 	ldr.w	fp, [pc, #540]	@ 80061d0 <_strtod_l+0x598>
 8005fb6:	f04f 0a00 	mov.w	sl, #0
 8005fba:	e676      	b.n	8005caa <_strtod_l+0x72>
 8005fbc:	4881      	ldr	r0, [pc, #516]	@ (80061c4 <_strtod_l+0x58c>)
 8005fbe:	f000 feef 	bl	8006da0 <nan>
 8005fc2:	ec5b ab10 	vmov	sl, fp, d0
 8005fc6:	e670      	b.n	8005caa <_strtod_l+0x72>
 8005fc8:	9b0a      	ldr	r3, [sp, #40]	@ 0x28
 8005fca:	980b      	ldr	r0, [sp, #44]	@ 0x2c
 8005fcc:	eba8 0303 	sub.w	r3, r8, r3
 8005fd0:	f1b9 0f00 	cmp.w	r9, #0
 8005fd4:	bf08      	it	eq
 8005fd6:	46a9      	moveq	r9, r5
 8005fd8:	2d10      	cmp	r5, #16
 8005fda:	9309      	str	r3, [sp, #36]	@ 0x24
 8005fdc:	462c      	mov	r4, r5
 8005fde:	bfa8      	it	ge
 8005fe0:	2410      	movge	r4, #16
 8005fe2:	f7fa fab7 	bl	8000554 <__aeabi_ui2d>
 8005fe6:	2d09      	cmp	r5, #9
 8005fe8:	4682      	mov	sl, r0
 8005fea:	468b      	mov	fp, r1
 8005fec:	dc13      	bgt.n	8006016 <_strtod_l+0x3de>
 8005fee:	9b09      	ldr	r3, [sp, #36]	@ 0x24
 8005ff0:	2b00      	cmp	r3, #0
 8005ff2:	f43f ae5a 	beq.w	8005caa <_strtod_l+0x72>
 8005ff6:	9b09      	ldr	r3, [sp, #36]	@ 0x24
 8005ff8:	dd78      	ble.n	80060ec <_strtod_l+0x4b4>
 8005ffa:	2b16      	cmp	r3, #22
 8005ffc:	dc5f      	bgt.n	80060be <_strtod_l+0x486>
 8005ffe:	4972      	ldr	r1, [pc, #456]	@ (80061c8 <_strtod_l+0x590>)
 8006000:	eb01 01c3 	add.w	r1, r1, r3, lsl #3
 8006004:	e9d1 0100 	ldrd	r0, r1, [r1]
 8006008:	4652      	mov	r2, sl
 800600a:	465b      	mov	r3, fp
 800600c:	f7fa fb1c 	bl	8000648 <__aeabi_dmul>
 8006010:	4682      	mov	sl, r0
 8006012:	468b      	mov	fp, r1
 8006014:	e649      	b.n	8005caa <_strtod_l+0x72>
 8006016:	4b6c      	ldr	r3, [pc, #432]	@ (80061c8 <_strtod_l+0x590>)
 8006018:	eb03 03c4 	add.w	r3, r3, r4, lsl #3
 800601c:	e953 2312 	ldrd	r2, r3, [r3, #-72]	@ 0x48
 8006020:	f7fa fb12 	bl	8000648 <__aeabi_dmul>
 8006024:	4682      	mov	sl, r0
 8006026:	4638      	mov	r0, r7
 8006028:	468b      	mov	fp, r1
 800602a:	f7fa fa93 	bl	8000554 <__aeabi_ui2d>
 800602e:	4602      	mov	r2, r0
 8006030:	460b      	mov	r3, r1
 8006032:	4650      	mov	r0, sl
 8006034:	4659      	mov	r1, fp
 8006036:	f7fa f951 	bl	80002dc <__adddf3>
 800603a:	2d0f      	cmp	r5, #15
 800603c:	4682      	mov	sl, r0
 800603e:	468b      	mov	fp, r1
 8006040:	ddd5      	ble.n	8005fee <_strtod_l+0x3b6>
 8006042:	9b09      	ldr	r3, [sp, #36]	@ 0x24
 8006044:	1b2c      	subs	r4, r5, r4
 8006046:	441c      	add	r4, r3
 8006048:	2c00      	cmp	r4, #0
 800604a:	f340 8093 	ble.w	8006174 <_strtod_l+0x53c>
 800604e:	f014 030f 	ands.w	r3, r4, #15
 8006052:	d00a      	beq.n	800606a <_strtod_l+0x432>
 8006054:	495c      	ldr	r1, [pc, #368]	@ (80061c8 <_strtod_l+0x590>)
 8006056:	eb01 01c3 	add.w	r1, r1, r3, lsl #3
 800605a:	4652      	mov	r2, sl
 800605c:	465b      	mov	r3, fp
 800605e:	e9d1 0100 	ldrd	r0, r1, [r1]
 8006062:	f7fa faf1 	bl	8000648 <__aeabi_dmul>
 8006066:	4682      	mov	sl, r0
 8006068:	468b      	mov	fp, r1
 800606a:	f034 040f 	bics.w	r4, r4, #15
 800606e:	d073      	beq.n	8006158 <_strtod_l+0x520>
 8006070:	f5b4 7f9a 	cmp.w	r4, #308	@ 0x134
 8006074:	dd49      	ble.n	800610a <_strtod_l+0x4d2>
 8006076:	2400      	movs	r4, #0
 8006078:	46a0      	mov	r8, r4
 800607a:	940b      	str	r4, [sp, #44]	@ 0x2c
 800607c:	46a1      	mov	r9, r4
 800607e:	9a05      	ldr	r2, [sp, #20]
 8006080:	f8df b14c 	ldr.w	fp, [pc, #332]	@ 80061d0 <_strtod_l+0x598>
 8006084:	2322      	movs	r3, #34	@ 0x22
 8006086:	6013      	str	r3, [r2, #0]
 8006088:	f04f 0a00 	mov.w	sl, #0
 800608c:	9b0b      	ldr	r3, [sp, #44]	@ 0x2c
 800608e:	2b00      	cmp	r3, #0
 8006090:	f43f ae0b 	beq.w	8005caa <_strtod_l+0x72>
 8006094:	991a      	ldr	r1, [sp, #104]	@ 0x68
 8006096:	9805      	ldr	r0, [sp, #20]
 8006098:	f7ff f946 	bl	8005328 <_Bfree>
 800609c:	9805      	ldr	r0, [sp, #20]
 800609e:	4649      	mov	r1, r9
 80060a0:	f7ff f942 	bl	8005328 <_Bfree>
 80060a4:	9805      	ldr	r0, [sp, #20]
 80060a6:	4641      	mov	r1, r8
 80060a8:	f7ff f93e 	bl	8005328 <_Bfree>
 80060ac:	990b      	ldr	r1, [sp, #44]	@ 0x2c
 80060ae:	9805      	ldr	r0, [sp, #20]
 80060b0:	f7ff f93a 	bl	8005328 <_Bfree>
 80060b4:	9805      	ldr	r0, [sp, #20]
 80060b6:	4621      	mov	r1, r4
 80060b8:	f7ff f936 	bl	8005328 <_Bfree>
 80060bc:	e5f5      	b.n	8005caa <_strtod_l+0x72>
 80060be:	9a09      	ldr	r2, [sp, #36]	@ 0x24
 80060c0:	f1c5 0325 	rsb	r3, r5, #37	@ 0x25
 80060c4:	4293      	cmp	r3, r2
 80060c6:	dbbc      	blt.n	8006042 <_strtod_l+0x40a>
 80060c8:	4c3f      	ldr	r4, [pc, #252]	@ (80061c8 <_strtod_l+0x590>)
 80060ca:	f1c5 050f 	rsb	r5, r5, #15
 80060ce:	eb04 01c5 	add.w	r1, r4, r5, lsl #3
 80060d2:	4652      	mov	r2, sl
 80060d4:	465b      	mov	r3, fp
 80060d6:	e9d1 0100 	ldrd	r0, r1, [r1]
 80060da:	f7fa fab5 	bl	8000648 <__aeabi_dmul>
 80060de:	9b09      	ldr	r3, [sp, #36]	@ 0x24
 80060e0:	1b5d      	subs	r5, r3, r5
 80060e2:	eb04 04c5 	add.w	r4, r4, r5, lsl #3
 80060e6:	e9d4 2300 	ldrd	r2, r3, [r4]
 80060ea:	e78f      	b.n	800600c <_strtod_l+0x3d4>
 80060ec:	3316      	adds	r3, #22
 80060ee:	dba8      	blt.n	8006042 <_strtod_l+0x40a>
 80060f0:	9b0a      	ldr	r3, [sp, #40]	@ 0x28
 80060f2:	eba3 0808 	sub.w	r8, r3, r8
 80060f6:	4b34      	ldr	r3, [pc, #208]	@ (80061c8 <_strtod_l+0x590>)
 80060f8:	eb03 08c8 	add.w	r8, r3, r8, lsl #3
 80060fc:	e9d8 2300 	ldrd	r2, r3, [r8]
 8006100:	4650      	mov	r0, sl
 8006102:	4659      	mov	r1, fp
 8006104:	f7fa fbca 	bl	800089c <__aeabi_ddiv>
 8006108:	e782      	b.n	8006010 <_strtod_l+0x3d8>
 800610a:	2300      	movs	r3, #0
 800610c:	4f2f      	ldr	r7, [pc, #188]	@ (80061cc <_strtod_l+0x594>)
 800610e:	1124      	asrs	r4, r4, #4
 8006110:	4650      	mov	r0, sl
 8006112:	4659      	mov	r1, fp
 8006114:	461e      	mov	r6, r3
 8006116:	2c01      	cmp	r4, #1
 8006118:	dc21      	bgt.n	800615e <_strtod_l+0x526>
 800611a:	b10b      	cbz	r3, 8006120 <_strtod_l+0x4e8>
 800611c:	4682      	mov	sl, r0
 800611e:	468b      	mov	fp, r1
 8006120:	492a      	ldr	r1, [pc, #168]	@ (80061cc <_strtod_l+0x594>)
 8006122:	f1ab 7b54 	sub.w	fp, fp, #55574528	@ 0x3500000
 8006126:	eb01 01c6 	add.w	r1, r1, r6, lsl #3
 800612a:	4652      	mov	r2, sl
 800612c:	465b      	mov	r3, fp
 800612e:	e9d1 0100 	ldrd	r0, r1, [r1]
 8006132:	f7fa fa89 	bl	8000648 <__aeabi_dmul>
 8006136:	4b26      	ldr	r3, [pc, #152]	@ (80061d0 <_strtod_l+0x598>)
 8006138:	460a      	mov	r2, r1
 800613a:	400b      	ands	r3, r1
 800613c:	4925      	ldr	r1, [pc, #148]	@ (80061d4 <_strtod_l+0x59c>)
 800613e:	428b      	cmp	r3, r1
 8006140:	4682      	mov	sl, r0
 8006142:	d898      	bhi.n	8006076 <_strtod_l+0x43e>
 8006144:	f5a1 1180 	sub.w	r1, r1, #1048576	@ 0x100000
 8006148:	428b      	cmp	r3, r1
 800614a:	bf86      	itte	hi
 800614c:	f8df b088 	ldrhi.w	fp, [pc, #136]	@ 80061d8 <_strtod_l+0x5a0>
 8006150:	f04f 3aff 	movhi.w	sl, #4294967295
 8006154:	f102 7b54 	addls.w	fp, r2, #55574528	@ 0x3500000
 8006158:	2300      	movs	r3, #0
 800615a:	9308      	str	r3, [sp, #32]
 800615c:	e076      	b.n	800624c <_strtod_l+0x614>
 800615e:	07e2      	lsls	r2, r4, #31
 8006160:	d504      	bpl.n	800616c <_strtod_l+0x534>
 8006162:	e9d7 2300 	ldrd	r2, r3, [r7]
 8006166:	f7fa fa6f 	bl	8000648 <__aeabi_dmul>
 800616a:	2301      	movs	r3, #1
 800616c:	3601      	adds	r6, #1
 800616e:	1064      	asrs	r4, r4, #1
 8006170:	3708      	adds	r7, #8
 8006172:	e7d0      	b.n	8006116 <_strtod_l+0x4de>
 8006174:	d0f0      	beq.n	8006158 <_strtod_l+0x520>
 8006176:	4264      	negs	r4, r4
 8006178:	f014 020f 	ands.w	r2, r4, #15
 800617c:	d00a      	beq.n	8006194 <_strtod_l+0x55c>
 800617e:	4b12      	ldr	r3, [pc, #72]	@ (80061c8 <_strtod_l+0x590>)
 8006180:	eb03 03c2 	add.w	r3, r3, r2, lsl #3
 8006184:	4650      	mov	r0, sl
 8006186:	4659      	mov	r1, fp
 8006188:	e9d3 2300 	ldrd	r2, r3, [r3]
 800618c:	f7fa fb86 	bl	800089c <__aeabi_ddiv>
 8006190:	4682      	mov	sl, r0
 8006192:	468b      	mov	fp, r1
 8006194:	1124      	asrs	r4, r4, #4
 8006196:	d0df      	beq.n	8006158 <_strtod_l+0x520>
 8006198:	2c1f      	cmp	r4, #31
 800619a:	dd1f      	ble.n	80061dc <_strtod_l+0x5a4>
 800619c:	2400      	movs	r4, #0
 800619e:	46a0      	mov	r8, r4
 80061a0:	940b      	str	r4, [sp, #44]	@ 0x2c
 80061a2:	46a1      	mov	r9, r4
 80061a4:	9a05      	ldr	r2, [sp, #20]
 80061a6:	2322      	movs	r3, #34	@ 0x22
 80061a8:	f04f 0a00 	mov.w	sl, #0
 80061ac:	f04f 0b00 	mov.w	fp, #0
 80061b0:	6013      	str	r3, [r2, #0]
 80061b2:	e76b      	b.n	800608c <_strtod_l+0x454>
 80061b4:	08007b05 	.word	0x08007b05
 80061b8:	08007dd0 	.word	0x08007dd0
 80061bc:	08007afd 	.word	0x08007afd
 80061c0:	08007b34 	.word	0x08007b34
 80061c4:	08007c6d 	.word	0x08007c6d
 80061c8:	08007d08 	.word	0x08007d08
 80061cc:	08007ce0 	.word	0x08007ce0
 80061d0:	7ff00000 	.word	0x7ff00000
 80061d4:	7ca00000 	.word	0x7ca00000
 80061d8:	7fefffff 	.word	0x7fefffff
 80061dc:	f014 0310 	ands.w	r3, r4, #16
 80061e0:	bf18      	it	ne
 80061e2:	236a      	movne	r3, #106	@ 0x6a
 80061e4:	4ea9      	ldr	r6, [pc, #676]	@ (800648c <_strtod_l+0x854>)
 80061e6:	9308      	str	r3, [sp, #32]
 80061e8:	4650      	mov	r0, sl
 80061ea:	4659      	mov	r1, fp
 80061ec:	2300      	movs	r3, #0
 80061ee:	07e7      	lsls	r7, r4, #31
 80061f0:	d504      	bpl.n	80061fc <_strtod_l+0x5c4>
 80061f2:	e9d6 2300 	ldrd	r2, r3, [r6]
 80061f6:	f7fa fa27 	bl	8000648 <__aeabi_dmul>
 80061fa:	2301      	movs	r3, #1
 80061fc:	1064      	asrs	r4, r4, #1
 80061fe:	f106 0608 	add.w	r6, r6, #8
 8006202:	d1f4      	bne.n	80061ee <_strtod_l+0x5b6>
 8006204:	b10b      	cbz	r3, 800620a <_strtod_l+0x5d2>
 8006206:	4682      	mov	sl, r0
 8006208:	468b      	mov	fp, r1
 800620a:	9b08      	ldr	r3, [sp, #32]
 800620c:	b1b3      	cbz	r3, 800623c <_strtod_l+0x604>
 800620e:	f3cb 520a 	ubfx	r2, fp, #20, #11
 8006212:	f1c2 036b 	rsb	r3, r2, #107	@ 0x6b
 8006216:	2b00      	cmp	r3, #0
 8006218:	4659      	mov	r1, fp
 800621a:	dd0f      	ble.n	800623c <_strtod_l+0x604>
 800621c:	2b1f      	cmp	r3, #31
 800621e:	dd56      	ble.n	80062ce <_strtod_l+0x696>
 8006220:	2b34      	cmp	r3, #52	@ 0x34
 8006222:	bfde      	ittt	le
 8006224:	f04f 33ff 	movle.w	r3, #4294967295
 8006228:	f1c2 024b 	rsble	r2, r2, #75	@ 0x4b
 800622c:	4093      	lslle	r3, r2
 800622e:	f04f 0a00 	mov.w	sl, #0
 8006232:	bfcc      	ite	gt
 8006234:	f04f 7b5c 	movgt.w	fp, #57671680	@ 0x3700000
 8006238:	ea03 0b01 	andle.w	fp, r3, r1
 800623c:	2200      	movs	r2, #0
 800623e:	2300      	movs	r3, #0
 8006240:	4650      	mov	r0, sl
 8006242:	4659      	mov	r1, fp
 8006244:	f7fa fc68 	bl	8000b18 <__aeabi_dcmpeq>
 8006248:	2800      	cmp	r0, #0
 800624a:	d1a7      	bne.n	800619c <_strtod_l+0x564>
 800624c:	9b0b      	ldr	r3, [sp, #44]	@ 0x2c
 800624e:	9300      	str	r3, [sp, #0]
 8006250:	990c      	ldr	r1, [sp, #48]	@ 0x30
 8006252:	9805      	ldr	r0, [sp, #20]
 8006254:	462b      	mov	r3, r5
 8006256:	464a      	mov	r2, r9
 8006258:	f7ff f8ce 	bl	80053f8 <__s2b>
 800625c:	900b      	str	r0, [sp, #44]	@ 0x2c
 800625e:	2800      	cmp	r0, #0
 8006260:	f43f af09 	beq.w	8006076 <_strtod_l+0x43e>
 8006264:	9a09      	ldr	r2, [sp, #36]	@ 0x24
 8006266:	9b0a      	ldr	r3, [sp, #40]	@ 0x28
 8006268:	2a00      	cmp	r2, #0
 800626a:	eba3 0308 	sub.w	r3, r3, r8
 800626e:	bfa8      	it	ge
 8006270:	2300      	movge	r3, #0
 8006272:	9312      	str	r3, [sp, #72]	@ 0x48
 8006274:	2400      	movs	r4, #0
 8006276:	ea22 73e2 	bic.w	r3, r2, r2, asr #31
 800627a:	9316      	str	r3, [sp, #88]	@ 0x58
 800627c:	46a0      	mov	r8, r4
 800627e:	9b0b      	ldr	r3, [sp, #44]	@ 0x2c
 8006280:	9805      	ldr	r0, [sp, #20]
 8006282:	6859      	ldr	r1, [r3, #4]
 8006284:	f7ff f810 	bl	80052a8 <_Balloc>
 8006288:	4681      	mov	r9, r0
 800628a:	2800      	cmp	r0, #0
 800628c:	f43f aef7 	beq.w	800607e <_strtod_l+0x446>
 8006290:	9b0b      	ldr	r3, [sp, #44]	@ 0x2c
 8006292:	691a      	ldr	r2, [r3, #16]
 8006294:	3202      	adds	r2, #2
 8006296:	f103 010c 	add.w	r1, r3, #12
 800629a:	0092      	lsls	r2, r2, #2
 800629c:	300c      	adds	r0, #12
 800629e:	f000 fd71 	bl	8006d84 <memcpy>
 80062a2:	ec4b ab10 	vmov	d0, sl, fp
 80062a6:	9805      	ldr	r0, [sp, #20]
 80062a8:	aa1c      	add	r2, sp, #112	@ 0x70
 80062aa:	a91b      	add	r1, sp, #108	@ 0x6c
 80062ac:	e9cd ab0c 	strd	sl, fp, [sp, #48]	@ 0x30
 80062b0:	f7ff fbd6 	bl	8005a60 <__d2b>
 80062b4:	901a      	str	r0, [sp, #104]	@ 0x68
 80062b6:	2800      	cmp	r0, #0
 80062b8:	f43f aee1 	beq.w	800607e <_strtod_l+0x446>
 80062bc:	9805      	ldr	r0, [sp, #20]
 80062be:	2101      	movs	r1, #1
 80062c0:	f7ff f930 	bl	8005524 <__i2b>
 80062c4:	4680      	mov	r8, r0
 80062c6:	b948      	cbnz	r0, 80062dc <_strtod_l+0x6a4>
 80062c8:	f04f 0800 	mov.w	r8, #0
 80062cc:	e6d7      	b.n	800607e <_strtod_l+0x446>
 80062ce:	f04f 32ff 	mov.w	r2, #4294967295
 80062d2:	fa02 f303 	lsl.w	r3, r2, r3
 80062d6:	ea03 0a0a 	and.w	sl, r3, sl
 80062da:	e7af      	b.n	800623c <_strtod_l+0x604>
 80062dc:	9d1b      	ldr	r5, [sp, #108]	@ 0x6c
 80062de:	9a1c      	ldr	r2, [sp, #112]	@ 0x70
 80062e0:	2d00      	cmp	r5, #0
 80062e2:	bfab      	itete	ge
 80062e4:	9b12      	ldrge	r3, [sp, #72]	@ 0x48
 80062e6:	9b16      	ldrlt	r3, [sp, #88]	@ 0x58
 80062e8:	9e16      	ldrge	r6, [sp, #88]	@ 0x58
 80062ea:	9f12      	ldrlt	r7, [sp, #72]	@ 0x48
 80062ec:	bfac      	ite	ge
 80062ee:	18ef      	addge	r7, r5, r3
 80062f0:	1b5e      	sublt	r6, r3, r5
 80062f2:	9b08      	ldr	r3, [sp, #32]
 80062f4:	1aed      	subs	r5, r5, r3
 80062f6:	4415      	add	r5, r2
 80062f8:	4b65      	ldr	r3, [pc, #404]	@ (8006490 <_strtod_l+0x858>)
 80062fa:	3d01      	subs	r5, #1
 80062fc:	429d      	cmp	r5, r3
 80062fe:	f1c2 0236 	rsb	r2, r2, #54	@ 0x36
 8006302:	da50      	bge.n	80063a6 <_strtod_l+0x76e>
 8006304:	1b5b      	subs	r3, r3, r5
 8006306:	2b1f      	cmp	r3, #31
 8006308:	eba2 0203 	sub.w	r2, r2, r3
 800630c:	f04f 0101 	mov.w	r1, #1
 8006310:	dc3d      	bgt.n	800638e <_strtod_l+0x756>
 8006312:	fa01 f303 	lsl.w	r3, r1, r3
 8006316:	9313      	str	r3, [sp, #76]	@ 0x4c
 8006318:	2300      	movs	r3, #0
 800631a:	9310      	str	r3, [sp, #64]	@ 0x40
 800631c:	18bd      	adds	r5, r7, r2
 800631e:	9b08      	ldr	r3, [sp, #32]
 8006320:	42af      	cmp	r7, r5
 8006322:	4416      	add	r6, r2
 8006324:	441e      	add	r6, r3
 8006326:	463b      	mov	r3, r7
 8006328:	bfa8      	it	ge
 800632a:	462b      	movge	r3, r5
 800632c:	42b3      	cmp	r3, r6
 800632e:	bfa8      	it	ge
 8006330:	4633      	movge	r3, r6
 8006332:	2b00      	cmp	r3, #0
 8006334:	bfc2      	ittt	gt
 8006336:	1aed      	subgt	r5, r5, r3
 8006338:	1af6      	subgt	r6, r6, r3
 800633a:	1aff      	subgt	r7, r7, r3
 800633c:	9b12      	ldr	r3, [sp, #72]	@ 0x48
 800633e:	2b00      	cmp	r3, #0
 8006340:	dd16      	ble.n	8006370 <_strtod_l+0x738>
 8006342:	4641      	mov	r1, r8
 8006344:	9805      	ldr	r0, [sp, #20]
 8006346:	461a      	mov	r2, r3
 8006348:	f7ff f9a4 	bl	8005694 <__pow5mult>
 800634c:	4680      	mov	r8, r0
 800634e:	2800      	cmp	r0, #0
 8006350:	d0ba      	beq.n	80062c8 <_strtod_l+0x690>
 8006352:	4601      	mov	r1, r0
 8006354:	9a1a      	ldr	r2, [sp, #104]	@ 0x68
 8006356:	9805      	ldr	r0, [sp, #20]
 8006358:	f7ff f8fa 	bl	8005550 <__multiply>
 800635c:	900a      	str	r0, [sp, #40]	@ 0x28
 800635e:	2800      	cmp	r0, #0
 8006360:	f43f ae8d 	beq.w	800607e <_strtod_l+0x446>
 8006364:	991a      	ldr	r1, [sp, #104]	@ 0x68
 8006366:	9805      	ldr	r0, [sp, #20]
 8006368:	f7fe ffde 	bl	8005328 <_Bfree>
 800636c:	9b0a      	ldr	r3, [sp, #40]	@ 0x28
 800636e:	931a      	str	r3, [sp, #104]	@ 0x68
 8006370:	2d00      	cmp	r5, #0
 8006372:	dc1d      	bgt.n	80063b0 <_strtod_l+0x778>
 8006374:	9b09      	ldr	r3, [sp, #36]	@ 0x24
 8006376:	2b00      	cmp	r3, #0
 8006378:	dd23      	ble.n	80063c2 <_strtod_l+0x78a>
 800637a:	4649      	mov	r1, r9
 800637c:	9a16      	ldr	r2, [sp, #88]	@ 0x58
 800637e:	9805      	ldr	r0, [sp, #20]
 8006380:	f7ff f988 	bl	8005694 <__pow5mult>
 8006384:	4681      	mov	r9, r0
 8006386:	b9e0      	cbnz	r0, 80063c2 <_strtod_l+0x78a>
 8006388:	f04f 0900 	mov.w	r9, #0
 800638c:	e677      	b.n	800607e <_strtod_l+0x446>
 800638e:	f1c5 457f 	rsb	r5, r5, #4278190080	@ 0xff000000
 8006392:	f505 057f 	add.w	r5, r5, #16711680	@ 0xff0000
 8006396:	f505 457b 	add.w	r5, r5, #64256	@ 0xfb00
 800639a:	35e2      	adds	r5, #226	@ 0xe2
 800639c:	fa01 f305 	lsl.w	r3, r1, r5
 80063a0:	9310      	str	r3, [sp, #64]	@ 0x40
 80063a2:	9113      	str	r1, [sp, #76]	@ 0x4c
 80063a4:	e7ba      	b.n	800631c <_strtod_l+0x6e4>
 80063a6:	2300      	movs	r3, #0
 80063a8:	9310      	str	r3, [sp, #64]	@ 0x40
 80063aa:	2301      	movs	r3, #1
 80063ac:	9313      	str	r3, [sp, #76]	@ 0x4c
 80063ae:	e7b5      	b.n	800631c <_strtod_l+0x6e4>
 80063b0:	991a      	ldr	r1, [sp, #104]	@ 0x68
 80063b2:	9805      	ldr	r0, [sp, #20]
 80063b4:	462a      	mov	r2, r5
 80063b6:	f7ff f9c7 	bl	8005748 <__lshift>
 80063ba:	901a      	str	r0, [sp, #104]	@ 0x68
 80063bc:	2800      	cmp	r0, #0
 80063be:	d1d9      	bne.n	8006374 <_strtod_l+0x73c>
 80063c0:	e65d      	b.n	800607e <_strtod_l+0x446>
 80063c2:	2e00      	cmp	r6, #0
 80063c4:	dd07      	ble.n	80063d6 <_strtod_l+0x79e>
 80063c6:	4649      	mov	r1, r9
 80063c8:	9805      	ldr	r0, [sp, #20]
 80063ca:	4632      	mov	r2, r6
 80063cc:	f7ff f9bc 	bl	8005748 <__lshift>
 80063d0:	4681      	mov	r9, r0
 80063d2:	2800      	cmp	r0, #0
 80063d4:	d0d8      	beq.n	8006388 <_strtod_l+0x750>
 80063d6:	2f00      	cmp	r7, #0
 80063d8:	dd08      	ble.n	80063ec <_strtod_l+0x7b4>
 80063da:	4641      	mov	r1, r8
 80063dc:	9805      	ldr	r0, [sp, #20]
 80063de:	463a      	mov	r2, r7
 80063e0:	f7ff f9b2 	bl	8005748 <__lshift>
 80063e4:	4680      	mov	r8, r0
 80063e6:	2800      	cmp	r0, #0
 80063e8:	f43f ae49 	beq.w	800607e <_strtod_l+0x446>
 80063ec:	991a      	ldr	r1, [sp, #104]	@ 0x68
 80063ee:	9805      	ldr	r0, [sp, #20]
 80063f0:	464a      	mov	r2, r9
 80063f2:	f7ff fa31 	bl	8005858 <__mdiff>
 80063f6:	4604      	mov	r4, r0
 80063f8:	2800      	cmp	r0, #0
 80063fa:	f43f ae40 	beq.w	800607e <_strtod_l+0x446>
 80063fe:	68c3      	ldr	r3, [r0, #12]
 8006400:	930f      	str	r3, [sp, #60]	@ 0x3c
 8006402:	2300      	movs	r3, #0
 8006404:	60c3      	str	r3, [r0, #12]
 8006406:	4641      	mov	r1, r8
 8006408:	f7ff fa0a 	bl	8005820 <__mcmp>
 800640c:	2800      	cmp	r0, #0
 800640e:	da45      	bge.n	800649c <_strtod_l+0x864>
 8006410:	9b0f      	ldr	r3, [sp, #60]	@ 0x3c
 8006412:	ea53 030a 	orrs.w	r3, r3, sl
 8006416:	d16b      	bne.n	80064f0 <_strtod_l+0x8b8>
 8006418:	f3cb 0313 	ubfx	r3, fp, #0, #20
 800641c:	2b00      	cmp	r3, #0
 800641e:	d167      	bne.n	80064f0 <_strtod_l+0x8b8>
 8006420:	f02b 4300 	bic.w	r3, fp, #2147483648	@ 0x80000000
 8006424:	0d1b      	lsrs	r3, r3, #20
 8006426:	051b      	lsls	r3, r3, #20
 8006428:	f1b3 6fd6 	cmp.w	r3, #112197632	@ 0x6b00000
 800642c:	d960      	bls.n	80064f0 <_strtod_l+0x8b8>
 800642e:	6963      	ldr	r3, [r4, #20]
 8006430:	b913      	cbnz	r3, 8006438 <_strtod_l+0x800>
 8006432:	6923      	ldr	r3, [r4, #16]
 8006434:	2b01      	cmp	r3, #1
 8006436:	dd5b      	ble.n	80064f0 <_strtod_l+0x8b8>
 8006438:	4621      	mov	r1, r4
 800643a:	2201      	movs	r2, #1
 800643c:	9805      	ldr	r0, [sp, #20]
 800643e:	f7ff f983 	bl	8005748 <__lshift>
 8006442:	4641      	mov	r1, r8
 8006444:	4604      	mov	r4, r0
 8006446:	f7ff f9eb 	bl	8005820 <__mcmp>
 800644a:	2800      	cmp	r0, #0
 800644c:	dd50      	ble.n	80064f0 <_strtod_l+0x8b8>
 800644e:	f02b 4300 	bic.w	r3, fp, #2147483648	@ 0x80000000
 8006452:	9a08      	ldr	r2, [sp, #32]
 8006454:	0d1b      	lsrs	r3, r3, #20
 8006456:	051b      	lsls	r3, r3, #20
 8006458:	2a00      	cmp	r2, #0
 800645a:	d06a      	beq.n	8006532 <_strtod_l+0x8fa>
 800645c:	f1b3 6fd6 	cmp.w	r3, #112197632	@ 0x6b00000
 8006460:	d867      	bhi.n	8006532 <_strtod_l+0x8fa>
 8006462:	f1b3 7f5c 	cmp.w	r3, #57671680	@ 0x3700000
 8006466:	f67f ae9d 	bls.w	80061a4 <_strtod_l+0x56c>
 800646a:	4b0a      	ldr	r3, [pc, #40]	@ (8006494 <_strtod_l+0x85c>)
 800646c:	4650      	mov	r0, sl
 800646e:	4659      	mov	r1, fp
 8006470:	2200      	movs	r2, #0
 8006472:	f7fa f8e9 	bl	8000648 <__aeabi_dmul>
 8006476:	4b08      	ldr	r3, [pc, #32]	@ (8006498 <_strtod_l+0x860>)
 8006478:	400b      	ands	r3, r1
 800647a:	4682      	mov	sl, r0
 800647c:	468b      	mov	fp, r1
 800647e:	2b00      	cmp	r3, #0
 8006480:	f47f ae08 	bne.w	8006094 <_strtod_l+0x45c>
 8006484:	9a05      	ldr	r2, [sp, #20]
 8006486:	2322      	movs	r3, #34	@ 0x22
 8006488:	6013      	str	r3, [r2, #0]
 800648a:	e603      	b.n	8006094 <_strtod_l+0x45c>
 800648c:	08007df8 	.word	0x08007df8
 8006490:	fffffc02 	.word	0xfffffc02
 8006494:	39500000 	.word	0x39500000
 8006498:	7ff00000 	.word	0x7ff00000
 800649c:	f8cd b028 	str.w	fp, [sp, #40]	@ 0x28
 80064a0:	d165      	bne.n	800656e <_strtod_l+0x936>
 80064a2:	9a0f      	ldr	r2, [sp, #60]	@ 0x3c
 80064a4:	f3cb 0313 	ubfx	r3, fp, #0, #20
 80064a8:	b35a      	cbz	r2, 8006502 <_strtod_l+0x8ca>
 80064aa:	4a9f      	ldr	r2, [pc, #636]	@ (8006728 <_strtod_l+0xaf0>)
 80064ac:	4293      	cmp	r3, r2
 80064ae:	d12b      	bne.n	8006508 <_strtod_l+0x8d0>
 80064b0:	9b08      	ldr	r3, [sp, #32]
 80064b2:	4651      	mov	r1, sl
 80064b4:	b303      	cbz	r3, 80064f8 <_strtod_l+0x8c0>
 80064b6:	4b9d      	ldr	r3, [pc, #628]	@ (800672c <_strtod_l+0xaf4>)
 80064b8:	465a      	mov	r2, fp
 80064ba:	4013      	ands	r3, r2
 80064bc:	f1b3 6fd4 	cmp.w	r3, #111149056	@ 0x6a00000
 80064c0:	f04f 32ff 	mov.w	r2, #4294967295
 80064c4:	d81b      	bhi.n	80064fe <_strtod_l+0x8c6>
 80064c6:	0d1b      	lsrs	r3, r3, #20
 80064c8:	f1c3 036b 	rsb	r3, r3, #107	@ 0x6b
 80064cc:	fa02 f303 	lsl.w	r3, r2, r3
 80064d0:	4299      	cmp	r1, r3
 80064d2:	d119      	bne.n	8006508 <_strtod_l+0x8d0>
 80064d4:	4b96      	ldr	r3, [pc, #600]	@ (8006730 <_strtod_l+0xaf8>)
 80064d6:	9a0a      	ldr	r2, [sp, #40]	@ 0x28
 80064d8:	429a      	cmp	r2, r3
 80064da:	d102      	bne.n	80064e2 <_strtod_l+0x8aa>
 80064dc:	3101      	adds	r1, #1
 80064de:	f43f adce 	beq.w	800607e <_strtod_l+0x446>
 80064e2:	4b92      	ldr	r3, [pc, #584]	@ (800672c <_strtod_l+0xaf4>)
 80064e4:	9a0a      	ldr	r2, [sp, #40]	@ 0x28
 80064e6:	401a      	ands	r2, r3
 80064e8:	f502 1b80 	add.w	fp, r2, #1048576	@ 0x100000
 80064ec:	f04f 0a00 	mov.w	sl, #0
 80064f0:	9b08      	ldr	r3, [sp, #32]
 80064f2:	2b00      	cmp	r3, #0
 80064f4:	d1b9      	bne.n	800646a <_strtod_l+0x832>
 80064f6:	e5cd      	b.n	8006094 <_strtod_l+0x45c>
 80064f8:	f04f 33ff 	mov.w	r3, #4294967295
 80064fc:	e7e8      	b.n	80064d0 <_strtod_l+0x898>
 80064fe:	4613      	mov	r3, r2
 8006500:	e7e6      	b.n	80064d0 <_strtod_l+0x898>
 8006502:	ea53 030a 	orrs.w	r3, r3, sl
 8006506:	d0a2      	beq.n	800644e <_strtod_l+0x816>
 8006508:	9b10      	ldr	r3, [sp, #64]	@ 0x40
 800650a:	b1db      	cbz	r3, 8006544 <_strtod_l+0x90c>
 800650c:	9a0a      	ldr	r2, [sp, #40]	@ 0x28
 800650e:	4213      	tst	r3, r2
 8006510:	d0ee      	beq.n	80064f0 <_strtod_l+0x8b8>
 8006512:	9b0f      	ldr	r3, [sp, #60]	@ 0x3c
 8006514:	9a08      	ldr	r2, [sp, #32]
 8006516:	4650      	mov	r0, sl
 8006518:	4659      	mov	r1, fp
 800651a:	b1bb      	cbz	r3, 800654c <_strtod_l+0x914>
 800651c:	f7ff fb6e 	bl	8005bfc <sulp>
 8006520:	e9dd 010c 	ldrd	r0, r1, [sp, #48]	@ 0x30
 8006524:	ec53 2b10 	vmov	r2, r3, d0
 8006528:	f7f9 fed8 	bl	80002dc <__adddf3>
 800652c:	4682      	mov	sl, r0
 800652e:	468b      	mov	fp, r1
 8006530:	e7de      	b.n	80064f0 <_strtod_l+0x8b8>
 8006532:	f5a3 1380 	sub.w	r3, r3, #1048576	@ 0x100000
 8006536:	ea6f 5b13 	mvn.w	fp, r3, lsr #20
 800653a:	ea6f 5b0b 	mvn.w	fp, fp, lsl #20
 800653e:	f04f 3aff 	mov.w	sl, #4294967295
 8006542:	e7d5      	b.n	80064f0 <_strtod_l+0x8b8>
 8006544:	9b13      	ldr	r3, [sp, #76]	@ 0x4c
 8006546:	ea13 0f0a 	tst.w	r3, sl
 800654a:	e7e1      	b.n	8006510 <_strtod_l+0x8d8>
 800654c:	f7ff fb56 	bl	8005bfc <sulp>
 8006550:	e9dd 010c 	ldrd	r0, r1, [sp, #48]	@ 0x30
 8006554:	ec53 2b10 	vmov	r2, r3, d0
 8006558:	f7f9 febe 	bl	80002d8 <__aeabi_dsub>
 800655c:	2200      	movs	r2, #0
 800655e:	2300      	movs	r3, #0
 8006560:	4682      	mov	sl, r0
 8006562:	468b      	mov	fp, r1
 8006564:	f7fa fad8 	bl	8000b18 <__aeabi_dcmpeq>
 8006568:	2800      	cmp	r0, #0
 800656a:	d0c1      	beq.n	80064f0 <_strtod_l+0x8b8>
 800656c:	e61a      	b.n	80061a4 <_strtod_l+0x56c>
 800656e:	4641      	mov	r1, r8
 8006570:	4620      	mov	r0, r4
 8006572:	f7ff facd 	bl	8005b10 <__ratio>
 8006576:	ec57 6b10 	vmov	r6, r7, d0
 800657a:	2200      	movs	r2, #0
 800657c:	f04f 4380 	mov.w	r3, #1073741824	@ 0x40000000
 8006580:	4630      	mov	r0, r6
 8006582:	4639      	mov	r1, r7
 8006584:	f7fa fadc 	bl	8000b40 <__aeabi_dcmple>
 8006588:	2800      	cmp	r0, #0
 800658a:	d06f      	beq.n	800666c <_strtod_l+0xa34>
 800658c:	9b0f      	ldr	r3, [sp, #60]	@ 0x3c
 800658e:	2b00      	cmp	r3, #0
 8006590:	d17a      	bne.n	8006688 <_strtod_l+0xa50>
 8006592:	f1ba 0f00 	cmp.w	sl, #0
 8006596:	d158      	bne.n	800664a <_strtod_l+0xa12>
 8006598:	9b0a      	ldr	r3, [sp, #40]	@ 0x28
 800659a:	f3c3 0313 	ubfx	r3, r3, #0, #20
 800659e:	2b00      	cmp	r3, #0
 80065a0:	d15a      	bne.n	8006658 <_strtod_l+0xa20>
 80065a2:	4b64      	ldr	r3, [pc, #400]	@ (8006734 <_strtod_l+0xafc>)
 80065a4:	2200      	movs	r2, #0
 80065a6:	4630      	mov	r0, r6
 80065a8:	4639      	mov	r1, r7
 80065aa:	f7fa fabf 	bl	8000b2c <__aeabi_dcmplt>
 80065ae:	2800      	cmp	r0, #0
 80065b0:	d159      	bne.n	8006666 <_strtod_l+0xa2e>
 80065b2:	4630      	mov	r0, r6
 80065b4:	4639      	mov	r1, r7
 80065b6:	4b60      	ldr	r3, [pc, #384]	@ (8006738 <_strtod_l+0xb00>)
 80065b8:	2200      	movs	r2, #0
 80065ba:	f7fa f845 	bl	8000648 <__aeabi_dmul>
 80065be:	4606      	mov	r6, r0
 80065c0:	460f      	mov	r7, r1
 80065c2:	f107 4300 	add.w	r3, r7, #2147483648	@ 0x80000000
 80065c6:	9606      	str	r6, [sp, #24]
 80065c8:	9307      	str	r3, [sp, #28]
 80065ca:	e9dd 2306 	ldrd	r2, r3, [sp, #24]
 80065ce:	4d57      	ldr	r5, [pc, #348]	@ (800672c <_strtod_l+0xaf4>)
 80065d0:	e9cd 2310 	strd	r2, r3, [sp, #64]	@ 0x40
 80065d4:	9b0a      	ldr	r3, [sp, #40]	@ 0x28
 80065d6:	401d      	ands	r5, r3
 80065d8:	4b58      	ldr	r3, [pc, #352]	@ (800673c <_strtod_l+0xb04>)
 80065da:	429d      	cmp	r5, r3
 80065dc:	f040 80b2 	bne.w	8006744 <_strtod_l+0xb0c>
 80065e0:	9b0a      	ldr	r3, [sp, #40]	@ 0x28
 80065e2:	f1a3 7b54 	sub.w	fp, r3, #55574528	@ 0x3500000
 80065e6:	ec4b ab10 	vmov	d0, sl, fp
 80065ea:	f7ff f9c9 	bl	8005980 <__ulp>
 80065ee:	e9dd 2306 	ldrd	r2, r3, [sp, #24]
 80065f2:	ec51 0b10 	vmov	r0, r1, d0
 80065f6:	f7fa f827 	bl	8000648 <__aeabi_dmul>
 80065fa:	4652      	mov	r2, sl
 80065fc:	465b      	mov	r3, fp
 80065fe:	f7f9 fe6d 	bl	80002dc <__adddf3>
 8006602:	460b      	mov	r3, r1
 8006604:	4949      	ldr	r1, [pc, #292]	@ (800672c <_strtod_l+0xaf4>)
 8006606:	4a4e      	ldr	r2, [pc, #312]	@ (8006740 <_strtod_l+0xb08>)
 8006608:	4019      	ands	r1, r3
 800660a:	4291      	cmp	r1, r2
 800660c:	4682      	mov	sl, r0
 800660e:	d942      	bls.n	8006696 <_strtod_l+0xa5e>
 8006610:	9a0d      	ldr	r2, [sp, #52]	@ 0x34
 8006612:	4b47      	ldr	r3, [pc, #284]	@ (8006730 <_strtod_l+0xaf8>)
 8006614:	429a      	cmp	r2, r3
 8006616:	d103      	bne.n	8006620 <_strtod_l+0x9e8>
 8006618:	9b0c      	ldr	r3, [sp, #48]	@ 0x30
 800661a:	3301      	adds	r3, #1
 800661c:	f43f ad2f 	beq.w	800607e <_strtod_l+0x446>
 8006620:	f8df b10c 	ldr.w	fp, [pc, #268]	@ 8006730 <_strtod_l+0xaf8>
 8006624:	f04f 3aff 	mov.w	sl, #4294967295
 8006628:	991a      	ldr	r1, [sp, #104]	@ 0x68
 800662a:	9805      	ldr	r0, [sp, #20]
 800662c:	f7fe fe7c 	bl	8005328 <_Bfree>
 8006630:	9805      	ldr	r0, [sp, #20]
 8006632:	4649      	mov	r1, r9
 8006634:	f7fe fe78 	bl	8005328 <_Bfree>
 8006638:	9805      	ldr	r0, [sp, #20]
 800663a:	4641      	mov	r1, r8
 800663c:	f7fe fe74 	bl	8005328 <_Bfree>
 8006640:	9805      	ldr	r0, [sp, #20]
 8006642:	4621      	mov	r1, r4
 8006644:	f7fe fe70 	bl	8005328 <_Bfree>
 8006648:	e619      	b.n	800627e <_strtod_l+0x646>
 800664a:	f1ba 0f01 	cmp.w	sl, #1
 800664e:	d103      	bne.n	8006658 <_strtod_l+0xa20>
 8006650:	9b0a      	ldr	r3, [sp, #40]	@ 0x28
 8006652:	2b00      	cmp	r3, #0
 8006654:	f43f ada6 	beq.w	80061a4 <_strtod_l+0x56c>
 8006658:	ed9f 7b2b 	vldr	d7, [pc, #172]	@ 8006708 <_strtod_l+0xad0>
 800665c:	4f35      	ldr	r7, [pc, #212]	@ (8006734 <_strtod_l+0xafc>)
 800665e:	ed8d 7b06 	vstr	d7, [sp, #24]
 8006662:	2600      	movs	r6, #0
 8006664:	e7b1      	b.n	80065ca <_strtod_l+0x992>
 8006666:	4f34      	ldr	r7, [pc, #208]	@ (8006738 <_strtod_l+0xb00>)
 8006668:	2600      	movs	r6, #0
 800666a:	e7aa      	b.n	80065c2 <_strtod_l+0x98a>
 800666c:	4b32      	ldr	r3, [pc, #200]	@ (8006738 <_strtod_l+0xb00>)
 800666e:	4630      	mov	r0, r6
 8006670:	4639      	mov	r1, r7
 8006672:	2200      	movs	r2, #0
 8006674:	f7f9 ffe8 	bl	8000648 <__aeabi_dmul>
 8006678:	9b0f      	ldr	r3, [sp, #60]	@ 0x3c
 800667a:	4606      	mov	r6, r0
 800667c:	460f      	mov	r7, r1
 800667e:	2b00      	cmp	r3, #0
 8006680:	d09f      	beq.n	80065c2 <_strtod_l+0x98a>
 8006682:	e9cd 6706 	strd	r6, r7, [sp, #24]
 8006686:	e7a0      	b.n	80065ca <_strtod_l+0x992>
 8006688:	ed9f 7b21 	vldr	d7, [pc, #132]	@ 8006710 <_strtod_l+0xad8>
 800668c:	ed8d 7b06 	vstr	d7, [sp, #24]
 8006690:	ec57 6b17 	vmov	r6, r7, d7
 8006694:	e799      	b.n	80065ca <_strtod_l+0x992>
 8006696:	f103 7b54 	add.w	fp, r3, #55574528	@ 0x3500000
 800669a:	9b08      	ldr	r3, [sp, #32]
 800669c:	f8cd b028 	str.w	fp, [sp, #40]	@ 0x28
 80066a0:	2b00      	cmp	r3, #0
 80066a2:	d1c1      	bne.n	8006628 <_strtod_l+0x9f0>
 80066a4:	f02b 4300 	bic.w	r3, fp, #2147483648	@ 0x80000000
 80066a8:	0d1b      	lsrs	r3, r3, #20
 80066aa:	051b      	lsls	r3, r3, #20
 80066ac:	429d      	cmp	r5, r3
 80066ae:	d1bb      	bne.n	8006628 <_strtod_l+0x9f0>
 80066b0:	4630      	mov	r0, r6
 80066b2:	4639      	mov	r1, r7
 80066b4:	f7fa fb28 	bl	8000d08 <__aeabi_d2lz>
 80066b8:	f7f9 ff98 	bl	80005ec <__aeabi_l2d>
 80066bc:	4602      	mov	r2, r0
 80066be:	460b      	mov	r3, r1
 80066c0:	4630      	mov	r0, r6
 80066c2:	4639      	mov	r1, r7
 80066c4:	f7f9 fe08 	bl	80002d8 <__aeabi_dsub>
 80066c8:	460b      	mov	r3, r1
 80066ca:	4602      	mov	r2, r0
 80066cc:	e9cd 230c 	strd	r2, r3, [sp, #48]	@ 0x30
 80066d0:	f3cb 0613 	ubfx	r6, fp, #0, #20
 80066d4:	9b0f      	ldr	r3, [sp, #60]	@ 0x3c
 80066d6:	ea46 060a 	orr.w	r6, r6, sl
 80066da:	431e      	orrs	r6, r3
 80066dc:	d06f      	beq.n	80067be <_strtod_l+0xb86>
 80066de:	a30e      	add	r3, pc, #56	@ (adr r3, 8006718 <_strtod_l+0xae0>)
 80066e0:	e9d3 2300 	ldrd	r2, r3, [r3]
 80066e4:	f7fa fa22 	bl	8000b2c <__aeabi_dcmplt>
 80066e8:	2800      	cmp	r0, #0
 80066ea:	f47f acd3 	bne.w	8006094 <_strtod_l+0x45c>
 80066ee:	a30c      	add	r3, pc, #48	@ (adr r3, 8006720 <_strtod_l+0xae8>)
 80066f0:	e9d3 2300 	ldrd	r2, r3, [r3]
 80066f4:	e9dd 010c 	ldrd	r0, r1, [sp, #48]	@ 0x30
 80066f8:	f7fa fa36 	bl	8000b68 <__aeabi_dcmpgt>
 80066fc:	2800      	cmp	r0, #0
 80066fe:	d093      	beq.n	8006628 <_strtod_l+0x9f0>
 8006700:	e4c8      	b.n	8006094 <_strtod_l+0x45c>
 8006702:	bf00      	nop
 8006704:	f3af 8000 	nop.w
 8006708:	00000000 	.word	0x00000000
 800670c:	bff00000 	.word	0xbff00000
 8006710:	00000000 	.word	0x00000000
 8006714:	3ff00000 	.word	0x3ff00000
 8006718:	94a03595 	.word	0x94a03595
 800671c:	3fdfffff 	.word	0x3fdfffff
 8006720:	35afe535 	.word	0x35afe535
 8006724:	3fe00000 	.word	0x3fe00000
 8006728:	000fffff 	.word	0x000fffff
 800672c:	7ff00000 	.word	0x7ff00000
 8006730:	7fefffff 	.word	0x7fefffff
 8006734:	3ff00000 	.word	0x3ff00000
 8006738:	3fe00000 	.word	0x3fe00000
 800673c:	7fe00000 	.word	0x7fe00000
 8006740:	7c9fffff 	.word	0x7c9fffff
 8006744:	9b08      	ldr	r3, [sp, #32]
 8006746:	b323      	cbz	r3, 8006792 <_strtod_l+0xb5a>
 8006748:	f1b5 6fd4 	cmp.w	r5, #111149056	@ 0x6a00000
 800674c:	d821      	bhi.n	8006792 <_strtod_l+0xb5a>
 800674e:	a328      	add	r3, pc, #160	@ (adr r3, 80067f0 <_strtod_l+0xbb8>)
 8006750:	e9d3 2300 	ldrd	r2, r3, [r3]
 8006754:	4630      	mov	r0, r6
 8006756:	4639      	mov	r1, r7
 8006758:	f7fa f9f2 	bl	8000b40 <__aeabi_dcmple>
 800675c:	b1a0      	cbz	r0, 8006788 <_strtod_l+0xb50>
 800675e:	4639      	mov	r1, r7
 8006760:	4630      	mov	r0, r6
 8006762:	f7fa fa49 	bl	8000bf8 <__aeabi_d2uiz>
 8006766:	2801      	cmp	r0, #1
 8006768:	bf38      	it	cc
 800676a:	2001      	movcc	r0, #1
 800676c:	f7f9 fef2 	bl	8000554 <__aeabi_ui2d>
 8006770:	9b0f      	ldr	r3, [sp, #60]	@ 0x3c
 8006772:	4606      	mov	r6, r0
 8006774:	460f      	mov	r7, r1
 8006776:	b9fb      	cbnz	r3, 80067b8 <_strtod_l+0xb80>
 8006778:	f101 4300 	add.w	r3, r1, #2147483648	@ 0x80000000
 800677c:	9014      	str	r0, [sp, #80]	@ 0x50
 800677e:	9315      	str	r3, [sp, #84]	@ 0x54
 8006780:	e9dd 2314 	ldrd	r2, r3, [sp, #80]	@ 0x50
 8006784:	e9cd 2310 	strd	r2, r3, [sp, #64]	@ 0x40
 8006788:	9b11      	ldr	r3, [sp, #68]	@ 0x44
 800678a:	f103 63d6 	add.w	r3, r3, #112197632	@ 0x6b00000
 800678e:	1b5b      	subs	r3, r3, r5
 8006790:	9311      	str	r3, [sp, #68]	@ 0x44
 8006792:	ed9d 0b0c 	vldr	d0, [sp, #48]	@ 0x30
 8006796:	e9dd ab10 	ldrd	sl, fp, [sp, #64]	@ 0x40
 800679a:	f7ff f8f1 	bl	8005980 <__ulp>
 800679e:	4650      	mov	r0, sl
 80067a0:	ec53 2b10 	vmov	r2, r3, d0
 80067a4:	4659      	mov	r1, fp
 80067a6:	f7f9 ff4f 	bl	8000648 <__aeabi_dmul>
 80067aa:	e9dd 230c 	ldrd	r2, r3, [sp, #48]	@ 0x30
 80067ae:	f7f9 fd95 	bl	80002dc <__adddf3>
 80067b2:	4682      	mov	sl, r0
 80067b4:	468b      	mov	fp, r1
 80067b6:	e770      	b.n	800669a <_strtod_l+0xa62>
 80067b8:	e9cd 6714 	strd	r6, r7, [sp, #80]	@ 0x50
 80067bc:	e7e0      	b.n	8006780 <_strtod_l+0xb48>
 80067be:	a30e      	add	r3, pc, #56	@ (adr r3, 80067f8 <_strtod_l+0xbc0>)
 80067c0:	e9d3 2300 	ldrd	r2, r3, [r3]
 80067c4:	f7fa f9b2 	bl	8000b2c <__aeabi_dcmplt>
 80067c8:	e798      	b.n	80066fc <_strtod_l+0xac4>
 80067ca:	2300      	movs	r3, #0
 80067cc:	930e      	str	r3, [sp, #56]	@ 0x38
 80067ce:	9a17      	ldr	r2, [sp, #92]	@ 0x5c
 80067d0:	9b19      	ldr	r3, [sp, #100]	@ 0x64
 80067d2:	6013      	str	r3, [r2, #0]
 80067d4:	f7ff ba6d 	b.w	8005cb2 <_strtod_l+0x7a>
 80067d8:	2a65      	cmp	r2, #101	@ 0x65
 80067da:	f43f ab68 	beq.w	8005eae <_strtod_l+0x276>
 80067de:	2a45      	cmp	r2, #69	@ 0x45
 80067e0:	f43f ab65 	beq.w	8005eae <_strtod_l+0x276>
 80067e4:	2301      	movs	r3, #1
 80067e6:	f7ff bba0 	b.w	8005f2a <_strtod_l+0x2f2>
 80067ea:	bf00      	nop
 80067ec:	f3af 8000 	nop.w
 80067f0:	ffc00000 	.word	0xffc00000
 80067f4:	41dfffff 	.word	0x41dfffff
 80067f8:	94a03595 	.word	0x94a03595
 80067fc:	3fcfffff 	.word	0x3fcfffff

08006800 <_strtod_r>:
 8006800:	4b01      	ldr	r3, [pc, #4]	@ (8006808 <_strtod_r+0x8>)
 8006802:	f7ff ba19 	b.w	8005c38 <_strtod_l>
 8006806:	bf00      	nop
 8006808:	20000068 	.word	0x20000068

0800680c <_strtol_l.isra.0>:
 800680c:	2b24      	cmp	r3, #36	@ 0x24
 800680e:	e92d 47f0 	stmdb	sp!, {r4, r5, r6, r7, r8, r9, sl, lr}
 8006812:	4686      	mov	lr, r0
 8006814:	4690      	mov	r8, r2
 8006816:	d801      	bhi.n	800681c <_strtol_l.isra.0+0x10>
 8006818:	2b01      	cmp	r3, #1
 800681a:	d106      	bne.n	800682a <_strtol_l.isra.0+0x1e>
 800681c:	f7fd fdb8 	bl	8004390 <__errno>
 8006820:	2316      	movs	r3, #22
 8006822:	6003      	str	r3, [r0, #0]
 8006824:	2000      	movs	r0, #0
 8006826:	e8bd 87f0 	ldmia.w	sp!, {r4, r5, r6, r7, r8, r9, sl, pc}
 800682a:	4834      	ldr	r0, [pc, #208]	@ (80068fc <_strtol_l.isra.0+0xf0>)
 800682c:	460d      	mov	r5, r1
 800682e:	462a      	mov	r2, r5
 8006830:	f815 4b01 	ldrb.w	r4, [r5], #1
 8006834:	5d06      	ldrb	r6, [r0, r4]
 8006836:	f016 0608 	ands.w	r6, r6, #8
 800683a:	d1f8      	bne.n	800682e <_strtol_l.isra.0+0x22>
 800683c:	2c2d      	cmp	r4, #45	@ 0x2d
 800683e:	d110      	bne.n	8006862 <_strtol_l.isra.0+0x56>
 8006840:	782c      	ldrb	r4, [r5, #0]
 8006842:	2601      	movs	r6, #1
 8006844:	1c95      	adds	r5, r2, #2
 8006846:	f033 0210 	bics.w	r2, r3, #16
 800684a:	d115      	bne.n	8006878 <_strtol_l.isra.0+0x6c>
 800684c:	2c30      	cmp	r4, #48	@ 0x30
 800684e:	d10d      	bne.n	800686c <_strtol_l.isra.0+0x60>
 8006850:	782a      	ldrb	r2, [r5, #0]
 8006852:	f002 02df 	and.w	r2, r2, #223	@ 0xdf
 8006856:	2a58      	cmp	r2, #88	@ 0x58
 8006858:	d108      	bne.n	800686c <_strtol_l.isra.0+0x60>
 800685a:	786c      	ldrb	r4, [r5, #1]
 800685c:	3502      	adds	r5, #2
 800685e:	2310      	movs	r3, #16
 8006860:	e00a      	b.n	8006878 <_strtol_l.isra.0+0x6c>
 8006862:	2c2b      	cmp	r4, #43	@ 0x2b
 8006864:	bf04      	itt	eq
 8006866:	782c      	ldrbeq	r4, [r5, #0]
 8006868:	1c95      	addeq	r5, r2, #2
 800686a:	e7ec      	b.n	8006846 <_strtol_l.isra.0+0x3a>
 800686c:	2b00      	cmp	r3, #0
 800686e:	d1f6      	bne.n	800685e <_strtol_l.isra.0+0x52>
 8006870:	2c30      	cmp	r4, #48	@ 0x30
 8006872:	bf14      	ite	ne
 8006874:	230a      	movne	r3, #10
 8006876:	2308      	moveq	r3, #8
 8006878:	f106 4c00 	add.w	ip, r6, #2147483648	@ 0x80000000
 800687c:	f10c 3cff 	add.w	ip, ip, #4294967295
 8006880:	2200      	movs	r2, #0
 8006882:	fbbc f9f3 	udiv	r9, ip, r3
 8006886:	4610      	mov	r0, r2
 8006888:	fb03 ca19 	mls	sl, r3, r9, ip
 800688c:	f1a4 0730 	sub.w	r7, r4, #48	@ 0x30
 8006890:	2f09      	cmp	r7, #9
 8006892:	d80f      	bhi.n	80068b4 <_strtol_l.isra.0+0xa8>
 8006894:	463c      	mov	r4, r7
 8006896:	42a3      	cmp	r3, r4
 8006898:	dd1b      	ble.n	80068d2 <_strtol_l.isra.0+0xc6>
 800689a:	1c57      	adds	r7, r2, #1
 800689c:	d007      	beq.n	80068ae <_strtol_l.isra.0+0xa2>
 800689e:	4581      	cmp	r9, r0
 80068a0:	d314      	bcc.n	80068cc <_strtol_l.isra.0+0xc0>
 80068a2:	d101      	bne.n	80068a8 <_strtol_l.isra.0+0x9c>
 80068a4:	45a2      	cmp	sl, r4
 80068a6:	db11      	blt.n	80068cc <_strtol_l.isra.0+0xc0>
 80068a8:	fb00 4003 	mla	r0, r0, r3, r4
 80068ac:	2201      	movs	r2, #1
 80068ae:	f815 4b01 	ldrb.w	r4, [r5], #1
 80068b2:	e7eb      	b.n	800688c <_strtol_l.isra.0+0x80>
 80068b4:	f1a4 0741 	sub.w	r7, r4, #65	@ 0x41
 80068b8:	2f19      	cmp	r7, #25
 80068ba:	d801      	bhi.n	80068c0 <_strtol_l.isra.0+0xb4>
 80068bc:	3c37      	subs	r4, #55	@ 0x37
 80068be:	e7ea      	b.n	8006896 <_strtol_l.isra.0+0x8a>
 80068c0:	f1a4 0761 	sub.w	r7, r4, #97	@ 0x61
 80068c4:	2f19      	cmp	r7, #25
 80068c6:	d804      	bhi.n	80068d2 <_strtol_l.isra.0+0xc6>
 80068c8:	3c57      	subs	r4, #87	@ 0x57
 80068ca:	e7e4      	b.n	8006896 <_strtol_l.isra.0+0x8a>
 80068cc:	f04f 32ff 	mov.w	r2, #4294967295
 80068d0:	e7ed      	b.n	80068ae <_strtol_l.isra.0+0xa2>
 80068d2:	1c53      	adds	r3, r2, #1
 80068d4:	d108      	bne.n	80068e8 <_strtol_l.isra.0+0xdc>
 80068d6:	2322      	movs	r3, #34	@ 0x22
 80068d8:	f8ce 3000 	str.w	r3, [lr]
 80068dc:	4660      	mov	r0, ip
 80068de:	f1b8 0f00 	cmp.w	r8, #0
 80068e2:	d0a0      	beq.n	8006826 <_strtol_l.isra.0+0x1a>
 80068e4:	1e69      	subs	r1, r5, #1
 80068e6:	e006      	b.n	80068f6 <_strtol_l.isra.0+0xea>
 80068e8:	b106      	cbz	r6, 80068ec <_strtol_l.isra.0+0xe0>
 80068ea:	4240      	negs	r0, r0
 80068ec:	f1b8 0f00 	cmp.w	r8, #0
 80068f0:	d099      	beq.n	8006826 <_strtol_l.isra.0+0x1a>
 80068f2:	2a00      	cmp	r2, #0
 80068f4:	d1f6      	bne.n	80068e4 <_strtol_l.isra.0+0xd8>
 80068f6:	f8c8 1000 	str.w	r1, [r8]
 80068fa:	e794      	b.n	8006826 <_strtol_l.isra.0+0x1a>
 80068fc:	08007e21 	.word	0x08007e21

08006900 <_strtol_r>:
 8006900:	f7ff bf84 	b.w	800680c <_strtol_l.isra.0>

08006904 <__ssputs_r>:
 8006904:	e92d 47f0 	stmdb	sp!, {r4, r5, r6, r7, r8, r9, sl, lr}
 8006908:	688e      	ldr	r6, [r1, #8]
 800690a:	461f      	mov	r7, r3
 800690c:	42be      	cmp	r6, r7
 800690e:	680b      	ldr	r3, [r1, #0]
 8006910:	4682      	mov	sl, r0
 8006912:	460c      	mov	r4, r1
 8006914:	4690      	mov	r8, r2
 8006916:	d82d      	bhi.n	8006974 <__ssputs_r+0x70>
 8006918:	f9b1 200c 	ldrsh.w	r2, [r1, #12]
 800691c:	f412 6f90 	tst.w	r2, #1152	@ 0x480
 8006920:	d026      	beq.n	8006970 <__ssputs_r+0x6c>
 8006922:	6965      	ldr	r5, [r4, #20]
 8006924:	6909      	ldr	r1, [r1, #16]
 8006926:	eb05 0545 	add.w	r5, r5, r5, lsl #1
 800692a:	eba3 0901 	sub.w	r9, r3, r1
 800692e:	eb05 75d5 	add.w	r5, r5, r5, lsr #31
 8006932:	1c7b      	adds	r3, r7, #1
 8006934:	444b      	add	r3, r9
 8006936:	106d      	asrs	r5, r5, #1
 8006938:	429d      	cmp	r5, r3
 800693a:	bf38      	it	cc
 800693c:	461d      	movcc	r5, r3
 800693e:	0553      	lsls	r3, r2, #21
 8006940:	d527      	bpl.n	8006992 <__ssputs_r+0x8e>
 8006942:	4629      	mov	r1, r5
 8006944:	f7fe fc24 	bl	8005190 <_malloc_r>
 8006948:	4606      	mov	r6, r0
 800694a:	b360      	cbz	r0, 80069a6 <__ssputs_r+0xa2>
 800694c:	6921      	ldr	r1, [r4, #16]
 800694e:	464a      	mov	r2, r9
 8006950:	f000 fa18 	bl	8006d84 <memcpy>
 8006954:	89a3      	ldrh	r3, [r4, #12]
 8006956:	f423 6390 	bic.w	r3, r3, #1152	@ 0x480
 800695a:	f043 0380 	orr.w	r3, r3, #128	@ 0x80
 800695e:	81a3      	strh	r3, [r4, #12]
 8006960:	6126      	str	r6, [r4, #16]
 8006962:	6165      	str	r5, [r4, #20]
 8006964:	444e      	add	r6, r9
 8006966:	eba5 0509 	sub.w	r5, r5, r9
 800696a:	6026      	str	r6, [r4, #0]
 800696c:	60a5      	str	r5, [r4, #8]
 800696e:	463e      	mov	r6, r7
 8006970:	42be      	cmp	r6, r7
 8006972:	d900      	bls.n	8006976 <__ssputs_r+0x72>
 8006974:	463e      	mov	r6, r7
 8006976:	6820      	ldr	r0, [r4, #0]
 8006978:	4632      	mov	r2, r6
 800697a:	4641      	mov	r1, r8
 800697c:	f000 f9c6 	bl	8006d0c <memmove>
 8006980:	68a3      	ldr	r3, [r4, #8]
 8006982:	1b9b      	subs	r3, r3, r6
 8006984:	60a3      	str	r3, [r4, #8]
 8006986:	6823      	ldr	r3, [r4, #0]
 8006988:	4433      	add	r3, r6
 800698a:	6023      	str	r3, [r4, #0]
 800698c:	2000      	movs	r0, #0
 800698e:	e8bd 87f0 	ldmia.w	sp!, {r4, r5, r6, r7, r8, r9, sl, pc}
 8006992:	462a      	mov	r2, r5
 8006994:	f000 fd89 	bl	80074aa <_realloc_r>
 8006998:	4606      	mov	r6, r0
 800699a:	2800      	cmp	r0, #0
 800699c:	d1e0      	bne.n	8006960 <__ssputs_r+0x5c>
 800699e:	6921      	ldr	r1, [r4, #16]
 80069a0:	4650      	mov	r0, sl
 80069a2:	f7fe fb81 	bl	80050a8 <_free_r>
 80069a6:	230c      	movs	r3, #12
 80069a8:	f8ca 3000 	str.w	r3, [sl]
 80069ac:	89a3      	ldrh	r3, [r4, #12]
 80069ae:	f043 0340 	orr.w	r3, r3, #64	@ 0x40
 80069b2:	81a3      	strh	r3, [r4, #12]
 80069b4:	f04f 30ff 	mov.w	r0, #4294967295
 80069b8:	e7e9      	b.n	800698e <__ssputs_r+0x8a>
	...

080069bc <_svfiprintf_r>:
 80069bc:	e92d 4ff0 	stmdb	sp!, {r4, r5, r6, r7, r8, r9, sl, fp, lr}
 80069c0:	4698      	mov	r8, r3
 80069c2:	898b      	ldrh	r3, [r1, #12]
 80069c4:	061b      	lsls	r3, r3, #24
 80069c6:	b09d      	sub	sp, #116	@ 0x74
 80069c8:	4607      	mov	r7, r0
 80069ca:	460d      	mov	r5, r1
 80069cc:	4614      	mov	r4, r2
 80069ce:	d510      	bpl.n	80069f2 <_svfiprintf_r+0x36>
 80069d0:	690b      	ldr	r3, [r1, #16]
 80069d2:	b973      	cbnz	r3, 80069f2 <_svfiprintf_r+0x36>
 80069d4:	2140      	movs	r1, #64	@ 0x40
 80069d6:	f7fe fbdb 	bl	8005190 <_malloc_r>
 80069da:	6028      	str	r0, [r5, #0]
 80069dc:	6128      	str	r0, [r5, #16]
 80069de:	b930      	cbnz	r0, 80069ee <_svfiprintf_r+0x32>
 80069e0:	230c      	movs	r3, #12
 80069e2:	603b      	str	r3, [r7, #0]
 80069e4:	f04f 30ff 	mov.w	r0, #4294967295
 80069e8:	b01d      	add	sp, #116	@ 0x74
 80069ea:	e8bd 8ff0 	ldmia.w	sp!, {r4, r5, r6, r7, r8, r9, sl, fp, pc}
 80069ee:	2340      	movs	r3, #64	@ 0x40
 80069f0:	616b      	str	r3, [r5, #20]
 80069f2:	2300      	movs	r3, #0
 80069f4:	9309      	str	r3, [sp, #36]	@ 0x24
 80069f6:	2320      	movs	r3, #32
 80069f8:	f88d 3029 	strb.w	r3, [sp, #41]	@ 0x29
 80069fc:	f8cd 800c 	str.w	r8, [sp, #12]
 8006a00:	2330      	movs	r3, #48	@ 0x30
 8006a02:	f8df 819c 	ldr.w	r8, [pc, #412]	@ 8006ba0 <_svfiprintf_r+0x1e4>
 8006a06:	f88d 302a 	strb.w	r3, [sp, #42]	@ 0x2a
 8006a0a:	f04f 0901 	mov.w	r9, #1
 8006a0e:	4623      	mov	r3, r4
 8006a10:	469a      	mov	sl, r3
 8006a12:	f813 2b01 	ldrb.w	r2, [r3], #1
 8006a16:	b10a      	cbz	r2, 8006a1c <_svfiprintf_r+0x60>
 8006a18:	2a25      	cmp	r2, #37	@ 0x25
 8006a1a:	d1f9      	bne.n	8006a10 <_svfiprintf_r+0x54>
 8006a1c:	ebba 0b04 	subs.w	fp, sl, r4
 8006a20:	d00b      	beq.n	8006a3a <_svfiprintf_r+0x7e>
 8006a22:	465b      	mov	r3, fp
 8006a24:	4622      	mov	r2, r4
 8006a26:	4629      	mov	r1, r5
 8006a28:	4638      	mov	r0, r7
 8006a2a:	f7ff ff6b 	bl	8006904 <__ssputs_r>
 8006a2e:	3001      	adds	r0, #1
 8006a30:	f000 80a7 	beq.w	8006b82 <_svfiprintf_r+0x1c6>
 8006a34:	9a09      	ldr	r2, [sp, #36]	@ 0x24
 8006a36:	445a      	add	r2, fp
 8006a38:	9209      	str	r2, [sp, #36]	@ 0x24
 8006a3a:	f89a 3000 	ldrb.w	r3, [sl]
 8006a3e:	2b00      	cmp	r3, #0
 8006a40:	f000 809f 	beq.w	8006b82 <_svfiprintf_r+0x1c6>
 8006a44:	2300      	movs	r3, #0
 8006a46:	f04f 32ff 	mov.w	r2, #4294967295
 8006a4a:	e9cd 2305 	strd	r2, r3, [sp, #20]
 8006a4e:	f10a 0a01 	add.w	sl, sl, #1
 8006a52:	9304      	str	r3, [sp, #16]
 8006a54:	9307      	str	r3, [sp, #28]
 8006a56:	f88d 3053 	strb.w	r3, [sp, #83]	@ 0x53
 8006a5a:	931a      	str	r3, [sp, #104]	@ 0x68
 8006a5c:	4654      	mov	r4, sl
 8006a5e:	2205      	movs	r2, #5
 8006a60:	f814 1b01 	ldrb.w	r1, [r4], #1
 8006a64:	484e      	ldr	r0, [pc, #312]	@ (8006ba0 <_svfiprintf_r+0x1e4>)
 8006a66:	f7f9 fbdb 	bl	8000220 <memchr>
 8006a6a:	9a04      	ldr	r2, [sp, #16]
 8006a6c:	b9d8      	cbnz	r0, 8006aa6 <_svfiprintf_r+0xea>
 8006a6e:	06d0      	lsls	r0, r2, #27
 8006a70:	bf44      	itt	mi
 8006a72:	2320      	movmi	r3, #32
 8006a74:	f88d 3053 	strbmi.w	r3, [sp, #83]	@ 0x53
 8006a78:	0711      	lsls	r1, r2, #28
 8006a7a:	bf44      	itt	mi
 8006a7c:	232b      	movmi	r3, #43	@ 0x2b
 8006a7e:	f88d 3053 	strbmi.w	r3, [sp, #83]	@ 0x53
 8006a82:	f89a 3000 	ldrb.w	r3, [sl]
 8006a86:	2b2a      	cmp	r3, #42	@ 0x2a
 8006a88:	d015      	beq.n	8006ab6 <_svfiprintf_r+0xfa>
 8006a8a:	9a07      	ldr	r2, [sp, #28]
 8006a8c:	4654      	mov	r4, sl
 8006a8e:	2000      	movs	r0, #0
 8006a90:	f04f 0c0a 	mov.w	ip, #10
 8006a94:	4621      	mov	r1, r4
 8006a96:	f811 3b01 	ldrb.w	r3, [r1], #1
 8006a9a:	3b30      	subs	r3, #48	@ 0x30
 8006a9c:	2b09      	cmp	r3, #9
 8006a9e:	d94b      	bls.n	8006b38 <_svfiprintf_r+0x17c>
 8006aa0:	b1b0      	cbz	r0, 8006ad0 <_svfiprintf_r+0x114>
 8006aa2:	9207      	str	r2, [sp, #28]
 8006aa4:	e014      	b.n	8006ad0 <_svfiprintf_r+0x114>
 8006aa6:	eba0 0308 	sub.w	r3, r0, r8
 8006aaa:	fa09 f303 	lsl.w	r3, r9, r3
 8006aae:	4313      	orrs	r3, r2
 8006ab0:	9304      	str	r3, [sp, #16]
 8006ab2:	46a2      	mov	sl, r4
 8006ab4:	e7d2      	b.n	8006a5c <_svfiprintf_r+0xa0>
 8006ab6:	9b03      	ldr	r3, [sp, #12]
 8006ab8:	1d19      	adds	r1, r3, #4
 8006aba:	681b      	ldr	r3, [r3, #0]
 8006abc:	9103      	str	r1, [sp, #12]
 8006abe:	2b00      	cmp	r3, #0
 8006ac0:	bfbb      	ittet	lt
 8006ac2:	425b      	neglt	r3, r3
 8006ac4:	f042 0202 	orrlt.w	r2, r2, #2
 8006ac8:	9307      	strge	r3, [sp, #28]
 8006aca:	9307      	strlt	r3, [sp, #28]
 8006acc:	bfb8      	it	lt
 8006ace:	9204      	strlt	r2, [sp, #16]
 8006ad0:	7823      	ldrb	r3, [r4, #0]
 8006ad2:	2b2e      	cmp	r3, #46	@ 0x2e
 8006ad4:	d10a      	bne.n	8006aec <_svfiprintf_r+0x130>
 8006ad6:	7863      	ldrb	r3, [r4, #1]
 8006ad8:	2b2a      	cmp	r3, #42	@ 0x2a
 8006ada:	d132      	bne.n	8006b42 <_svfiprintf_r+0x186>
 8006adc:	9b03      	ldr	r3, [sp, #12]
 8006ade:	1d1a      	adds	r2, r3, #4
 8006ae0:	681b      	ldr	r3, [r3, #0]
 8006ae2:	9203      	str	r2, [sp, #12]
 8006ae4:	ea43 73e3 	orr.w	r3, r3, r3, asr #31
 8006ae8:	3402      	adds	r4, #2
 8006aea:	9305      	str	r3, [sp, #20]
 8006aec:	f8df a0c0 	ldr.w	sl, [pc, #192]	@ 8006bb0 <_svfiprintf_r+0x1f4>
 8006af0:	7821      	ldrb	r1, [r4, #0]
 8006af2:	2203      	movs	r2, #3
 8006af4:	4650      	mov	r0, sl
 8006af6:	f7f9 fb93 	bl	8000220 <memchr>
 8006afa:	b138      	cbz	r0, 8006b0c <_svfiprintf_r+0x150>
 8006afc:	9b04      	ldr	r3, [sp, #16]
 8006afe:	eba0 000a 	sub.w	r0, r0, sl
 8006b02:	2240      	movs	r2, #64	@ 0x40
 8006b04:	4082      	lsls	r2, r0
 8006b06:	4313      	orrs	r3, r2
 8006b08:	3401      	adds	r4, #1
 8006b0a:	9304      	str	r3, [sp, #16]
 8006b0c:	f814 1b01 	ldrb.w	r1, [r4], #1
 8006b10:	4824      	ldr	r0, [pc, #144]	@ (8006ba4 <_svfiprintf_r+0x1e8>)
 8006b12:	f88d 1028 	strb.w	r1, [sp, #40]	@ 0x28
 8006b16:	2206      	movs	r2, #6
 8006b18:	f7f9 fb82 	bl	8000220 <memchr>
 8006b1c:	2800      	cmp	r0, #0
 8006b1e:	d036      	beq.n	8006b8e <_svfiprintf_r+0x1d2>
 8006b20:	4b21      	ldr	r3, [pc, #132]	@ (8006ba8 <_svfiprintf_r+0x1ec>)
 8006b22:	bb1b      	cbnz	r3, 8006b6c <_svfiprintf_r+0x1b0>
 8006b24:	9b03      	ldr	r3, [sp, #12]
 8006b26:	3307      	adds	r3, #7
 8006b28:	f023 0307 	bic.w	r3, r3, #7
 8006b2c:	3308      	adds	r3, #8
 8006b2e:	9303      	str	r3, [sp, #12]
 8006b30:	9b09      	ldr	r3, [sp, #36]	@ 0x24
 8006b32:	4433      	add	r3, r6
 8006b34:	9309      	str	r3, [sp, #36]	@ 0x24
 8006b36:	e76a      	b.n	8006a0e <_svfiprintf_r+0x52>
 8006b38:	fb0c 3202 	mla	r2, ip, r2, r3
 8006b3c:	460c      	mov	r4, r1
 8006b3e:	2001      	movs	r0, #1
 8006b40:	e7a8      	b.n	8006a94 <_svfiprintf_r+0xd8>
 8006b42:	2300      	movs	r3, #0
 8006b44:	3401      	adds	r4, #1
 8006b46:	9305      	str	r3, [sp, #20]
 8006b48:	4619      	mov	r1, r3
 8006b4a:	f04f 0c0a 	mov.w	ip, #10
 8006b4e:	4620      	mov	r0, r4
 8006b50:	f810 2b01 	ldrb.w	r2, [r0], #1
 8006b54:	3a30      	subs	r2, #48	@ 0x30
 8006b56:	2a09      	cmp	r2, #9
 8006b58:	d903      	bls.n	8006b62 <_svfiprintf_r+0x1a6>
 8006b5a:	2b00      	cmp	r3, #0
 8006b5c:	d0c6      	beq.n	8006aec <_svfiprintf_r+0x130>
 8006b5e:	9105      	str	r1, [sp, #20]
 8006b60:	e7c4      	b.n	8006aec <_svfiprintf_r+0x130>
 8006b62:	fb0c 2101 	mla	r1, ip, r1, r2
 8006b66:	4604      	mov	r4, r0
 8006b68:	2301      	movs	r3, #1
 8006b6a:	e7f0      	b.n	8006b4e <_svfiprintf_r+0x192>
 8006b6c:	ab03      	add	r3, sp, #12
 8006b6e:	9300      	str	r3, [sp, #0]
 8006b70:	462a      	mov	r2, r5
 8006b72:	4b0e      	ldr	r3, [pc, #56]	@ (8006bac <_svfiprintf_r+0x1f0>)
 8006b74:	a904      	add	r1, sp, #16
 8006b76:	4638      	mov	r0, r7
 8006b78:	f7fc fccc 	bl	8003514 <_printf_float>
 8006b7c:	1c42      	adds	r2, r0, #1
 8006b7e:	4606      	mov	r6, r0
 8006b80:	d1d6      	bne.n	8006b30 <_svfiprintf_r+0x174>
 8006b82:	89ab      	ldrh	r3, [r5, #12]
 8006b84:	065b      	lsls	r3, r3, #25
 8006b86:	f53f af2d 	bmi.w	80069e4 <_svfiprintf_r+0x28>
 8006b8a:	9809      	ldr	r0, [sp, #36]	@ 0x24
 8006b8c:	e72c      	b.n	80069e8 <_svfiprintf_r+0x2c>
 8006b8e:	ab03      	add	r3, sp, #12
 8006b90:	9300      	str	r3, [sp, #0]
 8006b92:	462a      	mov	r2, r5
 8006b94:	4b05      	ldr	r3, [pc, #20]	@ (8006bac <_svfiprintf_r+0x1f0>)
 8006b96:	a904      	add	r1, sp, #16
 8006b98:	4638      	mov	r0, r7
 8006b9a:	f7fc ff53 	bl	8003a44 <_printf_i>
 8006b9e:	e7ed      	b.n	8006b7c <_svfiprintf_r+0x1c0>
 8006ba0:	08007c19 	.word	0x08007c19
 8006ba4:	08007c23 	.word	0x08007c23
 8006ba8:	08003515 	.word	0x08003515
 8006bac:	08006905 	.word	0x08006905
 8006bb0:	08007c1f 	.word	0x08007c1f

08006bb4 <__sflush_r>:
 8006bb4:	f9b1 200c 	ldrsh.w	r2, [r1, #12]
 8006bb8:	e92d 41f0 	stmdb	sp!, {r4, r5, r6, r7, r8, lr}
 8006bbc:	0716      	lsls	r6, r2, #28
 8006bbe:	4605      	mov	r5, r0
 8006bc0:	460c      	mov	r4, r1
 8006bc2:	d454      	bmi.n	8006c6e <__sflush_r+0xba>
 8006bc4:	684b      	ldr	r3, [r1, #4]
 8006bc6:	2b00      	cmp	r3, #0
 8006bc8:	dc02      	bgt.n	8006bd0 <__sflush_r+0x1c>
 8006bca:	6c0b      	ldr	r3, [r1, #64]	@ 0x40
 8006bcc:	2b00      	cmp	r3, #0
 8006bce:	dd48      	ble.n	8006c62 <__sflush_r+0xae>
 8006bd0:	6ae6      	ldr	r6, [r4, #44]	@ 0x2c
 8006bd2:	2e00      	cmp	r6, #0
 8006bd4:	d045      	beq.n	8006c62 <__sflush_r+0xae>
 8006bd6:	2300      	movs	r3, #0
 8006bd8:	f412 5280 	ands.w	r2, r2, #4096	@ 0x1000
 8006bdc:	682f      	ldr	r7, [r5, #0]
 8006bde:	6a21      	ldr	r1, [r4, #32]
 8006be0:	602b      	str	r3, [r5, #0]
 8006be2:	d030      	beq.n	8006c46 <__sflush_r+0x92>
 8006be4:	6d62      	ldr	r2, [r4, #84]	@ 0x54
 8006be6:	89a3      	ldrh	r3, [r4, #12]
 8006be8:	0759      	lsls	r1, r3, #29
 8006bea:	d505      	bpl.n	8006bf8 <__sflush_r+0x44>
 8006bec:	6863      	ldr	r3, [r4, #4]
 8006bee:	1ad2      	subs	r2, r2, r3
 8006bf0:	6b63      	ldr	r3, [r4, #52]	@ 0x34
 8006bf2:	b10b      	cbz	r3, 8006bf8 <__sflush_r+0x44>
 8006bf4:	6c23      	ldr	r3, [r4, #64]	@ 0x40
 8006bf6:	1ad2      	subs	r2, r2, r3
 8006bf8:	2300      	movs	r3, #0
 8006bfa:	6ae6      	ldr	r6, [r4, #44]	@ 0x2c
 8006bfc:	6a21      	ldr	r1, [r4, #32]
 8006bfe:	4628      	mov	r0, r5
 8006c00:	47b0      	blx	r6
 8006c02:	1c43      	adds	r3, r0, #1
 8006c04:	89a3      	ldrh	r3, [r4, #12]
 8006c06:	d106      	bne.n	8006c16 <__sflush_r+0x62>
 8006c08:	6829      	ldr	r1, [r5, #0]
 8006c0a:	291d      	cmp	r1, #29
 8006c0c:	d82b      	bhi.n	8006c66 <__sflush_r+0xb2>
 8006c0e:	4a2a      	ldr	r2, [pc, #168]	@ (8006cb8 <__sflush_r+0x104>)
 8006c10:	40ca      	lsrs	r2, r1
 8006c12:	07d6      	lsls	r6, r2, #31
 8006c14:	d527      	bpl.n	8006c66 <__sflush_r+0xb2>
 8006c16:	2200      	movs	r2, #0
 8006c18:	6062      	str	r2, [r4, #4]
 8006c1a:	04d9      	lsls	r1, r3, #19
 8006c1c:	6922      	ldr	r2, [r4, #16]
 8006c1e:	6022      	str	r2, [r4, #0]
 8006c20:	d504      	bpl.n	8006c2c <__sflush_r+0x78>
 8006c22:	1c42      	adds	r2, r0, #1
 8006c24:	d101      	bne.n	8006c2a <__sflush_r+0x76>
 8006c26:	682b      	ldr	r3, [r5, #0]
 8006c28:	b903      	cbnz	r3, 8006c2c <__sflush_r+0x78>
 8006c2a:	6560      	str	r0, [r4, #84]	@ 0x54
 8006c2c:	6b61      	ldr	r1, [r4, #52]	@ 0x34
 8006c2e:	602f      	str	r7, [r5, #0]
 8006c30:	b1b9      	cbz	r1, 8006c62 <__sflush_r+0xae>
 8006c32:	f104 0344 	add.w	r3, r4, #68	@ 0x44
 8006c36:	4299      	cmp	r1, r3
 8006c38:	d002      	beq.n	8006c40 <__sflush_r+0x8c>
 8006c3a:	4628      	mov	r0, r5
 8006c3c:	f7fe fa34 	bl	80050a8 <_free_r>
 8006c40:	2300      	movs	r3, #0
 8006c42:	6363      	str	r3, [r4, #52]	@ 0x34
 8006c44:	e00d      	b.n	8006c62 <__sflush_r+0xae>
 8006c46:	2301      	movs	r3, #1
 8006c48:	4628      	mov	r0, r5
 8006c4a:	47b0      	blx	r6
 8006c4c:	4602      	mov	r2, r0
 8006c4e:	1c50      	adds	r0, r2, #1
 8006c50:	d1c9      	bne.n	8006be6 <__sflush_r+0x32>
 8006c52:	682b      	ldr	r3, [r5, #0]
 8006c54:	2b00      	cmp	r3, #0
 8006c56:	d0c6      	beq.n	8006be6 <__sflush_r+0x32>
 8006c58:	2b1d      	cmp	r3, #29
 8006c5a:	d001      	beq.n	8006c60 <__sflush_r+0xac>
 8006c5c:	2b16      	cmp	r3, #22
 8006c5e:	d11e      	bne.n	8006c9e <__sflush_r+0xea>
 8006c60:	602f      	str	r7, [r5, #0]
 8006c62:	2000      	movs	r0, #0
 8006c64:	e022      	b.n	8006cac <__sflush_r+0xf8>
 8006c66:	f043 0340 	orr.w	r3, r3, #64	@ 0x40
 8006c6a:	b21b      	sxth	r3, r3
 8006c6c:	e01b      	b.n	8006ca6 <__sflush_r+0xf2>
 8006c6e:	690f      	ldr	r7, [r1, #16]
 8006c70:	2f00      	cmp	r7, #0
 8006c72:	d0f6      	beq.n	8006c62 <__sflush_r+0xae>
 8006c74:	0793      	lsls	r3, r2, #30
 8006c76:	680e      	ldr	r6, [r1, #0]
 8006c78:	bf08      	it	eq
 8006c7a:	694b      	ldreq	r3, [r1, #20]
 8006c7c:	600f      	str	r7, [r1, #0]
 8006c7e:	bf18      	it	ne
 8006c80:	2300      	movne	r3, #0
 8006c82:	eba6 0807 	sub.w	r8, r6, r7
 8006c86:	608b      	str	r3, [r1, #8]
 8006c88:	f1b8 0f00 	cmp.w	r8, #0
 8006c8c:	dde9      	ble.n	8006c62 <__sflush_r+0xae>
 8006c8e:	6a21      	ldr	r1, [r4, #32]
 8006c90:	6aa6      	ldr	r6, [r4, #40]	@ 0x28
 8006c92:	4643      	mov	r3, r8
 8006c94:	463a      	mov	r2, r7
 8006c96:	4628      	mov	r0, r5
 8006c98:	47b0      	blx	r6
 8006c9a:	2800      	cmp	r0, #0
 8006c9c:	dc08      	bgt.n	8006cb0 <__sflush_r+0xfc>
 8006c9e:	f9b4 300c 	ldrsh.w	r3, [r4, #12]
 8006ca2:	f043 0340 	orr.w	r3, r3, #64	@ 0x40
 8006ca6:	81a3      	strh	r3, [r4, #12]
 8006ca8:	f04f 30ff 	mov.w	r0, #4294967295
 8006cac:	e8bd 81f0 	ldmia.w	sp!, {r4, r5, r6, r7, r8, pc}
 8006cb0:	4407      	add	r7, r0
 8006cb2:	eba8 0800 	sub.w	r8, r8, r0
 8006cb6:	e7e7      	b.n	8006c88 <__sflush_r+0xd4>
 8006cb8:	20400001 	.word	0x20400001

08006cbc <_fflush_r>:
 8006cbc:	b538      	push	{r3, r4, r5, lr}
 8006cbe:	690b      	ldr	r3, [r1, #16]
 8006cc0:	4605      	mov	r5, r0
 8006cc2:	460c      	mov	r4, r1
 8006cc4:	b913      	cbnz	r3, 8006ccc <_fflush_r+0x10>
 8006cc6:	2500      	movs	r5, #0
 8006cc8:	4628      	mov	r0, r5
 8006cca:	bd38      	pop	{r3, r4, r5, pc}
 8006ccc:	b118      	cbz	r0, 8006cd6 <_fflush_r+0x1a>
 8006cce:	6a03      	ldr	r3, [r0, #32]
 8006cd0:	b90b      	cbnz	r3, 8006cd6 <_fflush_r+0x1a>
 8006cd2:	f7fd fa6f 	bl	80041b4 <__sinit>
 8006cd6:	f9b4 300c 	ldrsh.w	r3, [r4, #12]
 8006cda:	2b00      	cmp	r3, #0
 8006cdc:	d0f3      	beq.n	8006cc6 <_fflush_r+0xa>
 8006cde:	6e62      	ldr	r2, [r4, #100]	@ 0x64
 8006ce0:	07d0      	lsls	r0, r2, #31
 8006ce2:	d404      	bmi.n	8006cee <_fflush_r+0x32>
 8006ce4:	0599      	lsls	r1, r3, #22
 8006ce6:	d402      	bmi.n	8006cee <_fflush_r+0x32>
 8006ce8:	6da0      	ldr	r0, [r4, #88]	@ 0x58
 8006cea:	f7fd fb7c 	bl	80043e6 <__retarget_lock_acquire_recursive>
 8006cee:	4628      	mov	r0, r5
 8006cf0:	4621      	mov	r1, r4
 8006cf2:	f7ff ff5f 	bl	8006bb4 <__sflush_r>
 8006cf6:	6e63      	ldr	r3, [r4, #100]	@ 0x64
 8006cf8:	07da      	lsls	r2, r3, #31
 8006cfa:	4605      	mov	r5, r0
 8006cfc:	d4e4      	bmi.n	8006cc8 <_fflush_r+0xc>
 8006cfe:	89a3      	ldrh	r3, [r4, #12]
 8006d00:	059b      	lsls	r3, r3, #22
 8006d02:	d4e1      	bmi.n	8006cc8 <_fflush_r+0xc>
 8006d04:	6da0      	ldr	r0, [r4, #88]	@ 0x58
 8006d06:	f7fd fb6f 	bl	80043e8 <__retarget_lock_release_recursive>
 8006d0a:	e7dd      	b.n	8006cc8 <_fflush_r+0xc>

08006d0c <memmove>:
 8006d0c:	4288      	cmp	r0, r1
 8006d0e:	b510      	push	{r4, lr}
 8006d10:	eb01 0402 	add.w	r4, r1, r2
 8006d14:	d902      	bls.n	8006d1c <memmove+0x10>
 8006d16:	4284      	cmp	r4, r0
 8006d18:	4623      	mov	r3, r4
 8006d1a:	d807      	bhi.n	8006d2c <memmove+0x20>
 8006d1c:	1e43      	subs	r3, r0, #1
 8006d1e:	42a1      	cmp	r1, r4
 8006d20:	d008      	beq.n	8006d34 <memmove+0x28>
 8006d22:	f811 2b01 	ldrb.w	r2, [r1], #1
 8006d26:	f803 2f01 	strb.w	r2, [r3, #1]!
 8006d2a:	e7f8      	b.n	8006d1e <memmove+0x12>
 8006d2c:	4402      	add	r2, r0
 8006d2e:	4601      	mov	r1, r0
 8006d30:	428a      	cmp	r2, r1
 8006d32:	d100      	bne.n	8006d36 <memmove+0x2a>
 8006d34:	bd10      	pop	{r4, pc}
 8006d36:	f813 4d01 	ldrb.w	r4, [r3, #-1]!
 8006d3a:	f802 4d01 	strb.w	r4, [r2, #-1]!
 8006d3e:	e7f7      	b.n	8006d30 <memmove+0x24>

08006d40 <strncmp>:
 8006d40:	b510      	push	{r4, lr}
 8006d42:	b16a      	cbz	r2, 8006d60 <strncmp+0x20>
 8006d44:	3901      	subs	r1, #1
 8006d46:	1884      	adds	r4, r0, r2
 8006d48:	f810 2b01 	ldrb.w	r2, [r0], #1
 8006d4c:	f811 3f01 	ldrb.w	r3, [r1, #1]!
 8006d50:	429a      	cmp	r2, r3
 8006d52:	d103      	bne.n	8006d5c <strncmp+0x1c>
 8006d54:	42a0      	cmp	r0, r4
 8006d56:	d001      	beq.n	8006d5c <strncmp+0x1c>
 8006d58:	2a00      	cmp	r2, #0
 8006d5a:	d1f5      	bne.n	8006d48 <strncmp+0x8>
 8006d5c:	1ad0      	subs	r0, r2, r3
 8006d5e:	bd10      	pop	{r4, pc}
 8006d60:	4610      	mov	r0, r2
 8006d62:	e7fc      	b.n	8006d5e <strncmp+0x1e>

08006d64 <_sbrk_r>:
 8006d64:	b538      	push	{r3, r4, r5, lr}
 8006d66:	4d06      	ldr	r5, [pc, #24]	@ (8006d80 <_sbrk_r+0x1c>)
 8006d68:	2300      	movs	r3, #0
 8006d6a:	4604      	mov	r4, r0
 8006d6c:	4608      	mov	r0, r1
 8006d6e:	602b      	str	r3, [r5, #0]
 8006d70:	f7fa fb8e 	bl	8001490 <_sbrk>
 8006d74:	1c43      	adds	r3, r0, #1
 8006d76:	d102      	bne.n	8006d7e <_sbrk_r+0x1a>
 8006d78:	682b      	ldr	r3, [r5, #0]
 8006d7a:	b103      	cbz	r3, 8006d7e <_sbrk_r+0x1a>
 8006d7c:	6023      	str	r3, [r4, #0]
 8006d7e:	bd38      	pop	{r3, r4, r5, pc}
 8006d80:	20000798 	.word	0x20000798

08006d84 <memcpy>:
 8006d84:	440a      	add	r2, r1
 8006d86:	4291      	cmp	r1, r2
 8006d88:	f100 33ff 	add.w	r3, r0, #4294967295
 8006d8c:	d100      	bne.n	8006d90 <memcpy+0xc>
 8006d8e:	4770      	bx	lr
 8006d90:	b510      	push	{r4, lr}
 8006d92:	f811 4b01 	ldrb.w	r4, [r1], #1
 8006d96:	f803 4f01 	strb.w	r4, [r3, #1]!
 8006d9a:	4291      	cmp	r1, r2
 8006d9c:	d1f9      	bne.n	8006d92 <memcpy+0xe>
 8006d9e:	bd10      	pop	{r4, pc}

08006da0 <nan>:
 8006da0:	ed9f 0b01 	vldr	d0, [pc, #4]	@ 8006da8 <nan+0x8>
 8006da4:	4770      	bx	lr
 8006da6:	bf00      	nop
 8006da8:	00000000 	.word	0x00000000
 8006dac:	7ff80000 	.word	0x7ff80000

08006db0 <__assert_func>:
 8006db0:	b51f      	push	{r0, r1, r2, r3, r4, lr}
 8006db2:	4614      	mov	r4, r2
 8006db4:	461a      	mov	r2, r3
 8006db6:	4b09      	ldr	r3, [pc, #36]	@ (8006ddc <__assert_func+0x2c>)
 8006db8:	681b      	ldr	r3, [r3, #0]
 8006dba:	4605      	mov	r5, r0
 8006dbc:	68d8      	ldr	r0, [r3, #12]
 8006dbe:	b14c      	cbz	r4, 8006dd4 <__assert_func+0x24>
 8006dc0:	4b07      	ldr	r3, [pc, #28]	@ (8006de0 <__assert_func+0x30>)
 8006dc2:	9100      	str	r1, [sp, #0]
 8006dc4:	e9cd 3401 	strd	r3, r4, [sp, #4]
 8006dc8:	4906      	ldr	r1, [pc, #24]	@ (8006de4 <__assert_func+0x34>)
 8006dca:	462b      	mov	r3, r5
 8006dcc:	f000 fba8 	bl	8007520 <fiprintf>
 8006dd0:	f000 fbb8 	bl	8007544 <abort>
 8006dd4:	4b04      	ldr	r3, [pc, #16]	@ (8006de8 <__assert_func+0x38>)
 8006dd6:	461c      	mov	r4, r3
 8006dd8:	e7f3      	b.n	8006dc2 <__assert_func+0x12>
 8006dda:	bf00      	nop
 8006ddc:	20000018 	.word	0x20000018
 8006de0:	08007c32 	.word	0x08007c32
 8006de4:	08007c3f 	.word	0x08007c3f
 8006de8:	08007c6d 	.word	0x08007c6d

08006dec <_calloc_r>:
 8006dec:	b570      	push	{r4, r5, r6, lr}
 8006dee:	fba1 5402 	umull	r5, r4, r1, r2
 8006df2:	b934      	cbnz	r4, 8006e02 <_calloc_r+0x16>
 8006df4:	4629      	mov	r1, r5
 8006df6:	f7fe f9cb 	bl	8005190 <_malloc_r>
 8006dfa:	4606      	mov	r6, r0
 8006dfc:	b928      	cbnz	r0, 8006e0a <_calloc_r+0x1e>
 8006dfe:	4630      	mov	r0, r6
 8006e00:	bd70      	pop	{r4, r5, r6, pc}
 8006e02:	220c      	movs	r2, #12
 8006e04:	6002      	str	r2, [r0, #0]
 8006e06:	2600      	movs	r6, #0
 8006e08:	e7f9      	b.n	8006dfe <_calloc_r+0x12>
 8006e0a:	462a      	mov	r2, r5
 8006e0c:	4621      	mov	r1, r4
 8006e0e:	f7fd fa6c 	bl	80042ea <memset>
 8006e12:	e7f4      	b.n	8006dfe <_calloc_r+0x12>

08006e14 <rshift>:
 8006e14:	6903      	ldr	r3, [r0, #16]
 8006e16:	ebb3 1f61 	cmp.w	r3, r1, asr #5
 8006e1a:	e92d 43f0 	stmdb	sp!, {r4, r5, r6, r7, r8, r9, lr}
 8006e1e:	ea4f 1261 	mov.w	r2, r1, asr #5
 8006e22:	f100 0414 	add.w	r4, r0, #20
 8006e26:	dd45      	ble.n	8006eb4 <rshift+0xa0>
 8006e28:	f011 011f 	ands.w	r1, r1, #31
 8006e2c:	eb04 0683 	add.w	r6, r4, r3, lsl #2
 8006e30:	eb04 0582 	add.w	r5, r4, r2, lsl #2
 8006e34:	d10c      	bne.n	8006e50 <rshift+0x3c>
 8006e36:	f100 0710 	add.w	r7, r0, #16
 8006e3a:	4629      	mov	r1, r5
 8006e3c:	42b1      	cmp	r1, r6
 8006e3e:	d334      	bcc.n	8006eaa <rshift+0x96>
 8006e40:	1a9b      	subs	r3, r3, r2
 8006e42:	009b      	lsls	r3, r3, #2
 8006e44:	1eea      	subs	r2, r5, #3
 8006e46:	4296      	cmp	r6, r2
 8006e48:	bf38      	it	cc
 8006e4a:	2300      	movcc	r3, #0
 8006e4c:	4423      	add	r3, r4
 8006e4e:	e015      	b.n	8006e7c <rshift+0x68>
 8006e50:	f854 7022 	ldr.w	r7, [r4, r2, lsl #2]
 8006e54:	f1c1 0820 	rsb	r8, r1, #32
 8006e58:	40cf      	lsrs	r7, r1
 8006e5a:	f105 0e04 	add.w	lr, r5, #4
 8006e5e:	46a1      	mov	r9, r4
 8006e60:	4576      	cmp	r6, lr
 8006e62:	46f4      	mov	ip, lr
 8006e64:	d815      	bhi.n	8006e92 <rshift+0x7e>
 8006e66:	1a9a      	subs	r2, r3, r2
 8006e68:	0092      	lsls	r2, r2, #2
 8006e6a:	3a04      	subs	r2, #4
 8006e6c:	3501      	adds	r5, #1
 8006e6e:	42ae      	cmp	r6, r5
 8006e70:	bf38      	it	cc
 8006e72:	2200      	movcc	r2, #0
 8006e74:	18a3      	adds	r3, r4, r2
 8006e76:	50a7      	str	r7, [r4, r2]
 8006e78:	b107      	cbz	r7, 8006e7c <rshift+0x68>
 8006e7a:	3304      	adds	r3, #4
 8006e7c:	1b1a      	subs	r2, r3, r4
 8006e7e:	42a3      	cmp	r3, r4
 8006e80:	ea4f 02a2 	mov.w	r2, r2, asr #2
 8006e84:	bf08      	it	eq
 8006e86:	2300      	moveq	r3, #0
 8006e88:	6102      	str	r2, [r0, #16]
 8006e8a:	bf08      	it	eq
 8006e8c:	6143      	streq	r3, [r0, #20]
 8006e8e:	e8bd 83f0 	ldmia.w	sp!, {r4, r5, r6, r7, r8, r9, pc}
 8006e92:	f8dc c000 	ldr.w	ip, [ip]
 8006e96:	fa0c fc08 	lsl.w	ip, ip, r8
 8006e9a:	ea4c 0707 	orr.w	r7, ip, r7
 8006e9e:	f849 7b04 	str.w	r7, [r9], #4
 8006ea2:	f85e 7b04 	ldr.w	r7, [lr], #4
 8006ea6:	40cf      	lsrs	r7, r1
 8006ea8:	e7da      	b.n	8006e60 <rshift+0x4c>
 8006eaa:	f851 cb04 	ldr.w	ip, [r1], #4
 8006eae:	f847 cf04 	str.w	ip, [r7, #4]!
 8006eb2:	e7c3      	b.n	8006e3c <rshift+0x28>
 8006eb4:	4623      	mov	r3, r4
 8006eb6:	e7e1      	b.n	8006e7c <rshift+0x68>

08006eb8 <__hexdig_fun>:
 8006eb8:	f1a0 0330 	sub.w	r3, r0, #48	@ 0x30
 8006ebc:	2b09      	cmp	r3, #9
 8006ebe:	d802      	bhi.n	8006ec6 <__hexdig_fun+0xe>
 8006ec0:	3820      	subs	r0, #32
 8006ec2:	b2c0      	uxtb	r0, r0
 8006ec4:	4770      	bx	lr
 8006ec6:	f1a0 0361 	sub.w	r3, r0, #97	@ 0x61
 8006eca:	2b05      	cmp	r3, #5
 8006ecc:	d801      	bhi.n	8006ed2 <__hexdig_fun+0x1a>
 8006ece:	3847      	subs	r0, #71	@ 0x47
 8006ed0:	e7f7      	b.n	8006ec2 <__hexdig_fun+0xa>
 8006ed2:	f1a0 0341 	sub.w	r3, r0, #65	@ 0x41
 8006ed6:	2b05      	cmp	r3, #5
 8006ed8:	d801      	bhi.n	8006ede <__hexdig_fun+0x26>
 8006eda:	3827      	subs	r0, #39	@ 0x27
 8006edc:	e7f1      	b.n	8006ec2 <__hexdig_fun+0xa>
 8006ede:	2000      	movs	r0, #0
 8006ee0:	4770      	bx	lr
	...

08006ee4 <__gethex>:
 8006ee4:	e92d 4ff0 	stmdb	sp!, {r4, r5, r6, r7, r8, r9, sl, fp, lr}
 8006ee8:	b085      	sub	sp, #20
 8006eea:	468a      	mov	sl, r1
 8006eec:	9302      	str	r3, [sp, #8]
 8006eee:	680b      	ldr	r3, [r1, #0]
 8006ef0:	9001      	str	r0, [sp, #4]
 8006ef2:	4690      	mov	r8, r2
 8006ef4:	1c9c      	adds	r4, r3, #2
 8006ef6:	46a1      	mov	r9, r4
 8006ef8:	f814 0b01 	ldrb.w	r0, [r4], #1
 8006efc:	2830      	cmp	r0, #48	@ 0x30
 8006efe:	d0fa      	beq.n	8006ef6 <__gethex+0x12>
 8006f00:	eba9 0303 	sub.w	r3, r9, r3
 8006f04:	f1a3 0b02 	sub.w	fp, r3, #2
 8006f08:	f7ff ffd6 	bl	8006eb8 <__hexdig_fun>
 8006f0c:	4605      	mov	r5, r0
 8006f0e:	2800      	cmp	r0, #0
 8006f10:	d168      	bne.n	8006fe4 <__gethex+0x100>
 8006f12:	49a0      	ldr	r1, [pc, #640]	@ (8007194 <__gethex+0x2b0>)
 8006f14:	2201      	movs	r2, #1
 8006f16:	4648      	mov	r0, r9
 8006f18:	f7ff ff12 	bl	8006d40 <strncmp>
 8006f1c:	4607      	mov	r7, r0
 8006f1e:	2800      	cmp	r0, #0
 8006f20:	d167      	bne.n	8006ff2 <__gethex+0x10e>
 8006f22:	f899 0001 	ldrb.w	r0, [r9, #1]
 8006f26:	4626      	mov	r6, r4
 8006f28:	f7ff ffc6 	bl	8006eb8 <__hexdig_fun>
 8006f2c:	2800      	cmp	r0, #0
 8006f2e:	d062      	beq.n	8006ff6 <__gethex+0x112>
 8006f30:	4623      	mov	r3, r4
 8006f32:	7818      	ldrb	r0, [r3, #0]
 8006f34:	2830      	cmp	r0, #48	@ 0x30
 8006f36:	4699      	mov	r9, r3
 8006f38:	f103 0301 	add.w	r3, r3, #1
 8006f3c:	d0f9      	beq.n	8006f32 <__gethex+0x4e>
 8006f3e:	f7ff ffbb 	bl	8006eb8 <__hexdig_fun>
 8006f42:	fab0 f580 	clz	r5, r0
 8006f46:	096d      	lsrs	r5, r5, #5
 8006f48:	f04f 0b01 	mov.w	fp, #1
 8006f4c:	464a      	mov	r2, r9
 8006f4e:	4616      	mov	r6, r2
 8006f50:	3201      	adds	r2, #1
 8006f52:	7830      	ldrb	r0, [r6, #0]
 8006f54:	f7ff ffb0 	bl	8006eb8 <__hexdig_fun>
 8006f58:	2800      	cmp	r0, #0
 8006f5a:	d1f8      	bne.n	8006f4e <__gethex+0x6a>
 8006f5c:	498d      	ldr	r1, [pc, #564]	@ (8007194 <__gethex+0x2b0>)
 8006f5e:	2201      	movs	r2, #1
 8006f60:	4630      	mov	r0, r6
 8006f62:	f7ff feed 	bl	8006d40 <strncmp>
 8006f66:	2800      	cmp	r0, #0
 8006f68:	d13f      	bne.n	8006fea <__gethex+0x106>
 8006f6a:	b944      	cbnz	r4, 8006f7e <__gethex+0x9a>
 8006f6c:	1c74      	adds	r4, r6, #1
 8006f6e:	4622      	mov	r2, r4
 8006f70:	4616      	mov	r6, r2
 8006f72:	3201      	adds	r2, #1
 8006f74:	7830      	ldrb	r0, [r6, #0]
 8006f76:	f7ff ff9f 	bl	8006eb8 <__hexdig_fun>
 8006f7a:	2800      	cmp	r0, #0
 8006f7c:	d1f8      	bne.n	8006f70 <__gethex+0x8c>
 8006f7e:	1ba4      	subs	r4, r4, r6
 8006f80:	00a7      	lsls	r7, r4, #2
 8006f82:	7833      	ldrb	r3, [r6, #0]
 8006f84:	f003 03df 	and.w	r3, r3, #223	@ 0xdf
 8006f88:	2b50      	cmp	r3, #80	@ 0x50
 8006f8a:	d13e      	bne.n	800700a <__gethex+0x126>
 8006f8c:	7873      	ldrb	r3, [r6, #1]
 8006f8e:	2b2b      	cmp	r3, #43	@ 0x2b
 8006f90:	d033      	beq.n	8006ffa <__gethex+0x116>
 8006f92:	2b2d      	cmp	r3, #45	@ 0x2d
 8006f94:	d034      	beq.n	8007000 <__gethex+0x11c>
 8006f96:	1c71      	adds	r1, r6, #1
 8006f98:	2400      	movs	r4, #0
 8006f9a:	7808      	ldrb	r0, [r1, #0]
 8006f9c:	f7ff ff8c 	bl	8006eb8 <__hexdig_fun>
 8006fa0:	1e43      	subs	r3, r0, #1
 8006fa2:	b2db      	uxtb	r3, r3
 8006fa4:	2b18      	cmp	r3, #24
 8006fa6:	d830      	bhi.n	800700a <__gethex+0x126>
 8006fa8:	f1a0 0210 	sub.w	r2, r0, #16
 8006fac:	f811 0f01 	ldrb.w	r0, [r1, #1]!
 8006fb0:	f7ff ff82 	bl	8006eb8 <__hexdig_fun>
 8006fb4:	f100 3cff 	add.w	ip, r0, #4294967295
 8006fb8:	fa5f fc8c 	uxtb.w	ip, ip
 8006fbc:	f1bc 0f18 	cmp.w	ip, #24
 8006fc0:	f04f 030a 	mov.w	r3, #10
 8006fc4:	d91e      	bls.n	8007004 <__gethex+0x120>
 8006fc6:	b104      	cbz	r4, 8006fca <__gethex+0xe6>
 8006fc8:	4252      	negs	r2, r2
 8006fca:	4417      	add	r7, r2
 8006fcc:	f8ca 1000 	str.w	r1, [sl]
 8006fd0:	b1ed      	cbz	r5, 800700e <__gethex+0x12a>
 8006fd2:	f1bb 0f00 	cmp.w	fp, #0
 8006fd6:	bf0c      	ite	eq
 8006fd8:	2506      	moveq	r5, #6
 8006fda:	2500      	movne	r5, #0
 8006fdc:	4628      	mov	r0, r5
 8006fde:	b005      	add	sp, #20
 8006fe0:	e8bd 8ff0 	ldmia.w	sp!, {r4, r5, r6, r7, r8, r9, sl, fp, pc}
 8006fe4:	2500      	movs	r5, #0
 8006fe6:	462c      	mov	r4, r5
 8006fe8:	e7b0      	b.n	8006f4c <__gethex+0x68>
 8006fea:	2c00      	cmp	r4, #0
 8006fec:	d1c7      	bne.n	8006f7e <__gethex+0x9a>
 8006fee:	4627      	mov	r7, r4
 8006ff0:	e7c7      	b.n	8006f82 <__gethex+0x9e>
 8006ff2:	464e      	mov	r6, r9
 8006ff4:	462f      	mov	r7, r5
 8006ff6:	2501      	movs	r5, #1
 8006ff8:	e7c3      	b.n	8006f82 <__gethex+0x9e>
 8006ffa:	2400      	movs	r4, #0
 8006ffc:	1cb1      	adds	r1, r6, #2
 8006ffe:	e7cc      	b.n	8006f9a <__gethex+0xb6>
 8007000:	2401      	movs	r4, #1
 8007002:	e7fb      	b.n	8006ffc <__gethex+0x118>
 8007004:	fb03 0002 	mla	r0, r3, r2, r0
 8007008:	e7ce      	b.n	8006fa8 <__gethex+0xc4>
 800700a:	4631      	mov	r1, r6
 800700c:	e7de      	b.n	8006fcc <__gethex+0xe8>
 800700e:	eba6 0309 	sub.w	r3, r6, r9
 8007012:	3b01      	subs	r3, #1
 8007014:	4629      	mov	r1, r5
 8007016:	2b07      	cmp	r3, #7
 8007018:	dc0a      	bgt.n	8007030 <__gethex+0x14c>
 800701a:	9801      	ldr	r0, [sp, #4]
 800701c:	f7fe f944 	bl	80052a8 <_Balloc>
 8007020:	4604      	mov	r4, r0
 8007022:	b940      	cbnz	r0, 8007036 <__gethex+0x152>
 8007024:	4b5c      	ldr	r3, [pc, #368]	@ (8007198 <__gethex+0x2b4>)
 8007026:	4602      	mov	r2, r0
 8007028:	21e4      	movs	r1, #228	@ 0xe4
 800702a:	485c      	ldr	r0, [pc, #368]	@ (800719c <__gethex+0x2b8>)
 800702c:	f7ff fec0 	bl	8006db0 <__assert_func>
 8007030:	3101      	adds	r1, #1
 8007032:	105b      	asrs	r3, r3, #1
 8007034:	e7ef      	b.n	8007016 <__gethex+0x132>
 8007036:	f100 0a14 	add.w	sl, r0, #20
 800703a:	2300      	movs	r3, #0
 800703c:	4655      	mov	r5, sl
 800703e:	469b      	mov	fp, r3
 8007040:	45b1      	cmp	r9, r6
 8007042:	d337      	bcc.n	80070b4 <__gethex+0x1d0>
 8007044:	f845 bb04 	str.w	fp, [r5], #4
 8007048:	eba5 050a 	sub.w	r5, r5, sl
 800704c:	10ad      	asrs	r5, r5, #2
 800704e:	6125      	str	r5, [r4, #16]
 8007050:	4658      	mov	r0, fp
 8007052:	f7fe fa1b 	bl	800548c <__hi0bits>
 8007056:	016d      	lsls	r5, r5, #5
 8007058:	f8d8 6000 	ldr.w	r6, [r8]
 800705c:	1a2d      	subs	r5, r5, r0
 800705e:	42b5      	cmp	r5, r6
 8007060:	dd54      	ble.n	800710c <__gethex+0x228>
 8007062:	1bad      	subs	r5, r5, r6
 8007064:	4629      	mov	r1, r5
 8007066:	4620      	mov	r0, r4
 8007068:	f7fe fda7 	bl	8005bba <__any_on>
 800706c:	4681      	mov	r9, r0
 800706e:	b178      	cbz	r0, 8007090 <__gethex+0x1ac>
 8007070:	1e6b      	subs	r3, r5, #1
 8007072:	1159      	asrs	r1, r3, #5
 8007074:	f003 021f 	and.w	r2, r3, #31
 8007078:	f85a 1021 	ldr.w	r1, [sl, r1, lsl #2]
 800707c:	f04f 0901 	mov.w	r9, #1
 8007080:	fa09 f202 	lsl.w	r2, r9, r2
 8007084:	420a      	tst	r2, r1
 8007086:	d003      	beq.n	8007090 <__gethex+0x1ac>
 8007088:	454b      	cmp	r3, r9
 800708a:	dc36      	bgt.n	80070fa <__gethex+0x216>
 800708c:	f04f 0902 	mov.w	r9, #2
 8007090:	4629      	mov	r1, r5
 8007092:	4620      	mov	r0, r4
 8007094:	f7ff febe 	bl	8006e14 <rshift>
 8007098:	442f      	add	r7, r5
 800709a:	f8d8 3008 	ldr.w	r3, [r8, #8]
 800709e:	42bb      	cmp	r3, r7
 80070a0:	da42      	bge.n	8007128 <__gethex+0x244>
 80070a2:	9801      	ldr	r0, [sp, #4]
 80070a4:	4621      	mov	r1, r4
 80070a6:	f7fe f93f 	bl	8005328 <_Bfree>
 80070aa:	9a0e      	ldr	r2, [sp, #56]	@ 0x38
 80070ac:	2300      	movs	r3, #0
 80070ae:	6013      	str	r3, [r2, #0]
 80070b0:	25a3      	movs	r5, #163	@ 0xa3
 80070b2:	e793      	b.n	8006fdc <__gethex+0xf8>
 80070b4:	f816 2d01 	ldrb.w	r2, [r6, #-1]!
 80070b8:	2a2e      	cmp	r2, #46	@ 0x2e
 80070ba:	d012      	beq.n	80070e2 <__gethex+0x1fe>
 80070bc:	2b20      	cmp	r3, #32
 80070be:	d104      	bne.n	80070ca <__gethex+0x1e6>
 80070c0:	f845 bb04 	str.w	fp, [r5], #4
 80070c4:	f04f 0b00 	mov.w	fp, #0
 80070c8:	465b      	mov	r3, fp
 80070ca:	7830      	ldrb	r0, [r6, #0]
 80070cc:	9303      	str	r3, [sp, #12]
 80070ce:	f7ff fef3 	bl	8006eb8 <__hexdig_fun>
 80070d2:	9b03      	ldr	r3, [sp, #12]
 80070d4:	f000 000f 	and.w	r0, r0, #15
 80070d8:	4098      	lsls	r0, r3
 80070da:	ea4b 0b00 	orr.w	fp, fp, r0
 80070de:	3304      	adds	r3, #4
 80070e0:	e7ae      	b.n	8007040 <__gethex+0x15c>
 80070e2:	45b1      	cmp	r9, r6
 80070e4:	d8ea      	bhi.n	80070bc <__gethex+0x1d8>
 80070e6:	492b      	ldr	r1, [pc, #172]	@ (8007194 <__gethex+0x2b0>)
 80070e8:	9303      	str	r3, [sp, #12]
 80070ea:	2201      	movs	r2, #1
 80070ec:	4630      	mov	r0, r6
 80070ee:	f7ff fe27 	bl	8006d40 <strncmp>
 80070f2:	9b03      	ldr	r3, [sp, #12]
 80070f4:	2800      	cmp	r0, #0
 80070f6:	d1e1      	bne.n	80070bc <__gethex+0x1d8>
 80070f8:	e7a2      	b.n	8007040 <__gethex+0x15c>
 80070fa:	1ea9      	subs	r1, r5, #2
 80070fc:	4620      	mov	r0, r4
 80070fe:	f7fe fd5c 	bl	8005bba <__any_on>
 8007102:	2800      	cmp	r0, #0
 8007104:	d0c2      	beq.n	800708c <__gethex+0x1a8>
 8007106:	f04f 0903 	mov.w	r9, #3
 800710a:	e7c1      	b.n	8007090 <__gethex+0x1ac>
 800710c:	da09      	bge.n	8007122 <__gethex+0x23e>
 800710e:	1b75      	subs	r5, r6, r5
 8007110:	4621      	mov	r1, r4
 8007112:	9801      	ldr	r0, [sp, #4]
 8007114:	462a      	mov	r2, r5
 8007116:	f7fe fb17 	bl	8005748 <__lshift>
 800711a:	1b7f      	subs	r7, r7, r5
 800711c:	4604      	mov	r4, r0
 800711e:	f100 0a14 	add.w	sl, r0, #20
 8007122:	f04f 0900 	mov.w	r9, #0
 8007126:	e7b8      	b.n	800709a <__gethex+0x1b6>
 8007128:	f8d8 5004 	ldr.w	r5, [r8, #4]
 800712c:	42bd      	cmp	r5, r7
 800712e:	dd6f      	ble.n	8007210 <__gethex+0x32c>
 8007130:	1bed      	subs	r5, r5, r7
 8007132:	42ae      	cmp	r6, r5
 8007134:	dc34      	bgt.n	80071a0 <__gethex+0x2bc>
 8007136:	f8d8 300c 	ldr.w	r3, [r8, #12]
 800713a:	2b02      	cmp	r3, #2
 800713c:	d022      	beq.n	8007184 <__gethex+0x2a0>
 800713e:	2b03      	cmp	r3, #3
 8007140:	d024      	beq.n	800718c <__gethex+0x2a8>
 8007142:	2b01      	cmp	r3, #1
 8007144:	d115      	bne.n	8007172 <__gethex+0x28e>
 8007146:	42ae      	cmp	r6, r5
 8007148:	d113      	bne.n	8007172 <__gethex+0x28e>
 800714a:	2e01      	cmp	r6, #1
 800714c:	d10b      	bne.n	8007166 <__gethex+0x282>
 800714e:	9a02      	ldr	r2, [sp, #8]
 8007150:	f8d8 3004 	ldr.w	r3, [r8, #4]
 8007154:	6013      	str	r3, [r2, #0]
 8007156:	2301      	movs	r3, #1
 8007158:	6123      	str	r3, [r4, #16]
 800715a:	f8ca 3000 	str.w	r3, [sl]
 800715e:	9b0e      	ldr	r3, [sp, #56]	@ 0x38
 8007160:	2562      	movs	r5, #98	@ 0x62
 8007162:	601c      	str	r4, [r3, #0]
 8007164:	e73a      	b.n	8006fdc <__gethex+0xf8>
 8007166:	1e71      	subs	r1, r6, #1
 8007168:	4620      	mov	r0, r4
 800716a:	f7fe fd26 	bl	8005bba <__any_on>
 800716e:	2800      	cmp	r0, #0
 8007170:	d1ed      	bne.n	800714e <__gethex+0x26a>
 8007172:	9801      	ldr	r0, [sp, #4]
 8007174:	4621      	mov	r1, r4
 8007176:	f7fe f8d7 	bl	8005328 <_Bfree>
 800717a:	9a0e      	ldr	r2, [sp, #56]	@ 0x38
 800717c:	2300      	movs	r3, #0
 800717e:	6013      	str	r3, [r2, #0]
 8007180:	2550      	movs	r5, #80	@ 0x50
 8007182:	e72b      	b.n	8006fdc <__gethex+0xf8>
 8007184:	9b0f      	ldr	r3, [sp, #60]	@ 0x3c
 8007186:	2b00      	cmp	r3, #0
 8007188:	d1f3      	bne.n	8007172 <__gethex+0x28e>
 800718a:	e7e0      	b.n	800714e <__gethex+0x26a>
 800718c:	9b0f      	ldr	r3, [sp, #60]	@ 0x3c
 800718e:	2b00      	cmp	r3, #0
 8007190:	d1dd      	bne.n	800714e <__gethex+0x26a>
 8007192:	e7ee      	b.n	8007172 <__gethex+0x28e>
 8007194:	08007c17 	.word	0x08007c17
 8007198:	08007bad 	.word	0x08007bad
 800719c:	08007c6e 	.word	0x08007c6e
 80071a0:	1e6f      	subs	r7, r5, #1
 80071a2:	f1b9 0f00 	cmp.w	r9, #0
 80071a6:	d130      	bne.n	800720a <__gethex+0x326>
 80071a8:	b127      	cbz	r7, 80071b4 <__gethex+0x2d0>
 80071aa:	4639      	mov	r1, r7
 80071ac:	4620      	mov	r0, r4
 80071ae:	f7fe fd04 	bl	8005bba <__any_on>
 80071b2:	4681      	mov	r9, r0
 80071b4:	117a      	asrs	r2, r7, #5
 80071b6:	2301      	movs	r3, #1
 80071b8:	f85a 2022 	ldr.w	r2, [sl, r2, lsl #2]
 80071bc:	f007 071f 	and.w	r7, r7, #31
 80071c0:	40bb      	lsls	r3, r7
 80071c2:	4213      	tst	r3, r2
 80071c4:	4629      	mov	r1, r5
 80071c6:	4620      	mov	r0, r4
 80071c8:	bf18      	it	ne
 80071ca:	f049 0902 	orrne.w	r9, r9, #2
 80071ce:	f7ff fe21 	bl	8006e14 <rshift>
 80071d2:	f8d8 7004 	ldr.w	r7, [r8, #4]
 80071d6:	1b76      	subs	r6, r6, r5
 80071d8:	2502      	movs	r5, #2
 80071da:	f1b9 0f00 	cmp.w	r9, #0
 80071de:	d047      	beq.n	8007270 <__gethex+0x38c>
 80071e0:	f8d8 300c 	ldr.w	r3, [r8, #12]
 80071e4:	2b02      	cmp	r3, #2
 80071e6:	d015      	beq.n	8007214 <__gethex+0x330>
 80071e8:	2b03      	cmp	r3, #3
 80071ea:	d017      	beq.n	800721c <__gethex+0x338>
 80071ec:	2b01      	cmp	r3, #1
 80071ee:	d109      	bne.n	8007204 <__gethex+0x320>
 80071f0:	f019 0f02 	tst.w	r9, #2
 80071f4:	d006      	beq.n	8007204 <__gethex+0x320>
 80071f6:	f8da 3000 	ldr.w	r3, [sl]
 80071fa:	ea49 0903 	orr.w	r9, r9, r3
 80071fe:	f019 0f01 	tst.w	r9, #1
 8007202:	d10e      	bne.n	8007222 <__gethex+0x33e>
 8007204:	f045 0510 	orr.w	r5, r5, #16
 8007208:	e032      	b.n	8007270 <__gethex+0x38c>
 800720a:	f04f 0901 	mov.w	r9, #1
 800720e:	e7d1      	b.n	80071b4 <__gethex+0x2d0>
 8007210:	2501      	movs	r5, #1
 8007212:	e7e2      	b.n	80071da <__gethex+0x2f6>
 8007214:	9b0f      	ldr	r3, [sp, #60]	@ 0x3c
 8007216:	f1c3 0301 	rsb	r3, r3, #1
 800721a:	930f      	str	r3, [sp, #60]	@ 0x3c
 800721c:	9b0f      	ldr	r3, [sp, #60]	@ 0x3c
 800721e:	2b00      	cmp	r3, #0
 8007220:	d0f0      	beq.n	8007204 <__gethex+0x320>
 8007222:	f8d4 b010 	ldr.w	fp, [r4, #16]
 8007226:	f104 0314 	add.w	r3, r4, #20
 800722a:	ea4f 0a8b 	mov.w	sl, fp, lsl #2
 800722e:	eb03 018b 	add.w	r1, r3, fp, lsl #2
 8007232:	f04f 0c00 	mov.w	ip, #0
 8007236:	4618      	mov	r0, r3
 8007238:	f853 2b04 	ldr.w	r2, [r3], #4
 800723c:	f1b2 3fff 	cmp.w	r2, #4294967295
 8007240:	d01b      	beq.n	800727a <__gethex+0x396>
 8007242:	3201      	adds	r2, #1
 8007244:	6002      	str	r2, [r0, #0]
 8007246:	2d02      	cmp	r5, #2
 8007248:	f104 0314 	add.w	r3, r4, #20
 800724c:	d13c      	bne.n	80072c8 <__gethex+0x3e4>
 800724e:	f8d8 2000 	ldr.w	r2, [r8]
 8007252:	3a01      	subs	r2, #1
 8007254:	42b2      	cmp	r2, r6
 8007256:	d109      	bne.n	800726c <__gethex+0x388>
 8007258:	1171      	asrs	r1, r6, #5
 800725a:	2201      	movs	r2, #1
 800725c:	f853 3021 	ldr.w	r3, [r3, r1, lsl #2]
 8007260:	f006 061f 	and.w	r6, r6, #31
 8007264:	fa02 f606 	lsl.w	r6, r2, r6
 8007268:	421e      	tst	r6, r3
 800726a:	d13a      	bne.n	80072e2 <__gethex+0x3fe>
 800726c:	f045 0520 	orr.w	r5, r5, #32
 8007270:	9b0e      	ldr	r3, [sp, #56]	@ 0x38
 8007272:	601c      	str	r4, [r3, #0]
 8007274:	9b02      	ldr	r3, [sp, #8]
 8007276:	601f      	str	r7, [r3, #0]
 8007278:	e6b0      	b.n	8006fdc <__gethex+0xf8>
 800727a:	4299      	cmp	r1, r3
 800727c:	f843 cc04 	str.w	ip, [r3, #-4]
 8007280:	d8d9      	bhi.n	8007236 <__gethex+0x352>
 8007282:	68a3      	ldr	r3, [r4, #8]
 8007284:	459b      	cmp	fp, r3
 8007286:	db17      	blt.n	80072b8 <__gethex+0x3d4>
 8007288:	6861      	ldr	r1, [r4, #4]
 800728a:	9801      	ldr	r0, [sp, #4]
 800728c:	3101      	adds	r1, #1
 800728e:	f7fe f80b 	bl	80052a8 <_Balloc>
 8007292:	4681      	mov	r9, r0
 8007294:	b918      	cbnz	r0, 800729e <__gethex+0x3ba>
 8007296:	4b1a      	ldr	r3, [pc, #104]	@ (8007300 <__gethex+0x41c>)
 8007298:	4602      	mov	r2, r0
 800729a:	2184      	movs	r1, #132	@ 0x84
 800729c:	e6c5      	b.n	800702a <__gethex+0x146>
 800729e:	6922      	ldr	r2, [r4, #16]
 80072a0:	3202      	adds	r2, #2
 80072a2:	f104 010c 	add.w	r1, r4, #12
 80072a6:	0092      	lsls	r2, r2, #2
 80072a8:	300c      	adds	r0, #12
 80072aa:	f7ff fd6b 	bl	8006d84 <memcpy>
 80072ae:	4621      	mov	r1, r4
 80072b0:	9801      	ldr	r0, [sp, #4]
 80072b2:	f7fe f839 	bl	8005328 <_Bfree>
 80072b6:	464c      	mov	r4, r9
 80072b8:	6923      	ldr	r3, [r4, #16]
 80072ba:	1c5a      	adds	r2, r3, #1
 80072bc:	eb04 0383 	add.w	r3, r4, r3, lsl #2
 80072c0:	6122      	str	r2, [r4, #16]
 80072c2:	2201      	movs	r2, #1
 80072c4:	615a      	str	r2, [r3, #20]
 80072c6:	e7be      	b.n	8007246 <__gethex+0x362>
 80072c8:	6922      	ldr	r2, [r4, #16]
 80072ca:	455a      	cmp	r2, fp
 80072cc:	dd0b      	ble.n	80072e6 <__gethex+0x402>
 80072ce:	2101      	movs	r1, #1
 80072d0:	4620      	mov	r0, r4
 80072d2:	f7ff fd9f 	bl	8006e14 <rshift>
 80072d6:	f8d8 3008 	ldr.w	r3, [r8, #8]
 80072da:	3701      	adds	r7, #1
 80072dc:	42bb      	cmp	r3, r7
 80072de:	f6ff aee0 	blt.w	80070a2 <__gethex+0x1be>
 80072e2:	2501      	movs	r5, #1
 80072e4:	e7c2      	b.n	800726c <__gethex+0x388>
 80072e6:	f016 061f 	ands.w	r6, r6, #31
 80072ea:	d0fa      	beq.n	80072e2 <__gethex+0x3fe>
 80072ec:	4453      	add	r3, sl
 80072ee:	f1c6 0620 	rsb	r6, r6, #32
 80072f2:	f853 0c04 	ldr.w	r0, [r3, #-4]
 80072f6:	f7fe f8c9 	bl	800548c <__hi0bits>
 80072fa:	42b0      	cmp	r0, r6
 80072fc:	dbe7      	blt.n	80072ce <__gethex+0x3ea>
 80072fe:	e7f0      	b.n	80072e2 <__gethex+0x3fe>
 8007300:	08007bad 	.word	0x08007bad

08007304 <L_shift>:
 8007304:	f1c2 0208 	rsb	r2, r2, #8
 8007308:	0092      	lsls	r2, r2, #2
 800730a:	b570      	push	{r4, r5, r6, lr}
 800730c:	f1c2 0620 	rsb	r6, r2, #32
 8007310:	6843      	ldr	r3, [r0, #4]
 8007312:	6804      	ldr	r4, [r0, #0]
 8007314:	fa03 f506 	lsl.w	r5, r3, r6
 8007318:	432c      	orrs	r4, r5
 800731a:	40d3      	lsrs	r3, r2
 800731c:	6004      	str	r4, [r0, #0]
 800731e:	f840 3f04 	str.w	r3, [r0, #4]!
 8007322:	4288      	cmp	r0, r1
 8007324:	d3f4      	bcc.n	8007310 <L_shift+0xc>
 8007326:	bd70      	pop	{r4, r5, r6, pc}

08007328 <__match>:
 8007328:	b530      	push	{r4, r5, lr}
 800732a:	6803      	ldr	r3, [r0, #0]
 800732c:	3301      	adds	r3, #1
 800732e:	f811 4b01 	ldrb.w	r4, [r1], #1
 8007332:	b914      	cbnz	r4, 800733a <__match+0x12>
 8007334:	6003      	str	r3, [r0, #0]
 8007336:	2001      	movs	r0, #1
 8007338:	bd30      	pop	{r4, r5, pc}
 800733a:	f813 2b01 	ldrb.w	r2, [r3], #1
 800733e:	f1a2 0541 	sub.w	r5, r2, #65	@ 0x41
 8007342:	2d19      	cmp	r5, #25
 8007344:	bf98      	it	ls
 8007346:	3220      	addls	r2, #32
 8007348:	42a2      	cmp	r2, r4
 800734a:	d0f0      	beq.n	800732e <__match+0x6>
 800734c:	2000      	movs	r0, #0
 800734e:	e7f3      	b.n	8007338 <__match+0x10>

08007350 <__hexnan>:
 8007350:	e92d 4ff0 	stmdb	sp!, {r4, r5, r6, r7, r8, r9, sl, fp, lr}
 8007354:	680b      	ldr	r3, [r1, #0]
 8007356:	6801      	ldr	r1, [r0, #0]
 8007358:	115e      	asrs	r6, r3, #5
 800735a:	eb02 0686 	add.w	r6, r2, r6, lsl #2
 800735e:	f013 031f 	ands.w	r3, r3, #31
 8007362:	b087      	sub	sp, #28
 8007364:	bf18      	it	ne
 8007366:	3604      	addne	r6, #4
 8007368:	2500      	movs	r5, #0
 800736a:	1f37      	subs	r7, r6, #4
 800736c:	4682      	mov	sl, r0
 800736e:	4690      	mov	r8, r2
 8007370:	9301      	str	r3, [sp, #4]
 8007372:	f846 5c04 	str.w	r5, [r6, #-4]
 8007376:	46b9      	mov	r9, r7
 8007378:	463c      	mov	r4, r7
 800737a:	9502      	str	r5, [sp, #8]
 800737c:	46ab      	mov	fp, r5
 800737e:	784a      	ldrb	r2, [r1, #1]
 8007380:	1c4b      	adds	r3, r1, #1
 8007382:	9303      	str	r3, [sp, #12]
 8007384:	b342      	cbz	r2, 80073d8 <__hexnan+0x88>
 8007386:	4610      	mov	r0, r2
 8007388:	9105      	str	r1, [sp, #20]
 800738a:	9204      	str	r2, [sp, #16]
 800738c:	f7ff fd94 	bl	8006eb8 <__hexdig_fun>
 8007390:	2800      	cmp	r0, #0
 8007392:	d151      	bne.n	8007438 <__hexnan+0xe8>
 8007394:	9a04      	ldr	r2, [sp, #16]
 8007396:	9905      	ldr	r1, [sp, #20]
 8007398:	2a20      	cmp	r2, #32
 800739a:	d818      	bhi.n	80073ce <__hexnan+0x7e>
 800739c:	9b02      	ldr	r3, [sp, #8]
 800739e:	459b      	cmp	fp, r3
 80073a0:	dd13      	ble.n	80073ca <__hexnan+0x7a>
 80073a2:	454c      	cmp	r4, r9
 80073a4:	d206      	bcs.n	80073b4 <__hexnan+0x64>
 80073a6:	2d07      	cmp	r5, #7
 80073a8:	dc04      	bgt.n	80073b4 <__hexnan+0x64>
 80073aa:	462a      	mov	r2, r5
 80073ac:	4649      	mov	r1, r9
 80073ae:	4620      	mov	r0, r4
 80073b0:	f7ff ffa8 	bl	8007304 <L_shift>
 80073b4:	4544      	cmp	r4, r8
 80073b6:	d952      	bls.n	800745e <__hexnan+0x10e>
 80073b8:	2300      	movs	r3, #0
 80073ba:	f1a4 0904 	sub.w	r9, r4, #4
 80073be:	f844 3c04 	str.w	r3, [r4, #-4]
 80073c2:	f8cd b008 	str.w	fp, [sp, #8]
 80073c6:	464c      	mov	r4, r9
 80073c8:	461d      	mov	r5, r3
 80073ca:	9903      	ldr	r1, [sp, #12]
 80073cc:	e7d7      	b.n	800737e <__hexnan+0x2e>
 80073ce:	2a29      	cmp	r2, #41	@ 0x29
 80073d0:	d157      	bne.n	8007482 <__hexnan+0x132>
 80073d2:	3102      	adds	r1, #2
 80073d4:	f8ca 1000 	str.w	r1, [sl]
 80073d8:	f1bb 0f00 	cmp.w	fp, #0
 80073dc:	d051      	beq.n	8007482 <__hexnan+0x132>
 80073de:	454c      	cmp	r4, r9
 80073e0:	d206      	bcs.n	80073f0 <__hexnan+0xa0>
 80073e2:	2d07      	cmp	r5, #7
 80073e4:	dc04      	bgt.n	80073f0 <__hexnan+0xa0>
 80073e6:	462a      	mov	r2, r5
 80073e8:	4649      	mov	r1, r9
 80073ea:	4620      	mov	r0, r4
 80073ec:	f7ff ff8a 	bl	8007304 <L_shift>
 80073f0:	4544      	cmp	r4, r8
 80073f2:	d936      	bls.n	8007462 <__hexnan+0x112>
 80073f4:	f1a8 0204 	sub.w	r2, r8, #4
 80073f8:	4623      	mov	r3, r4
 80073fa:	f853 1b04 	ldr.w	r1, [r3], #4
 80073fe:	f842 1f04 	str.w	r1, [r2, #4]!
 8007402:	429f      	cmp	r7, r3
 8007404:	d2f9      	bcs.n	80073fa <__hexnan+0xaa>
 8007406:	1b3b      	subs	r3, r7, r4
 8007408:	f023 0303 	bic.w	r3, r3, #3
 800740c:	3304      	adds	r3, #4
 800740e:	3401      	adds	r4, #1
 8007410:	3e03      	subs	r6, #3
 8007412:	42b4      	cmp	r4, r6
 8007414:	bf88      	it	hi
 8007416:	2304      	movhi	r3, #4
 8007418:	4443      	add	r3, r8
 800741a:	2200      	movs	r2, #0
 800741c:	f843 2b04 	str.w	r2, [r3], #4
 8007420:	429f      	cmp	r7, r3
 8007422:	d2fb      	bcs.n	800741c <__hexnan+0xcc>
 8007424:	683b      	ldr	r3, [r7, #0]
 8007426:	b91b      	cbnz	r3, 8007430 <__hexnan+0xe0>
 8007428:	4547      	cmp	r7, r8
 800742a:	d128      	bne.n	800747e <__hexnan+0x12e>
 800742c:	2301      	movs	r3, #1
 800742e:	603b      	str	r3, [r7, #0]
 8007430:	2005      	movs	r0, #5
 8007432:	b007      	add	sp, #28
 8007434:	e8bd 8ff0 	ldmia.w	sp!, {r4, r5, r6, r7, r8, r9, sl, fp, pc}
 8007438:	3501      	adds	r5, #1
 800743a:	2d08      	cmp	r5, #8
 800743c:	f10b 0b01 	add.w	fp, fp, #1
 8007440:	dd06      	ble.n	8007450 <__hexnan+0x100>
 8007442:	4544      	cmp	r4, r8
 8007444:	d9c1      	bls.n	80073ca <__hexnan+0x7a>
 8007446:	2300      	movs	r3, #0
 8007448:	f844 3c04 	str.w	r3, [r4, #-4]
 800744c:	2501      	movs	r5, #1
 800744e:	3c04      	subs	r4, #4
 8007450:	6822      	ldr	r2, [r4, #0]
 8007452:	f000 000f 	and.w	r0, r0, #15
 8007456:	ea40 1002 	orr.w	r0, r0, r2, lsl #4
 800745a:	6020      	str	r0, [r4, #0]
 800745c:	e7b5      	b.n	80073ca <__hexnan+0x7a>
 800745e:	2508      	movs	r5, #8
 8007460:	e7b3      	b.n	80073ca <__hexnan+0x7a>
 8007462:	9b01      	ldr	r3, [sp, #4]
 8007464:	2b00      	cmp	r3, #0
 8007466:	d0dd      	beq.n	8007424 <__hexnan+0xd4>
 8007468:	f1c3 0320 	rsb	r3, r3, #32
 800746c:	f04f 32ff 	mov.w	r2, #4294967295
 8007470:	40da      	lsrs	r2, r3
 8007472:	f856 3c04 	ldr.w	r3, [r6, #-4]
 8007476:	4013      	ands	r3, r2
 8007478:	f846 3c04 	str.w	r3, [r6, #-4]
 800747c:	e7d2      	b.n	8007424 <__hexnan+0xd4>
 800747e:	3f04      	subs	r7, #4
 8007480:	e7d0      	b.n	8007424 <__hexnan+0xd4>
 8007482:	2004      	movs	r0, #4
 8007484:	e7d5      	b.n	8007432 <__hexnan+0xe2>

08007486 <__ascii_mbtowc>:
 8007486:	b082      	sub	sp, #8
 8007488:	b901      	cbnz	r1, 800748c <__ascii_mbtowc+0x6>
 800748a:	a901      	add	r1, sp, #4
 800748c:	b142      	cbz	r2, 80074a0 <__ascii_mbtowc+0x1a>
 800748e:	b14b      	cbz	r3, 80074a4 <__ascii_mbtowc+0x1e>
 8007490:	7813      	ldrb	r3, [r2, #0]
 8007492:	600b      	str	r3, [r1, #0]
 8007494:	7812      	ldrb	r2, [r2, #0]
 8007496:	1e10      	subs	r0, r2, #0
 8007498:	bf18      	it	ne
 800749a:	2001      	movne	r0, #1
 800749c:	b002      	add	sp, #8
 800749e:	4770      	bx	lr
 80074a0:	4610      	mov	r0, r2
 80074a2:	e7fb      	b.n	800749c <__ascii_mbtowc+0x16>
 80074a4:	f06f 0001 	mvn.w	r0, #1
 80074a8:	e7f8      	b.n	800749c <__ascii_mbtowc+0x16>

080074aa <_realloc_r>:
 80074aa:	e92d 41f0 	stmdb	sp!, {r4, r5, r6, r7, r8, lr}
 80074ae:	4607      	mov	r7, r0
 80074b0:	4614      	mov	r4, r2
 80074b2:	460d      	mov	r5, r1
 80074b4:	b921      	cbnz	r1, 80074c0 <_realloc_r+0x16>
 80074b6:	e8bd 41f0 	ldmia.w	sp!, {r4, r5, r6, r7, r8, lr}
 80074ba:	4611      	mov	r1, r2
 80074bc:	f7fd be68 	b.w	8005190 <_malloc_r>
 80074c0:	b92a      	cbnz	r2, 80074ce <_realloc_r+0x24>
 80074c2:	f7fd fdf1 	bl	80050a8 <_free_r>
 80074c6:	4625      	mov	r5, r4
 80074c8:	4628      	mov	r0, r5
 80074ca:	e8bd 81f0 	ldmia.w	sp!, {r4, r5, r6, r7, r8, pc}
 80074ce:	f000 f840 	bl	8007552 <_malloc_usable_size_r>
 80074d2:	4284      	cmp	r4, r0
 80074d4:	4606      	mov	r6, r0
 80074d6:	d802      	bhi.n	80074de <_realloc_r+0x34>
 80074d8:	ebb4 0f50 	cmp.w	r4, r0, lsr #1
 80074dc:	d8f4      	bhi.n	80074c8 <_realloc_r+0x1e>
 80074de:	4621      	mov	r1, r4
 80074e0:	4638      	mov	r0, r7
 80074e2:	f7fd fe55 	bl	8005190 <_malloc_r>
 80074e6:	4680      	mov	r8, r0
 80074e8:	b908      	cbnz	r0, 80074ee <_realloc_r+0x44>
 80074ea:	4645      	mov	r5, r8
 80074ec:	e7ec      	b.n	80074c8 <_realloc_r+0x1e>
 80074ee:	42b4      	cmp	r4, r6
 80074f0:	4622      	mov	r2, r4
 80074f2:	4629      	mov	r1, r5
 80074f4:	bf28      	it	cs
 80074f6:	4632      	movcs	r2, r6
 80074f8:	f7ff fc44 	bl	8006d84 <memcpy>
 80074fc:	4629      	mov	r1, r5
 80074fe:	4638      	mov	r0, r7
 8007500:	f7fd fdd2 	bl	80050a8 <_free_r>
 8007504:	e7f1      	b.n	80074ea <_realloc_r+0x40>

08007506 <__ascii_wctomb>:
 8007506:	4603      	mov	r3, r0
 8007508:	4608      	mov	r0, r1
 800750a:	b141      	cbz	r1, 800751e <__ascii_wctomb+0x18>
 800750c:	2aff      	cmp	r2, #255	@ 0xff
 800750e:	d904      	bls.n	800751a <__ascii_wctomb+0x14>
 8007510:	228a      	movs	r2, #138	@ 0x8a
 8007512:	601a      	str	r2, [r3, #0]
 8007514:	f04f 30ff 	mov.w	r0, #4294967295
 8007518:	4770      	bx	lr
 800751a:	700a      	strb	r2, [r1, #0]
 800751c:	2001      	movs	r0, #1
 800751e:	4770      	bx	lr

08007520 <fiprintf>:
 8007520:	b40e      	push	{r1, r2, r3}
 8007522:	b503      	push	{r0, r1, lr}
 8007524:	4601      	mov	r1, r0
 8007526:	ab03      	add	r3, sp, #12
 8007528:	4805      	ldr	r0, [pc, #20]	@ (8007540 <fiprintf+0x20>)
 800752a:	f853 2b04 	ldr.w	r2, [r3], #4
 800752e:	6800      	ldr	r0, [r0, #0]
 8007530:	9301      	str	r3, [sp, #4]
 8007532:	f000 f83f 	bl	80075b4 <_vfiprintf_r>
 8007536:	b002      	add	sp, #8
 8007538:	f85d eb04 	ldr.w	lr, [sp], #4
 800753c:	b003      	add	sp, #12
 800753e:	4770      	bx	lr
 8007540:	20000018 	.word	0x20000018

08007544 <abort>:
 8007544:	b508      	push	{r3, lr}
 8007546:	2006      	movs	r0, #6
 8007548:	f000 fa08 	bl	800795c <raise>
 800754c:	2001      	movs	r0, #1
 800754e:	f7f9 ff71 	bl	8001434 <_exit>

08007552 <_malloc_usable_size_r>:
 8007552:	f851 3c04 	ldr.w	r3, [r1, #-4]
 8007556:	1f18      	subs	r0, r3, #4
 8007558:	2b00      	cmp	r3, #0
 800755a:	bfbc      	itt	lt
 800755c:	580b      	ldrlt	r3, [r1, r0]
 800755e:	18c0      	addlt	r0, r0, r3
 8007560:	4770      	bx	lr

08007562 <__sfputc_r>:
 8007562:	6893      	ldr	r3, [r2, #8]
 8007564:	3b01      	subs	r3, #1
 8007566:	2b00      	cmp	r3, #0
 8007568:	b410      	push	{r4}
 800756a:	6093      	str	r3, [r2, #8]
 800756c:	da08      	bge.n	8007580 <__sfputc_r+0x1e>
 800756e:	6994      	ldr	r4, [r2, #24]
 8007570:	42a3      	cmp	r3, r4
 8007572:	db01      	blt.n	8007578 <__sfputc_r+0x16>
 8007574:	290a      	cmp	r1, #10
 8007576:	d103      	bne.n	8007580 <__sfputc_r+0x1e>
 8007578:	f85d 4b04 	ldr.w	r4, [sp], #4
 800757c:	f000 b932 	b.w	80077e4 <__swbuf_r>
 8007580:	6813      	ldr	r3, [r2, #0]
 8007582:	1c58      	adds	r0, r3, #1
 8007584:	6010      	str	r0, [r2, #0]
 8007586:	7019      	strb	r1, [r3, #0]
 8007588:	4608      	mov	r0, r1
 800758a:	f85d 4b04 	ldr.w	r4, [sp], #4
 800758e:	4770      	bx	lr

08007590 <__sfputs_r>:
 8007590:	b5f8      	push	{r3, r4, r5, r6, r7, lr}
 8007592:	4606      	mov	r6, r0
 8007594:	460f      	mov	r7, r1
 8007596:	4614      	mov	r4, r2
 8007598:	18d5      	adds	r5, r2, r3
 800759a:	42ac      	cmp	r4, r5
 800759c:	d101      	bne.n	80075a2 <__sfputs_r+0x12>
 800759e:	2000      	movs	r0, #0
 80075a0:	e007      	b.n	80075b2 <__sfputs_r+0x22>
 80075a2:	f814 1b01 	ldrb.w	r1, [r4], #1
 80075a6:	463a      	mov	r2, r7
 80075a8:	4630      	mov	r0, r6
 80075aa:	f7ff ffda 	bl	8007562 <__sfputc_r>
 80075ae:	1c43      	adds	r3, r0, #1
 80075b0:	d1f3      	bne.n	800759a <__sfputs_r+0xa>
 80075b2:	bdf8      	pop	{r3, r4, r5, r6, r7, pc}

080075b4 <_vfiprintf_r>:
 80075b4:	e92d 4ff0 	stmdb	sp!, {r4, r5, r6, r7, r8, r9, sl, fp, lr}
 80075b8:	460d      	mov	r5, r1
 80075ba:	b09d      	sub	sp, #116	@ 0x74
 80075bc:	4614      	mov	r4, r2
 80075be:	4698      	mov	r8, r3
 80075c0:	4606      	mov	r6, r0
 80075c2:	b118      	cbz	r0, 80075cc <_vfiprintf_r+0x18>
 80075c4:	6a03      	ldr	r3, [r0, #32]
 80075c6:	b90b      	cbnz	r3, 80075cc <_vfiprintf_r+0x18>
 80075c8:	f7fc fdf4 	bl	80041b4 <__sinit>
 80075cc:	6e6b      	ldr	r3, [r5, #100]	@ 0x64
 80075ce:	07d9      	lsls	r1, r3, #31
 80075d0:	d405      	bmi.n	80075de <_vfiprintf_r+0x2a>
 80075d2:	89ab      	ldrh	r3, [r5, #12]
 80075d4:	059a      	lsls	r2, r3, #22
 80075d6:	d402      	bmi.n	80075de <_vfiprintf_r+0x2a>
 80075d8:	6da8      	ldr	r0, [r5, #88]	@ 0x58
 80075da:	f7fc ff04 	bl	80043e6 <__retarget_lock_acquire_recursive>
 80075de:	89ab      	ldrh	r3, [r5, #12]
 80075e0:	071b      	lsls	r3, r3, #28
 80075e2:	d501      	bpl.n	80075e8 <_vfiprintf_r+0x34>
 80075e4:	692b      	ldr	r3, [r5, #16]
 80075e6:	b99b      	cbnz	r3, 8007610 <_vfiprintf_r+0x5c>
 80075e8:	4629      	mov	r1, r5
 80075ea:	4630      	mov	r0, r6
 80075ec:	f000 f938 	bl	8007860 <__swsetup_r>
 80075f0:	b170      	cbz	r0, 8007610 <_vfiprintf_r+0x5c>
 80075f2:	6e6b      	ldr	r3, [r5, #100]	@ 0x64
 80075f4:	07dc      	lsls	r4, r3, #31
 80075f6:	d504      	bpl.n	8007602 <_vfiprintf_r+0x4e>
 80075f8:	f04f 30ff 	mov.w	r0, #4294967295
 80075fc:	b01d      	add	sp, #116	@ 0x74
 80075fe:	e8bd 8ff0 	ldmia.w	sp!, {r4, r5, r6, r7, r8, r9, sl, fp, pc}
 8007602:	89ab      	ldrh	r3, [r5, #12]
 8007604:	0598      	lsls	r0, r3, #22
 8007606:	d4f7      	bmi.n	80075f8 <_vfiprintf_r+0x44>
 8007608:	6da8      	ldr	r0, [r5, #88]	@ 0x58
 800760a:	f7fc feed 	bl	80043e8 <__retarget_lock_release_recursive>
 800760e:	e7f3      	b.n	80075f8 <_vfiprintf_r+0x44>
 8007610:	2300      	movs	r3, #0
 8007612:	9309      	str	r3, [sp, #36]	@ 0x24
 8007614:	2320      	movs	r3, #32
 8007616:	f88d 3029 	strb.w	r3, [sp, #41]	@ 0x29
 800761a:	f8cd 800c 	str.w	r8, [sp, #12]
 800761e:	2330      	movs	r3, #48	@ 0x30
 8007620:	f8df 81ac 	ldr.w	r8, [pc, #428]	@ 80077d0 <_vfiprintf_r+0x21c>
 8007624:	f88d 302a 	strb.w	r3, [sp, #42]	@ 0x2a
 8007628:	f04f 0901 	mov.w	r9, #1
 800762c:	4623      	mov	r3, r4
 800762e:	469a      	mov	sl, r3
 8007630:	f813 2b01 	ldrb.w	r2, [r3], #1
 8007634:	b10a      	cbz	r2, 800763a <_vfiprintf_r+0x86>
 8007636:	2a25      	cmp	r2, #37	@ 0x25
 8007638:	d1f9      	bne.n	800762e <_vfiprintf_r+0x7a>
 800763a:	ebba 0b04 	subs.w	fp, sl, r4
 800763e:	d00b      	beq.n	8007658 <_vfiprintf_r+0xa4>
 8007640:	465b      	mov	r3, fp
 8007642:	4622      	mov	r2, r4
 8007644:	4629      	mov	r1, r5
 8007646:	4630      	mov	r0, r6
 8007648:	f7ff ffa2 	bl	8007590 <__sfputs_r>
 800764c:	3001      	adds	r0, #1
 800764e:	f000 80a7 	beq.w	80077a0 <_vfiprintf_r+0x1ec>
 8007652:	9a09      	ldr	r2, [sp, #36]	@ 0x24
 8007654:	445a      	add	r2, fp
 8007656:	9209      	str	r2, [sp, #36]	@ 0x24
 8007658:	f89a 3000 	ldrb.w	r3, [sl]
 800765c:	2b00      	cmp	r3, #0
 800765e:	f000 809f 	beq.w	80077a0 <_vfiprintf_r+0x1ec>
 8007662:	2300      	movs	r3, #0
 8007664:	f04f 32ff 	mov.w	r2, #4294967295
 8007668:	e9cd 2305 	strd	r2, r3, [sp, #20]
 800766c:	f10a 0a01 	add.w	sl, sl, #1
 8007670:	9304      	str	r3, [sp, #16]
 8007672:	9307      	str	r3, [sp, #28]
 8007674:	f88d 3053 	strb.w	r3, [sp, #83]	@ 0x53
 8007678:	931a      	str	r3, [sp, #104]	@ 0x68
 800767a:	4654      	mov	r4, sl
 800767c:	2205      	movs	r2, #5
 800767e:	f814 1b01 	ldrb.w	r1, [r4], #1
 8007682:	4853      	ldr	r0, [pc, #332]	@ (80077d0 <_vfiprintf_r+0x21c>)
 8007684:	f7f8 fdcc 	bl	8000220 <memchr>
 8007688:	9a04      	ldr	r2, [sp, #16]
 800768a:	b9d8      	cbnz	r0, 80076c4 <_vfiprintf_r+0x110>
 800768c:	06d1      	lsls	r1, r2, #27
 800768e:	bf44      	itt	mi
 8007690:	2320      	movmi	r3, #32
 8007692:	f88d 3053 	strbmi.w	r3, [sp, #83]	@ 0x53
 8007696:	0713      	lsls	r3, r2, #28
 8007698:	bf44      	itt	mi
 800769a:	232b      	movmi	r3, #43	@ 0x2b
 800769c:	f88d 3053 	strbmi.w	r3, [sp, #83]	@ 0x53
 80076a0:	f89a 3000 	ldrb.w	r3, [sl]
 80076a4:	2b2a      	cmp	r3, #42	@ 0x2a
 80076a6:	d015      	beq.n	80076d4 <_vfiprintf_r+0x120>
 80076a8:	9a07      	ldr	r2, [sp, #28]
 80076aa:	4654      	mov	r4, sl
 80076ac:	2000      	movs	r0, #0
 80076ae:	f04f 0c0a 	mov.w	ip, #10
 80076b2:	4621      	mov	r1, r4
 80076b4:	f811 3b01 	ldrb.w	r3, [r1], #1
 80076b8:	3b30      	subs	r3, #48	@ 0x30
 80076ba:	2b09      	cmp	r3, #9
 80076bc:	d94b      	bls.n	8007756 <_vfiprintf_r+0x1a2>
 80076be:	b1b0      	cbz	r0, 80076ee <_vfiprintf_r+0x13a>
 80076c0:	9207      	str	r2, [sp, #28]
 80076c2:	e014      	b.n	80076ee <_vfiprintf_r+0x13a>
 80076c4:	eba0 0308 	sub.w	r3, r0, r8
 80076c8:	fa09 f303 	lsl.w	r3, r9, r3
 80076cc:	4313      	orrs	r3, r2
 80076ce:	9304      	str	r3, [sp, #16]
 80076d0:	46a2      	mov	sl, r4
 80076d2:	e7d2      	b.n	800767a <_vfiprintf_r+0xc6>
 80076d4:	9b03      	ldr	r3, [sp, #12]
 80076d6:	1d19      	adds	r1, r3, #4
 80076d8:	681b      	ldr	r3, [r3, #0]
 80076da:	9103      	str	r1, [sp, #12]
 80076dc:	2b00      	cmp	r3, #0
 80076de:	bfbb      	ittet	lt
 80076e0:	425b      	neglt	r3, r3
 80076e2:	f042 0202 	orrlt.w	r2, r2, #2
 80076e6:	9307      	strge	r3, [sp, #28]
 80076e8:	9307      	strlt	r3, [sp, #28]
 80076ea:	bfb8      	it	lt
 80076ec:	9204      	strlt	r2, [sp, #16]
 80076ee:	7823      	ldrb	r3, [r4, #0]
 80076f0:	2b2e      	cmp	r3, #46	@ 0x2e
 80076f2:	d10a      	bne.n	800770a <_vfiprintf_r+0x156>
 80076f4:	7863      	ldrb	r3, [r4, #1]
 80076f6:	2b2a      	cmp	r3, #42	@ 0x2a
 80076f8:	d132      	bne.n	8007760 <_vfiprintf_r+0x1ac>
 80076fa:	9b03      	ldr	r3, [sp, #12]
 80076fc:	1d1a      	adds	r2, r3, #4
 80076fe:	681b      	ldr	r3, [r3, #0]
 8007700:	9203      	str	r2, [sp, #12]
 8007702:	ea43 73e3 	orr.w	r3, r3, r3, asr #31
 8007706:	3402      	adds	r4, #2
 8007708:	9305      	str	r3, [sp, #20]
 800770a:	f8df a0d4 	ldr.w	sl, [pc, #212]	@ 80077e0 <_vfiprintf_r+0x22c>
 800770e:	7821      	ldrb	r1, [r4, #0]
 8007710:	2203      	movs	r2, #3
 8007712:	4650      	mov	r0, sl
 8007714:	f7f8 fd84 	bl	8000220 <memchr>
 8007718:	b138      	cbz	r0, 800772a <_vfiprintf_r+0x176>
 800771a:	9b04      	ldr	r3, [sp, #16]
 800771c:	eba0 000a 	sub.w	r0, r0, sl
 8007720:	2240      	movs	r2, #64	@ 0x40
 8007722:	4082      	lsls	r2, r0
 8007724:	4313      	orrs	r3, r2
 8007726:	3401      	adds	r4, #1
 8007728:	9304      	str	r3, [sp, #16]
 800772a:	f814 1b01 	ldrb.w	r1, [r4], #1
 800772e:	4829      	ldr	r0, [pc, #164]	@ (80077d4 <_vfiprintf_r+0x220>)
 8007730:	f88d 1028 	strb.w	r1, [sp, #40]	@ 0x28
 8007734:	2206      	movs	r2, #6
 8007736:	f7f8 fd73 	bl	8000220 <memchr>
 800773a:	2800      	cmp	r0, #0
 800773c:	d03f      	beq.n	80077be <_vfiprintf_r+0x20a>
 800773e:	4b26      	ldr	r3, [pc, #152]	@ (80077d8 <_vfiprintf_r+0x224>)
 8007740:	bb1b      	cbnz	r3, 800778a <_vfiprintf_r+0x1d6>
 8007742:	9b03      	ldr	r3, [sp, #12]
 8007744:	3307      	adds	r3, #7
 8007746:	f023 0307 	bic.w	r3, r3, #7
 800774a:	3308      	adds	r3, #8
 800774c:	9303      	str	r3, [sp, #12]
 800774e:	9b09      	ldr	r3, [sp, #36]	@ 0x24
 8007750:	443b      	add	r3, r7
 8007752:	9309      	str	r3, [sp, #36]	@ 0x24
 8007754:	e76a      	b.n	800762c <_vfiprintf_r+0x78>
 8007756:	fb0c 3202 	mla	r2, ip, r2, r3
 800775a:	460c      	mov	r4, r1
 800775c:	2001      	movs	r0, #1
 800775e:	e7a8      	b.n	80076b2 <_vfiprintf_r+0xfe>
 8007760:	2300      	movs	r3, #0
 8007762:	3401      	adds	r4, #1
 8007764:	9305      	str	r3, [sp, #20]
 8007766:	4619      	mov	r1, r3
 8007768:	f04f 0c0a 	mov.w	ip, #10
 800776c:	4620      	mov	r0, r4
 800776e:	f810 2b01 	ldrb.w	r2, [r0], #1
 8007772:	3a30      	subs	r2, #48	@ 0x30
 8007774:	2a09      	cmp	r2, #9
 8007776:	d903      	bls.n	8007780 <_vfiprintf_r+0x1cc>
 8007778:	2b00      	cmp	r3, #0
 800777a:	d0c6      	beq.n	800770a <_vfiprintf_r+0x156>
 800777c:	9105      	str	r1, [sp, #20]
 800777e:	e7c4      	b.n	800770a <_vfiprintf_r+0x156>
 8007780:	fb0c 2101 	mla	r1, ip, r1, r2
 8007784:	4604      	mov	r4, r0
 8007786:	2301      	movs	r3, #1
 8007788:	e7f0      	b.n	800776c <_vfiprintf_r+0x1b8>
 800778a:	ab03      	add	r3, sp, #12
 800778c:	9300      	str	r3, [sp, #0]
 800778e:	462a      	mov	r2, r5
 8007790:	4b12      	ldr	r3, [pc, #72]	@ (80077dc <_vfiprintf_r+0x228>)
 8007792:	a904      	add	r1, sp, #16
 8007794:	4630      	mov	r0, r6
 8007796:	f7fb febd 	bl	8003514 <_printf_float>
 800779a:	4607      	mov	r7, r0
 800779c:	1c78      	adds	r0, r7, #1
 800779e:	d1d6      	bne.n	800774e <_vfiprintf_r+0x19a>
 80077a0:	6e6b      	ldr	r3, [r5, #100]	@ 0x64
 80077a2:	07d9      	lsls	r1, r3, #31
 80077a4:	d405      	bmi.n	80077b2 <_vfiprintf_r+0x1fe>
 80077a6:	89ab      	ldrh	r3, [r5, #12]
 80077a8:	059a      	lsls	r2, r3, #22
 80077aa:	d402      	bmi.n	80077b2 <_vfiprintf_r+0x1fe>
 80077ac:	6da8      	ldr	r0, [r5, #88]	@ 0x58
 80077ae:	f7fc fe1b 	bl	80043e8 <__retarget_lock_release_recursive>
 80077b2:	89ab      	ldrh	r3, [r5, #12]
 80077b4:	065b      	lsls	r3, r3, #25
 80077b6:	f53f af1f 	bmi.w	80075f8 <_vfiprintf_r+0x44>
 80077ba:	9809      	ldr	r0, [sp, #36]	@ 0x24
 80077bc:	e71e      	b.n	80075fc <_vfiprintf_r+0x48>
 80077be:	ab03      	add	r3, sp, #12
 80077c0:	9300      	str	r3, [sp, #0]
 80077c2:	462a      	mov	r2, r5
 80077c4:	4b05      	ldr	r3, [pc, #20]	@ (80077dc <_vfiprintf_r+0x228>)
 80077c6:	a904      	add	r1, sp, #16
 80077c8:	4630      	mov	r0, r6
 80077ca:	f7fc f93b 	bl	8003a44 <_printf_i>
 80077ce:	e7e4      	b.n	800779a <_vfiprintf_r+0x1e6>
 80077d0:	08007c19 	.word	0x08007c19
 80077d4:	08007c23 	.word	0x08007c23
 80077d8:	08003515 	.word	0x08003515
 80077dc:	08007591 	.word	0x08007591
 80077e0:	08007c1f 	.word	0x08007c1f

080077e4 <__swbuf_r>:
 80077e4:	b5f8      	push	{r3, r4, r5, r6, r7, lr}
 80077e6:	460e      	mov	r6, r1
 80077e8:	4614      	mov	r4, r2
 80077ea:	4605      	mov	r5, r0
 80077ec:	b118      	cbz	r0, 80077f6 <__swbuf_r+0x12>
 80077ee:	6a03      	ldr	r3, [r0, #32]
 80077f0:	b90b      	cbnz	r3, 80077f6 <__swbuf_r+0x12>
 80077f2:	f7fc fcdf 	bl	80041b4 <__sinit>
 80077f6:	69a3      	ldr	r3, [r4, #24]
 80077f8:	60a3      	str	r3, [r4, #8]
 80077fa:	89a3      	ldrh	r3, [r4, #12]
 80077fc:	071a      	lsls	r2, r3, #28
 80077fe:	d501      	bpl.n	8007804 <__swbuf_r+0x20>
 8007800:	6923      	ldr	r3, [r4, #16]
 8007802:	b943      	cbnz	r3, 8007816 <__swbuf_r+0x32>
 8007804:	4621      	mov	r1, r4
 8007806:	4628      	mov	r0, r5
 8007808:	f000 f82a 	bl	8007860 <__swsetup_r>
 800780c:	b118      	cbz	r0, 8007816 <__swbuf_r+0x32>
 800780e:	f04f 37ff 	mov.w	r7, #4294967295
 8007812:	4638      	mov	r0, r7
 8007814:	bdf8      	pop	{r3, r4, r5, r6, r7, pc}
 8007816:	6823      	ldr	r3, [r4, #0]
 8007818:	6922      	ldr	r2, [r4, #16]
 800781a:	1a98      	subs	r0, r3, r2
 800781c:	6963      	ldr	r3, [r4, #20]
 800781e:	b2f6      	uxtb	r6, r6
 8007820:	4283      	cmp	r3, r0
 8007822:	4637      	mov	r7, r6
 8007824:	dc05      	bgt.n	8007832 <__swbuf_r+0x4e>
 8007826:	4621      	mov	r1, r4
 8007828:	4628      	mov	r0, r5
 800782a:	f7ff fa47 	bl	8006cbc <_fflush_r>
 800782e:	2800      	cmp	r0, #0
 8007830:	d1ed      	bne.n	800780e <__swbuf_r+0x2a>
 8007832:	68a3      	ldr	r3, [r4, #8]
 8007834:	3b01      	subs	r3, #1
 8007836:	60a3      	str	r3, [r4, #8]
 8007838:	6823      	ldr	r3, [r4, #0]
 800783a:	1c5a      	adds	r2, r3, #1
 800783c:	6022      	str	r2, [r4, #0]
 800783e:	701e      	strb	r6, [r3, #0]
 8007840:	6962      	ldr	r2, [r4, #20]
 8007842:	1c43      	adds	r3, r0, #1
 8007844:	429a      	cmp	r2, r3
 8007846:	d004      	beq.n	8007852 <__swbuf_r+0x6e>
 8007848:	89a3      	ldrh	r3, [r4, #12]
 800784a:	07db      	lsls	r3, r3, #31
 800784c:	d5e1      	bpl.n	8007812 <__swbuf_r+0x2e>
 800784e:	2e0a      	cmp	r6, #10
 8007850:	d1df      	bne.n	8007812 <__swbuf_r+0x2e>
 8007852:	4621      	mov	r1, r4
 8007854:	4628      	mov	r0, r5
 8007856:	f7ff fa31 	bl	8006cbc <_fflush_r>
 800785a:	2800      	cmp	r0, #0
 800785c:	d0d9      	beq.n	8007812 <__swbuf_r+0x2e>
 800785e:	e7d6      	b.n	800780e <__swbuf_r+0x2a>

08007860 <__swsetup_r>:
 8007860:	b538      	push	{r3, r4, r5, lr}
 8007862:	4b29      	ldr	r3, [pc, #164]	@ (8007908 <__swsetup_r+0xa8>)
 8007864:	4605      	mov	r5, r0
 8007866:	6818      	ldr	r0, [r3, #0]
 8007868:	460c      	mov	r4, r1
 800786a:	b118      	cbz	r0, 8007874 <__swsetup_r+0x14>
 800786c:	6a03      	ldr	r3, [r0, #32]
 800786e:	b90b      	cbnz	r3, 8007874 <__swsetup_r+0x14>
 8007870:	f7fc fca0 	bl	80041b4 <__sinit>
 8007874:	f9b4 300c 	ldrsh.w	r3, [r4, #12]
 8007878:	0719      	lsls	r1, r3, #28
 800787a:	d422      	bmi.n	80078c2 <__swsetup_r+0x62>
 800787c:	06da      	lsls	r2, r3, #27
 800787e:	d407      	bmi.n	8007890 <__swsetup_r+0x30>
 8007880:	2209      	movs	r2, #9
 8007882:	602a      	str	r2, [r5, #0]
 8007884:	f043 0340 	orr.w	r3, r3, #64	@ 0x40
 8007888:	81a3      	strh	r3, [r4, #12]
 800788a:	f04f 30ff 	mov.w	r0, #4294967295
 800788e:	e033      	b.n	80078f8 <__swsetup_r+0x98>
 8007890:	0758      	lsls	r0, r3, #29
 8007892:	d512      	bpl.n	80078ba <__swsetup_r+0x5a>
 8007894:	6b61      	ldr	r1, [r4, #52]	@ 0x34
 8007896:	b141      	cbz	r1, 80078aa <__swsetup_r+0x4a>
 8007898:	f104 0344 	add.w	r3, r4, #68	@ 0x44
 800789c:	4299      	cmp	r1, r3
 800789e:	d002      	beq.n	80078a6 <__swsetup_r+0x46>
 80078a0:	4628      	mov	r0, r5
 80078a2:	f7fd fc01 	bl	80050a8 <_free_r>
 80078a6:	2300      	movs	r3, #0
 80078a8:	6363      	str	r3, [r4, #52]	@ 0x34
 80078aa:	89a3      	ldrh	r3, [r4, #12]
 80078ac:	f023 0324 	bic.w	r3, r3, #36	@ 0x24
 80078b0:	81a3      	strh	r3, [r4, #12]
 80078b2:	2300      	movs	r3, #0
 80078b4:	6063      	str	r3, [r4, #4]
 80078b6:	6923      	ldr	r3, [r4, #16]
 80078b8:	6023      	str	r3, [r4, #0]
 80078ba:	89a3      	ldrh	r3, [r4, #12]
 80078bc:	f043 0308 	orr.w	r3, r3, #8
 80078c0:	81a3      	strh	r3, [r4, #12]
 80078c2:	6923      	ldr	r3, [r4, #16]
 80078c4:	b94b      	cbnz	r3, 80078da <__swsetup_r+0x7a>
 80078c6:	89a3      	ldrh	r3, [r4, #12]
 80078c8:	f403 7320 	and.w	r3, r3, #640	@ 0x280
 80078cc:	f5b3 7f00 	cmp.w	r3, #512	@ 0x200
 80078d0:	d003      	beq.n	80078da <__swsetup_r+0x7a>
 80078d2:	4621      	mov	r1, r4
 80078d4:	4628      	mov	r0, r5
 80078d6:	f000 f883 	bl	80079e0 <__smakebuf_r>
 80078da:	f9b4 300c 	ldrsh.w	r3, [r4, #12]
 80078de:	f013 0201 	ands.w	r2, r3, #1
 80078e2:	d00a      	beq.n	80078fa <__swsetup_r+0x9a>
 80078e4:	2200      	movs	r2, #0
 80078e6:	60a2      	str	r2, [r4, #8]
 80078e8:	6962      	ldr	r2, [r4, #20]
 80078ea:	4252      	negs	r2, r2
 80078ec:	61a2      	str	r2, [r4, #24]
 80078ee:	6922      	ldr	r2, [r4, #16]
 80078f0:	b942      	cbnz	r2, 8007904 <__swsetup_r+0xa4>
 80078f2:	f013 0080 	ands.w	r0, r3, #128	@ 0x80
 80078f6:	d1c5      	bne.n	8007884 <__swsetup_r+0x24>
 80078f8:	bd38      	pop	{r3, r4, r5, pc}
 80078fa:	0799      	lsls	r1, r3, #30
 80078fc:	bf58      	it	pl
 80078fe:	6962      	ldrpl	r2, [r4, #20]
 8007900:	60a2      	str	r2, [r4, #8]
 8007902:	e7f4      	b.n	80078ee <__swsetup_r+0x8e>
 8007904:	2000      	movs	r0, #0
 8007906:	e7f7      	b.n	80078f8 <__swsetup_r+0x98>
 8007908:	20000018 	.word	0x20000018

0800790c <_raise_r>:
 800790c:	291f      	cmp	r1, #31
 800790e:	b538      	push	{r3, r4, r5, lr}
 8007910:	4605      	mov	r5, r0
 8007912:	460c      	mov	r4, r1
 8007914:	d904      	bls.n	8007920 <_raise_r+0x14>
 8007916:	2316      	movs	r3, #22
 8007918:	6003      	str	r3, [r0, #0]
 800791a:	f04f 30ff 	mov.w	r0, #4294967295
 800791e:	bd38      	pop	{r3, r4, r5, pc}
 8007920:	6bc2      	ldr	r2, [r0, #60]	@ 0x3c
 8007922:	b112      	cbz	r2, 800792a <_raise_r+0x1e>
 8007924:	f852 3021 	ldr.w	r3, [r2, r1, lsl #2]
 8007928:	b94b      	cbnz	r3, 800793e <_raise_r+0x32>
 800792a:	4628      	mov	r0, r5
 800792c:	f000 f830 	bl	8007990 <_getpid_r>
 8007930:	4622      	mov	r2, r4
 8007932:	4601      	mov	r1, r0
 8007934:	4628      	mov	r0, r5
 8007936:	e8bd 4038 	ldmia.w	sp!, {r3, r4, r5, lr}
 800793a:	f000 b817 	b.w	800796c <_kill_r>
 800793e:	2b01      	cmp	r3, #1
 8007940:	d00a      	beq.n	8007958 <_raise_r+0x4c>
 8007942:	1c59      	adds	r1, r3, #1
 8007944:	d103      	bne.n	800794e <_raise_r+0x42>
 8007946:	2316      	movs	r3, #22
 8007948:	6003      	str	r3, [r0, #0]
 800794a:	2001      	movs	r0, #1
 800794c:	e7e7      	b.n	800791e <_raise_r+0x12>
 800794e:	2100      	movs	r1, #0
 8007950:	f842 1024 	str.w	r1, [r2, r4, lsl #2]
 8007954:	4620      	mov	r0, r4
 8007956:	4798      	blx	r3
 8007958:	2000      	movs	r0, #0
 800795a:	e7e0      	b.n	800791e <_raise_r+0x12>

0800795c <raise>:
 800795c:	4b02      	ldr	r3, [pc, #8]	@ (8007968 <raise+0xc>)
 800795e:	4601      	mov	r1, r0
 8007960:	6818      	ldr	r0, [r3, #0]
 8007962:	f7ff bfd3 	b.w	800790c <_raise_r>
 8007966:	bf00      	nop
 8007968:	20000018 	.word	0x20000018

0800796c <_kill_r>:
 800796c:	b538      	push	{r3, r4, r5, lr}
 800796e:	4d07      	ldr	r5, [pc, #28]	@ (800798c <_kill_r+0x20>)
 8007970:	2300      	movs	r3, #0
 8007972:	4604      	mov	r4, r0
 8007974:	4608      	mov	r0, r1
 8007976:	4611      	mov	r1, r2
 8007978:	602b      	str	r3, [r5, #0]
 800797a:	f7f9 fd53 	bl	8001424 <_kill>
 800797e:	1c43      	adds	r3, r0, #1
 8007980:	d102      	bne.n	8007988 <_kill_r+0x1c>
 8007982:	682b      	ldr	r3, [r5, #0]
 8007984:	b103      	cbz	r3, 8007988 <_kill_r+0x1c>
 8007986:	6023      	str	r3, [r4, #0]
 8007988:	bd38      	pop	{r3, r4, r5, pc}
 800798a:	bf00      	nop
 800798c:	20000798 	.word	0x20000798

08007990 <_getpid_r>:
 8007990:	f7f9 bd46 	b.w	8001420 <_getpid>

08007994 <__swhatbuf_r>:
 8007994:	b570      	push	{r4, r5, r6, lr}
 8007996:	460c      	mov	r4, r1
 8007998:	f9b1 100e 	ldrsh.w	r1, [r1, #14]
 800799c:	2900      	cmp	r1, #0
 800799e:	b096      	sub	sp, #88	@ 0x58
 80079a0:	4615      	mov	r5, r2
 80079a2:	461e      	mov	r6, r3
 80079a4:	da0d      	bge.n	80079c2 <__swhatbuf_r+0x2e>
 80079a6:	89a3      	ldrh	r3, [r4, #12]
 80079a8:	f013 0f80 	tst.w	r3, #128	@ 0x80
 80079ac:	f04f 0100 	mov.w	r1, #0
 80079b0:	bf14      	ite	ne
 80079b2:	2340      	movne	r3, #64	@ 0x40
 80079b4:	f44f 6380 	moveq.w	r3, #1024	@ 0x400
 80079b8:	2000      	movs	r0, #0
 80079ba:	6031      	str	r1, [r6, #0]
 80079bc:	602b      	str	r3, [r5, #0]
 80079be:	b016      	add	sp, #88	@ 0x58
 80079c0:	bd70      	pop	{r4, r5, r6, pc}
 80079c2:	466a      	mov	r2, sp
 80079c4:	f000 f848 	bl	8007a58 <_fstat_r>
 80079c8:	2800      	cmp	r0, #0
 80079ca:	dbec      	blt.n	80079a6 <__swhatbuf_r+0x12>
 80079cc:	9901      	ldr	r1, [sp, #4]
 80079ce:	f401 4170 	and.w	r1, r1, #61440	@ 0xf000
 80079d2:	f5a1 5300 	sub.w	r3, r1, #8192	@ 0x2000
 80079d6:	4259      	negs	r1, r3
 80079d8:	4159      	adcs	r1, r3
 80079da:	f44f 6380 	mov.w	r3, #1024	@ 0x400
 80079de:	e7eb      	b.n	80079b8 <__swhatbuf_r+0x24>

080079e0 <__smakebuf_r>:
 80079e0:	898b      	ldrh	r3, [r1, #12]
 80079e2:	b5f7      	push	{r0, r1, r2, r4, r5, r6, r7, lr}
 80079e4:	079d      	lsls	r5, r3, #30
 80079e6:	4606      	mov	r6, r0
 80079e8:	460c      	mov	r4, r1
 80079ea:	d507      	bpl.n	80079fc <__smakebuf_r+0x1c>
 80079ec:	f104 0347 	add.w	r3, r4, #71	@ 0x47
 80079f0:	6023      	str	r3, [r4, #0]
 80079f2:	6123      	str	r3, [r4, #16]
 80079f4:	2301      	movs	r3, #1
 80079f6:	6163      	str	r3, [r4, #20]
 80079f8:	b003      	add	sp, #12
 80079fa:	bdf0      	pop	{r4, r5, r6, r7, pc}
 80079fc:	ab01      	add	r3, sp, #4
 80079fe:	466a      	mov	r2, sp
 8007a00:	f7ff ffc8 	bl	8007994 <__swhatbuf_r>
 8007a04:	9f00      	ldr	r7, [sp, #0]
 8007a06:	4605      	mov	r5, r0
 8007a08:	4639      	mov	r1, r7
 8007a0a:	4630      	mov	r0, r6
 8007a0c:	f7fd fbc0 	bl	8005190 <_malloc_r>
 8007a10:	b948      	cbnz	r0, 8007a26 <__smakebuf_r+0x46>
 8007a12:	f9b4 300c 	ldrsh.w	r3, [r4, #12]
 8007a16:	059a      	lsls	r2, r3, #22
 8007a18:	d4ee      	bmi.n	80079f8 <__smakebuf_r+0x18>
 8007a1a:	f023 0303 	bic.w	r3, r3, #3
 8007a1e:	f043 0302 	orr.w	r3, r3, #2
 8007a22:	81a3      	strh	r3, [r4, #12]
 8007a24:	e7e2      	b.n	80079ec <__smakebuf_r+0xc>
 8007a26:	89a3      	ldrh	r3, [r4, #12]
 8007a28:	6020      	str	r0, [r4, #0]
 8007a2a:	f043 0380 	orr.w	r3, r3, #128	@ 0x80
 8007a2e:	81a3      	strh	r3, [r4, #12]
 8007a30:	9b01      	ldr	r3, [sp, #4]
 8007a32:	e9c4 0704 	strd	r0, r7, [r4, #16]
 8007a36:	b15b      	cbz	r3, 8007a50 <__smakebuf_r+0x70>
 8007a38:	f9b4 100e 	ldrsh.w	r1, [r4, #14]
 8007a3c:	4630      	mov	r0, r6
 8007a3e:	f000 f81d 	bl	8007a7c <_isatty_r>
 8007a42:	b128      	cbz	r0, 8007a50 <__smakebuf_r+0x70>
 8007a44:	89a3      	ldrh	r3, [r4, #12]
 8007a46:	f023 0303 	bic.w	r3, r3, #3
 8007a4a:	f043 0301 	orr.w	r3, r3, #1
 8007a4e:	81a3      	strh	r3, [r4, #12]
 8007a50:	89a3      	ldrh	r3, [r4, #12]
 8007a52:	431d      	orrs	r5, r3
 8007a54:	81a5      	strh	r5, [r4, #12]
 8007a56:	e7cf      	b.n	80079f8 <__smakebuf_r+0x18>

08007a58 <_fstat_r>:
 8007a58:	b538      	push	{r3, r4, r5, lr}
 8007a5a:	4d07      	ldr	r5, [pc, #28]	@ (8007a78 <_fstat_r+0x20>)
 8007a5c:	2300      	movs	r3, #0
 8007a5e:	4604      	mov	r4, r0
 8007a60:	4608      	mov	r0, r1
 8007a